---
triple:          'arm64-apple-darwin'
binary-path:     'bin/exec'
relocations:
  - { offsetInCU: 0xE8AF, offset: 0xE8AF, size: 0x8, addend: 0x0, symName: __ZNSt3__17advanceB8ue170006IP8EmployeellvEEvRT_T0_, symObjAddr: 0x27B4, symBinAddr: 0x100005548, symSize: 0x38 }
  - { offsetInCU: 0xEB2F, offset: 0xEB2F, size: 0x8, addend: 0x0, symName: __ZNSt3__17advanceB8ue170006INS_16reverse_iteratorIP8EmployeeEEllvEEvRT_T0_, symObjAddr: 0x2BF8, symBinAddr: 0x10000598C, symSize: 0x38 }
  - { offsetInCU: 0xFD64, offset: 0xFD64, size: 0x8, addend: 0x0, symName: __ZNSt3__124__put_character_sequenceB8ue170006IcNS_11char_traitsIcEEEERNS_13basic_ostreamIT_T0_EES7_PKS4_m, symObjAddr: 0x4820, symBinAddr: 0x1000075B4, symSize: 0x1EC }
  - { offsetInCU: 0x11BC5, offset: 0x11BC5, size: 0x8, addend: 0x0, symName: __ZNSt3__1lsB8ue170006INS_11char_traitsIcEEEERNS_13basic_ostreamIcT_EES6_PKc, symObjAddr: 0x450, symBinAddr: 0x1000031E4, symSize: 0x48 }
  - { offsetInCU: 0x11C0B, offset: 0x11C0B, size: 0x8, addend: 0x0, symName: __ZNSt3__14endlB8ue170006IcNS_11char_traitsIcEEEERNS_13basic_ostreamIT_T0_EES7_, symObjAddr: 0x4C4, symBinAddr: 0x100003258, symSize: 0x58 }
  - { offsetInCU: 0x12A48, offset: 0x12A48, size: 0x8, addend: 0x0, symName: __ZNSt3__1rsB8ue170006IcNS_11char_traitsIcEENS_9allocatorIcEEEERNS_13basic_istreamIT_T0_EES9_RNS_12basic_stringIS6_S7_T1_EE, symObjAddr: 0x70C, symBinAddr: 0x1000034A0, symSize: 0x30C }
  - { offsetInCU: 0x12CB6, offset: 0x12CB6, size: 0x8, addend: 0x0, symName: __ZNSt3__1neB8ue170006IP4TeamEEbRKNS_11__wrap_iterIT_EES7_, symObjAddr: 0xD68, symBinAddr: 0x100003AFC, symSize: 0x34 }
  - { offsetInCU: 0x12D0F, offset: 0x12D0F, size: 0x8, addend: 0x0, symName: __ZNSt3__112__to_addressB8ue170006I8EmployeeEEPT_S3_, symObjAddr: 0x1514, symBinAddr: 0x1000042A8, symSize: 0x14 }
  - { offsetInCU: 0x12D69, offset: 0x12D69, size: 0x8, addend: 0x0, symName: __ZNSt3__112construct_atB8ue170006I8EmployeeJS1_EPS1_EEPT_S4_DpOT0_, symObjAddr: 0x15A0, symBinAddr: 0x100004334, symSize: 0x3C }
  - { offsetInCU: 0x12DD9, offset: 0x12DD9, size: 0x8, addend: 0x0, symName: __ZNSt3__13maxB8ue170006ImEERKT_S3_S3_, symObjAddr: 0x1A44, symBinAddr: 0x1000047D8, symSize: 0x2C }
  - { offsetInCU: 0x12E1C, offset: 0x12E1C, size: 0x8, addend: 0x0, symName: __ZNSt3__13minB8ue170006ImEERKT_S3_S3_, symObjAddr: 0x1A70, symBinAddr: 0x100004804, symSize: 0x2C }
  - { offsetInCU: 0x13049, offset: 0x13049, size: 0x8, addend: 0x0, symName: __ZNSt3__13minB8ue170006ImNS_6__lessIvvEEEERKT_S5_S5_T0_, symObjAddr: 0x1B00, symBinAddr: 0x100004894, symSize: 0x54 }
  - { offsetInCU: 0x132D4, offset: 0x132D4, size: 0x8, addend: 0x0, symName: __ZNSt3__120__throw_length_errorB8ue170006EPKc, symObjAddr: 0x1BE4, symBinAddr: 0x100004978, symSize: 0x64 }
  - { offsetInCU: 0x132FE, offset: 0x132FE, size: 0x8, addend: 0x0, symName: __ZNSt3__13maxB8ue170006ImNS_6__lessIvvEEEERKT_S5_S5_T0_, symObjAddr: 0x1D28, symBinAddr: 0x100004ABC, symSize: 0x54 }
  - { offsetInCU: 0x13358, offset: 0x13358, size: 0x8, addend: 0x0, symName: __ZNSt3__119__allocate_at_leastB8ue170006INS_9allocatorI8EmployeeEEEENS_19__allocation_resultINS_16allocator_traitsIT_E7pointerEEERS6_m, symObjAddr: 0x1E98, symBinAddr: 0x100004C2C, symSize: 0x40 }
  - { offsetInCU: 0x1339B, offset: 0x1339B, size: 0x8, addend: 0x0, symName: __ZNSt3__117__libcpp_allocateB8ue170006Emm, symObjAddr: 0x2020, symBinAddr: 0x100004DB4, symSize: 0x60 }
  - { offsetInCU: 0x133F5, offset: 0x133F5, size: 0x8, addend: 0x0, symName: __ZNSt3__124__is_overaligned_for_newB8ue170006Em, symObjAddr: 0x2080, symBinAddr: 0x100004E14, symSize: 0x20 }
  - { offsetInCU: 0x13423, offset: 0x13423, size: 0x8, addend: 0x0, symName: __ZNSt3__121__libcpp_operator_newB8ue170006IJmSt11align_val_tEEEPvDpT_, symObjAddr: 0x20A0, symBinAddr: 0x100004E34, symSize: 0x2C }
  - { offsetInCU: 0x13470, offset: 0x13470, size: 0x8, addend: 0x0, symName: __ZNSt3__121__libcpp_operator_newB8ue170006IJmEEEPvDpT_, symObjAddr: 0x20CC, symBinAddr: 0x100004E60, symSize: 0x24 }
  - { offsetInCU: 0x134A9, offset: 0x134A9, size: 0x8, addend: 0x0, symName: __ZNSt3__142__uninitialized_allocator_move_if_noexceptB8ue170006INS_9allocatorI8EmployeeEENS_16reverse_iteratorIPS2_EES6_S6_EET2_RT_T0_T1_S7_, symObjAddr: 0x2228, symBinAddr: 0x100004FBC, symSize: 0x12C }
  - { offsetInCU: 0x13549, offset: 0x13549, size: 0x8, addend: 0x0, symName: __ZNSt3__14swapB8ue170006IP8EmployeeEENS_9enable_ifIXaasr21is_move_constructibleIT_EE5valuesr18is_move_assignableIS4_EE5valueEvE4typeERS4_S7_, symObjAddr: 0x23A0, symBinAddr: 0x100005134, symSize: 0x3C }
  - { offsetInCU: 0x1359A, offset: 0x1359A, size: 0x8, addend: 0x0, symName: __ZNSt3__122__make_exception_guardB8ue170006INS_29_AllocatorDestroyRangeReverseINS_9allocatorI8EmployeeEENS_16reverse_iteratorIPS3_EEEEEENS_28__exception_guard_exceptionsIT_EESA_, symObjAddr: 0x24EC, symBinAddr: 0x100005280, symSize: 0x4C }
  - { offsetInCU: 0x135D0, offset: 0x135D0, size: 0x8, addend: 0x0, symName: __ZNSt3__1neB8ue170006IP8EmployeeS2_EEbRKNS_16reverse_iteratorIT_EERKNS3_IT0_EE, symObjAddr: 0x257C, symBinAddr: 0x100005310, symSize: 0x48 }
  - { offsetInCU: 0x1361C, offset: 0x1361C, size: 0x8, addend: 0x0, symName: __ZNSt3__112__to_addressB8ue170006INS_16reverse_iteratorIP8EmployeeEEvEEu7__decayIDTclsr19__to_address_helperIT_EE6__callclsr3stdE7declvalIRKS5_EEEEES7_, symObjAddr: 0x25C4, symBinAddr: 0x100005358, symSize: 0x24 }
  - { offsetInCU: 0x1367B, offset: 0x1367B, size: 0x8, addend: 0x0, symName: __ZNSt3__14prevB8ue170006IP8EmployeeEENS_9enable_ifIXsr29__has_input_iterator_categoryIT_EE5valueES4_E4typeES4_NS_15iterator_traitsIS4_E15difference_typeE, symObjAddr: 0x2778, symBinAddr: 0x10000550C, symSize: 0x3C }
  - { offsetInCU: 0x136BE, offset: 0x136BE, size: 0x8, addend: 0x0, symName: __ZNSt3__121__convert_to_integralB8ue170006El, symObjAddr: 0x27EC, symBinAddr: 0x100005580, symSize: 0x14 }
  - { offsetInCU: 0x136EA, offset: 0x136EA, size: 0x8, addend: 0x0, symName: __ZNSt3__19__advanceB8ue170006IP8EmployeeEEvRT_NS_15iterator_traitsIS3_E15difference_typeENS_26random_access_iterator_tagE, symObjAddr: 0x2800, symBinAddr: 0x100005594, symSize: 0x30 }
  - { offsetInCU: 0x13733, offset: 0x13733, size: 0x8, addend: 0x0, symName: __ZNSt3__119__allocator_destroyB8ue170006INS_9allocatorI8EmployeeEENS_16reverse_iteratorINS4_IPS2_EEEES7_EEvRT_T0_T1_, symObjAddr: 0x2934, symBinAddr: 0x1000056C8, symSize: 0x70 }
  - { offsetInCU: 0x13798, offset: 0x13798, size: 0x8, addend: 0x0, symName: __ZNSt3__1neB8ue170006INS_16reverse_iteratorIP8EmployeeEES4_EEbRKNS1_IT_EERKNS1_IT0_EE, symObjAddr: 0x29E0, symBinAddr: 0x100005774, symSize: 0x60 }
  - { offsetInCU: 0x137E4, offset: 0x137E4, size: 0x8, addend: 0x0, symName: __ZNSt3__112__to_addressB8ue170006INS_16reverse_iteratorINS1_IP8EmployeeEEEEvEEu7__decayIDTclsr19__to_address_helperIT_EE6__callclsr3stdE7declvalIRKS6_EEEEES8_, symObjAddr: 0x2A68, symBinAddr: 0x1000057FC, symSize: 0x24 }
  - { offsetInCU: 0x1381A, offset: 0x1381A, size: 0x8, addend: 0x0, symName: __ZNSt3__110destroy_atB8ue170006I8EmployeeLi0EEEvPT_, symObjAddr: 0x2AE0, symBinAddr: 0x100005874, symSize: 0x24 }
  - { offsetInCU: 0x13851, offset: 0x13851, size: 0x8, addend: 0x0, symName: __ZNSt3__112__destroy_atB8ue170006I8EmployeeLi0EEEvPT_, symObjAddr: 0x2B04, symBinAddr: 0x100005898, symSize: 0x24 }
  - { offsetInCU: 0x138B1, offset: 0x138B1, size: 0x8, addend: 0x0, symName: __ZNSt3__14prevB8ue170006INS_16reverse_iteratorIP8EmployeeEEEENS_9enable_ifIXsr29__has_input_iterator_categoryIT_EE5valueES6_E4typeES6_NS_15iterator_traitsIS6_E15difference_typeE, symObjAddr: 0x2BAC, symBinAddr: 0x100005940, symSize: 0x4C }
  - { offsetInCU: 0x138F4, offset: 0x138F4, size: 0x8, addend: 0x0, symName: __ZNSt3__19__advanceB8ue170006INS_16reverse_iteratorIP8EmployeeEEEEvRT_NS_15iterator_traitsIS5_E15difference_typeENS_26random_access_iterator_tagE, symObjAddr: 0x2C30, symBinAddr: 0x1000059C4, symSize: 0x2C }
  - { offsetInCU: 0x1393D, offset: 0x1393D, size: 0x8, addend: 0x0, symName: __ZNSt3__119__libcpp_deallocateB8ue170006EPvmm, symObjAddr: 0x2F18, symBinAddr: 0x100005CAC, symSize: 0x60 }
  - { offsetInCU: 0x139A2, offset: 0x139A2, size: 0x8, addend: 0x0, symName: __ZNSt3__127__do_deallocate_handle_sizeB8ue170006IJSt11align_val_tEEEvPvmDpT_, symObjAddr: 0x2F78, symBinAddr: 0x100005D0C, symSize: 0x30 }
  - { offsetInCU: 0x139F5, offset: 0x139F5, size: 0x8, addend: 0x0, symName: __ZNSt3__127__do_deallocate_handle_sizeB8ue170006IJEEEvPvmDpT_, symObjAddr: 0x2FA8, symBinAddr: 0x100005D3C, symSize: 0x28 }
  - { offsetInCU: 0x13A33, offset: 0x13A33, size: 0x8, addend: 0x0, symName: __ZNSt3__124__libcpp_operator_deleteB8ue170006IJPvSt11align_val_tEEEvDpT_, symObjAddr: 0x2FD0, symBinAddr: 0x100005D64, symSize: 0x2C }
  - { offsetInCU: 0x13A7C, offset: 0x13A7C, size: 0x8, addend: 0x0, symName: __ZNSt3__124__libcpp_operator_deleteB8ue170006IJPvEEEvDpT_, symObjAddr: 0x2FFC, symBinAddr: 0x100005D90, symSize: 0x24 }
  - { offsetInCU: 0x13AB1, offset: 0x13AB1, size: 0x8, addend: 0x0, symName: __ZNSt3__122__make_exception_guardB8ue170006INS_6vectorI8EmployeeNS_9allocatorIS2_EEE16__destroy_vectorEEENS_28__exception_guard_exceptionsIT_EES8_, symObjAddr: 0x328C, symBinAddr: 0x100006020, symSize: 0x40 }
  - { offsetInCU: 0x13AE6, offset: 0x13AE6, size: 0x8, addend: 0x0, symName: __ZNSt3__130__uninitialized_allocator_copyB8ue170006INS_9allocatorI8EmployeeEEPS2_S4_S4_EET2_RT_T0_T1_S5_, symObjAddr: 0x3500, symBinAddr: 0x100006294, symSize: 0x80 }
  - { offsetInCU: 0x13B83, offset: 0x13B83, size: 0x8, addend: 0x0, symName: __ZNSt3__114__unwrap_rangeB8ue170006IP8EmployeeS2_EEDaT_T0_, symObjAddr: 0x3580, symBinAddr: 0x100006314, symSize: 0x3C }
  - { offsetInCU: 0x13BCF, offset: 0x13BCF, size: 0x8, addend: 0x0, symName: __ZNSt3__135__uninitialized_allocator_copy_implB8ue170006INS_9allocatorI8EmployeeEEPS2_S4_S4_EET2_RT_T0_T1_S5_, symObjAddr: 0x35BC, symBinAddr: 0x100006350, symSize: 0xF4 }
  - { offsetInCU: 0x13C6D, offset: 0x13C6D, size: 0x8, addend: 0x0, symName: __ZNSt3__113__unwrap_iterB8ue170006IP8EmployeeNS_18__unwrap_iter_implIS2_Lb1EEELi0EEEDTclsrT0_8__unwrapclsr3stdE7declvalIT_EEEES6_, symObjAddr: 0x36B0, symBinAddr: 0x100006444, symSize: 0x24 }
  - { offsetInCU: 0x13CB1, offset: 0x13CB1, size: 0x8, addend: 0x0, symName: __ZNSt3__113__rewrap_iterB8ue170006IP8EmployeeS2_NS_18__unwrap_iter_implIS2_Lb1EEEEET_S5_T0_, symObjAddr: 0x36D4, symBinAddr: 0x100006468, symSize: 0x3C }
  - { offsetInCU: 0x13E08, offset: 0x13E08, size: 0x8, addend: 0x0, symName: __ZNSt3__122__make_exception_guardB8ue170006INS_29_AllocatorDestroyRangeReverseINS_9allocatorI8EmployeeEEPS3_EEEENS_28__exception_guard_exceptionsIT_EES8_, symObjAddr: 0x37D8, symBinAddr: 0x10000656C, symSize: 0x4C }
  - { offsetInCU: 0x13E3E, offset: 0x13E3E, size: 0x8, addend: 0x0, symName: __ZNSt3__112construct_atB8ue170006I8EmployeeJRS1_EPS1_EEPT_S5_DpOT0_, symObjAddr: 0x397C, symBinAddr: 0x100006710, symSize: 0x3C }
  - { offsetInCU: 0x13EAE, offset: 0x13EAE, size: 0x8, addend: 0x0, symName: __ZNSt3__119__allocator_destroyB8ue170006INS_9allocatorI8EmployeeEENS_16reverse_iteratorIPS2_EES6_EEvRT_T0_T1_, symObjAddr: 0x3AEC, symBinAddr: 0x100006880, symSize: 0x70 }
  - { offsetInCU: 0x13F64, offset: 0x13F64, size: 0x8, addend: 0x0, symName: __ZNSt3__112__to_addressB8ue170006I4TeamEEPT_S3_, symObjAddr: 0x4270, symBinAddr: 0x100007004, symSize: 0x14 }
  - { offsetInCU: 0x13F99, offset: 0x13F99, size: 0x8, addend: 0x0, symName: __ZNSt3__110destroy_atB8ue170006I4TeamLi0EEEvPT_, symObjAddr: 0x4284, symBinAddr: 0x100007018, symSize: 0x24 }
  - { offsetInCU: 0x13FD0, offset: 0x13FD0, size: 0x8, addend: 0x0, symName: __ZNSt3__112__destroy_atB8ue170006I4TeamLi0EEEvPT_, symObjAddr: 0x42A8, symBinAddr: 0x10000703C, symSize: 0x24 }
  - { offsetInCU: 0x14007, offset: 0x14007, size: 0x8, addend: 0x0, symName: __ZNSt3__1eqB8ue170006IP4TeamEEbRKNS_11__wrap_iterIT_EES7_, symObjAddr: 0x46A8, symBinAddr: 0x10000743C, symSize: 0x48 }
  - { offsetInCU: 0x1404A, offset: 0x1404A, size: 0x8, addend: 0x0, symName: __ZNSt3__116__pad_and_outputB8ue170006IcNS_11char_traitsIcEEEENS_19ostreambuf_iteratorIT_T0_EES6_PKS4_S8_S8_RNS_8ios_baseES4_, symObjAddr: 0x4A5C, symBinAddr: 0x1000077F0, symSize: 0x240 }
  - { offsetInCU: 0x14119, offset: 0x14119, size: 0x8, addend: 0x0, symName: __ZNSt3__112__to_addressB8ue170006IcEEPT_S2_, symObjAddr: 0x4ECC, symBinAddr: 0x100007C60, symSize: 0x14 }
  - { offsetInCU: 0x1414E, offset: 0x1414E, size: 0x8, addend: 0x0, symName: __ZNSt3__19use_facetB8ue170006INS_5ctypeIcEEEERKT_RKNS_6localeE, symObjAddr: 0x514C, symBinAddr: 0x100007EE0, symSize: 0x2C }
  - { offsetInCU: 0x1452C, offset: 0x1452C, size: 0x8, addend: 0x0, symName: __ZNSt3__118__constexpr_strlenB8ue170006EPKc, symObjAddr: 0x51E4, symBinAddr: 0x100007F78, symSize: 0x24 }
  - { offsetInCU: 0x14B8D, offset: 0x14B8D, size: 0x8, addend: 0x0, symName: __ZSt28__throw_bad_array_new_lengthB8ue170006v, symObjAddr: 0x1FEC, symBinAddr: 0x100004D80, symSize: 0x34 }
  - { offsetInCU: 0x157CF, offset: 0x157CF, size: 0x8, addend: 0x0, symName: __ZNSt3__16vectorI8EmployeeNS_9allocatorIS1_EEE26__swap_out_circular_bufferERNS_14__split_bufferIS1_RS3_EE, symObjAddr: 0x184C, symBinAddr: 0x1000045E0, symSize: 0x110 }
  - { offsetInCU: 0x17EFC, offset: 0x17EFC, size: 0x8, addend: 0x0, symName: _main, symObjAddr: 0x0, symBinAddr: 0x100002D94, symSize: 0x450 }
  - { offsetInCU: 0x18027, offset: 0x18027, size: 0x8, addend: 0x0, symName: __ZNSt3__113basic_ostreamIcNS_11char_traitsIcEEElsB8ue170006EPFRS3_S4_E, symObjAddr: 0x498, symBinAddr: 0x10000322C, symSize: 0x2C }
  - { offsetInCU: 0x1819A, offset: 0x1819A, size: 0x8, addend: 0x0, symName: __ZNSt3__114basic_ifstreamIcNS_11char_traitsIcEEEC1EPKcj, symObjAddr: 0x51C, symBinAddr: 0x1000032B0, symSize: 0x16C }
  - { offsetInCU: 0x181E4, offset: 0x181E4, size: 0x8, addend: 0x0, symName: __ZNSt3__16vectorI8EmployeeNS_9allocatorIS1_EEEC1B8ue170006Ev, symObjAddr: 0x688, symBinAddr: 0x10000341C, symSize: 0x2C }
  - { offsetInCU: 0x1820E, offset: 0x1820E, size: 0x8, addend: 0x0, symName: __ZNSt3__16vectorI4TeamNS_9allocatorIS1_EEEC1B8ue170006Ev, symObjAddr: 0x6B4, symBinAddr: 0x100003448, symSize: 0x2C }
  - { offsetInCU: 0x18238, offset: 0x18238, size: 0x8, addend: 0x0, symName: __ZNSt3__112basic_stringIcNS_11char_traitsIcEENS_9allocatorIcEEEC1B8ue170006Ev, symObjAddr: 0x6E0, symBinAddr: 0x100003474, symSize: 0x2C }
  - { offsetInCU: 0x18262, offset: 0x18262, size: 0x8, addend: 0x0, symName: __ZNKSt3__19basic_iosIcNS_11char_traitsIcEEEcvbB8ue170006Ev, symObjAddr: 0xA18, symBinAddr: 0x1000037AC, symSize: 0x2C }
  - { offsetInCU: 0x18288, offset: 0x18288, size: 0x8, addend: 0x0, symName: __ZNSt3__16vectorI8EmployeeNS_9allocatorIS1_EEE9push_backB8ue170006EOS1_, symObjAddr: 0xA44, symBinAddr: 0x1000037D8, symSize: 0x6C }
  - { offsetInCU: 0x182BF, offset: 0x182BF, size: 0x8, addend: 0x0, symName: __ZN8EmployeeD1Ev, symObjAddr: 0xAB0, symBinAddr: 0x100003844, symSize: 0x2C }
  - { offsetInCU: 0x182EB, offset: 0x182EB, size: 0x8, addend: 0x0, symName: __ZNSt3__16vectorI8EmployeeNS_9allocatorIS1_EEEC1ERKS4_, symObjAddr: 0xADC, symBinAddr: 0x100003870, symSize: 0x34 }
  - { offsetInCU: 0x18326, offset: 0x18326, size: 0x8, addend: 0x0, symName: __ZNSt3__16vectorI4TeamNS_9allocatorIS1_EEEaSB8ue170006EOS4_, symObjAddr: 0xB10, symBinAddr: 0x1000038A4, symSize: 0x34 }
  - { offsetInCU: 0x1835D, offset: 0x1835D, size: 0x8, addend: 0x0, symName: __ZNSt3__16vectorI4TeamNS_9allocatorIS1_EEED1B8ue170006Ev, symObjAddr: 0xB44, symBinAddr: 0x1000038D8, symSize: 0x2C }
  - { offsetInCU: 0x18387, offset: 0x18387, size: 0x8, addend: 0x0, symName: __ZNSt3__16vectorI8EmployeeNS_9allocatorIS1_EEED1B8ue170006Ev, symObjAddr: 0xB70, symBinAddr: 0x100003904, symSize: 0x2C }
  - { offsetInCU: 0x183CC, offset: 0x183CC, size: 0x8, addend: 0x0, symName: __ZNSt3__114basic_ofstreamIcNS_11char_traitsIcEEEC1EPKcj, symObjAddr: 0xB9C, symBinAddr: 0x100003930, symSize: 0x16C }
  - { offsetInCU: 0x18416, offset: 0x18416, size: 0x8, addend: 0x0, symName: __ZNSt3__16vectorI4TeamNS_9allocatorIS1_EEE5beginB8ue170006Ev, symObjAddr: 0xD08, symBinAddr: 0x100003A9C, symSize: 0x30 }
  - { offsetInCU: 0x1843E, offset: 0x1843E, size: 0x8, addend: 0x0, symName: __ZNSt3__16vectorI4TeamNS_9allocatorIS1_EEE3endB8ue170006Ev, symObjAddr: 0xD38, symBinAddr: 0x100003ACC, symSize: 0x30 }
  - { offsetInCU: 0x18466, offset: 0x18466, size: 0x8, addend: 0x0, symName: __ZNKSt3__111__wrap_iterIP4TeamEdeB8ue170006Ev, symObjAddr: 0xD9C, symBinAddr: 0x100003B30, symSize: 0x18 }
  - { offsetInCU: 0x1848C, offset: 0x1848C, size: 0x8, addend: 0x0, symName: __ZNSt3__111__wrap_iterIP4TeamEppB8ue170006Ev, symObjAddr: 0xDB4, symBinAddr: 0x100003B48, symSize: 0x20 }
  - { offsetInCU: 0x184B7, offset: 0x184B7, size: 0x8, addend: 0x0, symName: __ZNSt3__114basic_ofstreamIcNS_11char_traitsIcEEED1Ev, symObjAddr: 0xDD4, symBinAddr: 0x100003B68, symSize: 0x40 }
  - { offsetInCU: 0x184E9, offset: 0x184E9, size: 0x8, addend: 0x0, symName: __ZNSt3__114basic_ifstreamIcNS_11char_traitsIcEEED1Ev, symObjAddr: 0xE14, symBinAddr: 0x100003BA8, symSize: 0x40 }
  - { offsetInCU: 0x18516, offset: 0x18516, size: 0x8, addend: 0x0, symName: __ZNSt3__16vectorI8EmployeeNS_9allocatorIS1_EEEC2B8ue170006Ev, symObjAddr: 0xE54, symBinAddr: 0x100003BE8, symSize: 0x4C }
  - { offsetInCU: 0x1854C, offset: 0x1854C, size: 0x8, addend: 0x0, symName: __ZNSt3__117__compressed_pairIP8EmployeeNS_9allocatorIS1_EEEC1B8ue170006IDnNS_18__default_init_tagEEEOT_OT0_, symObjAddr: 0xEA0, symBinAddr: 0x100003C34, symSize: 0x3C }
  - { offsetInCU: 0x185A4, offset: 0x185A4, size: 0x8, addend: 0x0, symName: __ZNSt3__117__compressed_pairIP8EmployeeNS_9allocatorIS1_EEEC2B8ue170006IDnNS_18__default_init_tagEEEOT_OT0_, symObjAddr: 0xEE8, symBinAddr: 0x100003C7C, symSize: 0x40 }
  - { offsetInCU: 0x185FC, offset: 0x185FC, size: 0x8, addend: 0x0, symName: __ZNSt3__122__compressed_pair_elemIP8EmployeeLi0ELb0EEC2B8ue170006IDnvEEOT_, symObjAddr: 0xF28, symBinAddr: 0x100003CBC, symSize: 0x1C }
  - { offsetInCU: 0x1863E, offset: 0x1863E, size: 0x8, addend: 0x0, symName: __ZNSt3__122__compressed_pair_elemINS_9allocatorI8EmployeeEELi1ELb1EEC2B8ue170006ENS_18__default_init_tagE, symObjAddr: 0xF44, symBinAddr: 0x100003CD8, symSize: 0x2C }
  - { offsetInCU: 0x18672, offset: 0x18672, size: 0x8, addend: 0x0, symName: __ZNSt3__19allocatorI8EmployeeEC2B8ue170006Ev, symObjAddr: 0xF70, symBinAddr: 0x100003D04, symSize: 0x2C }
  - { offsetInCU: 0x1869C, offset: 0x1869C, size: 0x8, addend: 0x0, symName: __ZNSt3__116__non_trivial_ifILb1ENS_9allocatorI8EmployeeEEEC2B8ue170006Ev, symObjAddr: 0xF9C, symBinAddr: 0x100003D30, symSize: 0x14 }
  - { offsetInCU: 0x186C6, offset: 0x186C6, size: 0x8, addend: 0x0, symName: __ZNSt3__16vectorI4TeamNS_9allocatorIS1_EEEC2B8ue170006Ev, symObjAddr: 0xFB0, symBinAddr: 0x100003D44, symSize: 0x4C }
  - { offsetInCU: 0x186F0, offset: 0x186F0, size: 0x8, addend: 0x0, symName: __ZNSt3__117__compressed_pairIP4TeamNS_9allocatorIS1_EEEC1B8ue170006IDnNS_18__default_init_tagEEEOT_OT0_, symObjAddr: 0xFFC, symBinAddr: 0x100003D90, symSize: 0x3C }
  - { offsetInCU: 0x18748, offset: 0x18748, size: 0x8, addend: 0x0, symName: __ZNSt3__117__compressed_pairIP4TeamNS_9allocatorIS1_EEEC2B8ue170006IDnNS_18__default_init_tagEEEOT_OT0_, symObjAddr: 0x1038, symBinAddr: 0x100003DCC, symSize: 0x40 }
  - { offsetInCU: 0x187A0, offset: 0x187A0, size: 0x8, addend: 0x0, symName: __ZNSt3__122__compressed_pair_elemIP4TeamLi0ELb0EEC2B8ue170006IDnvEEOT_, symObjAddr: 0x1078, symBinAddr: 0x100003E0C, symSize: 0x1C }
  - { offsetInCU: 0x187E2, offset: 0x187E2, size: 0x8, addend: 0x0, symName: __ZNSt3__122__compressed_pair_elemINS_9allocatorI4TeamEELi1ELb1EEC2B8ue170006ENS_18__default_init_tagE, symObjAddr: 0x1094, symBinAddr: 0x100003E28, symSize: 0x2C }
  - { offsetInCU: 0x18816, offset: 0x18816, size: 0x8, addend: 0x0, symName: __ZNSt3__19allocatorI4TeamEC2B8ue170006Ev, symObjAddr: 0x10C0, symBinAddr: 0x100003E54, symSize: 0x2C }
  - { offsetInCU: 0x18840, offset: 0x18840, size: 0x8, addend: 0x0, symName: __ZNSt3__116__non_trivial_ifILb1ENS_9allocatorI4TeamEEEC2B8ue170006Ev, symObjAddr: 0x10EC, symBinAddr: 0x100003E80, symSize: 0x14 }
  - { offsetInCU: 0x1886A, offset: 0x1886A, size: 0x8, addend: 0x0, symName: __ZNSt3__112basic_stringIcNS_11char_traitsIcEENS_9allocatorIcEEEC2B8ue170006Ev, symObjAddr: 0x1100, symBinAddr: 0x100003E94, symSize: 0x48 }
  - { offsetInCU: 0x18894, offset: 0x18894, size: 0x8, addend: 0x0, symName: __ZNSt3__117__compressed_pairINS_12basic_stringIcNS_11char_traitsIcEENS_9allocatorIcEEE5__repES5_EC1B8ue170006INS_18__default_init_tagESA_EEOT_OT0_, symObjAddr: 0x1148, symBinAddr: 0x100003EDC, symSize: 0x3C }
  - { offsetInCU: 0x188EC, offset: 0x188EC, size: 0x8, addend: 0x0, symName: __ZNSt3__112basic_stringIcNS_11char_traitsIcEENS_9allocatorIcEEE14__default_initB8ue170006Ev, symObjAddr: 0x1184, symBinAddr: 0x100003F18, symSize: 0x40 }
  - { offsetInCU: 0x18912, offset: 0x18912, size: 0x8, addend: 0x0, symName: __ZNSt3__117__compressed_pairINS_12basic_stringIcNS_11char_traitsIcEENS_9allocatorIcEEE5__repES5_EC2B8ue170006INS_18__default_init_tagESA_EEOT_OT0_, symObjAddr: 0x11C4, symBinAddr: 0x100003F58, symSize: 0x3C }
  - { offsetInCU: 0x1896A, offset: 0x1896A, size: 0x8, addend: 0x0, symName: __ZNSt3__122__compressed_pair_elemINS_12basic_stringIcNS_11char_traitsIcEENS_9allocatorIcEEE5__repELi0ELb0EEC2B8ue170006ENS_18__default_init_tagE, symObjAddr: 0x1200, symBinAddr: 0x100003F94, symSize: 0x14 }
  - { offsetInCU: 0x1899E, offset: 0x1899E, size: 0x8, addend: 0x0, symName: __ZNSt3__122__compressed_pair_elemINS_9allocatorIcEELi1ELb1EEC2B8ue170006ENS_18__default_init_tagE, symObjAddr: 0x1214, symBinAddr: 0x100003FA8, symSize: 0x2C }
  - { offsetInCU: 0x189D2, offset: 0x189D2, size: 0x8, addend: 0x0, symName: __ZNSt3__19allocatorIcEC2B8ue170006Ev, symObjAddr: 0x1240, symBinAddr: 0x100003FD4, symSize: 0x2C }
  - { offsetInCU: 0x189FC, offset: 0x189FC, size: 0x8, addend: 0x0, symName: __ZNSt3__116__non_trivial_ifILb1ENS_9allocatorIcEEEC2B8ue170006Ev, symObjAddr: 0x126C, symBinAddr: 0x100004000, symSize: 0x14 }
  - { offsetInCU: 0x18A26, offset: 0x18A26, size: 0x8, addend: 0x0, symName: __ZNSt3__117__compressed_pairINS_12basic_stringIcNS_11char_traitsIcEENS_9allocatorIcEEE5__repES5_E5firstB8ue170006Ev, symObjAddr: 0x1280, symBinAddr: 0x100004014, symSize: 0x24 }
  - { offsetInCU: 0x18A4C, offset: 0x18A4C, size: 0x8, addend: 0x0, symName: __ZNSt3__122__compressed_pair_elemINS_12basic_stringIcNS_11char_traitsIcEENS_9allocatorIcEEE5__repELi0ELb0EE5__getB8ue170006Ev, symObjAddr: 0x12A4, symBinAddr: 0x100004038, symSize: 0x14 }
  - { offsetInCU: 0x18A72, offset: 0x18A72, size: 0x8, addend: 0x0, symName: __ZNSt3__16vectorI8EmployeeNS_9allocatorIS1_EEE9__end_capB8ue170006Ev, symObjAddr: 0x12B8, symBinAddr: 0x10000404C, symSize: 0x28 }
  - { offsetInCU: 0x18A9E, offset: 0x18A9E, size: 0x8, addend: 0x0, symName: __ZNSt3__16vectorI8EmployeeNS_9allocatorIS1_EEE22__construct_one_at_endB8ue170006IJS1_EEEvDpOT_, symObjAddr: 0x12E0, symBinAddr: 0x100004074, symSize: 0x90 }
  - { offsetInCU: 0x18AED, offset: 0x18AED, size: 0x8, addend: 0x0, symName: __ZNSt3__16vectorI8EmployeeNS_9allocatorIS1_EEE21__push_back_slow_pathIS1_EEvOT_, symObjAddr: 0x1370, symBinAddr: 0x100004104, symSize: 0xD8 }
  - { offsetInCU: 0x18B4B, offset: 0x18B4B, size: 0x8, addend: 0x0, symName: __ZNSt3__117__compressed_pairIP8EmployeeNS_9allocatorIS1_EEE5firstB8ue170006Ev, symObjAddr: 0x1448, symBinAddr: 0x1000041DC, symSize: 0x24 }
  - { offsetInCU: 0x18B71, offset: 0x18B71, size: 0x8, addend: 0x0, symName: __ZNSt3__122__compressed_pair_elemIP8EmployeeLi0ELb0EE5__getB8ue170006Ev, symObjAddr: 0x146C, symBinAddr: 0x100004200, symSize: 0x14 }
  - { offsetInCU: 0x18BB2, offset: 0x18BB2, size: 0x8, addend: 0x0, symName: __ZNSt3__16vectorI8EmployeeNS_9allocatorIS1_EEE21_ConstructTransactionC1B8ue170006ERS4_m, symObjAddr: 0x1480, symBinAddr: 0x100004214, symSize: 0x3C }
  - { offsetInCU: 0x18BFA, offset: 0x18BFA, size: 0x8, addend: 0x0, symName: __ZNSt3__116allocator_traitsINS_9allocatorI8EmployeeEEE9constructB8ue170006IS2_JS2_EvvEEvRS3_PT_DpOT0_, symObjAddr: 0x14BC, symBinAddr: 0x100004250, symSize: 0x30 }
  - { offsetInCU: 0x18C4F, offset: 0x18C4F, size: 0x8, addend: 0x0, symName: __ZNSt3__16vectorI8EmployeeNS_9allocatorIS1_EEE7__allocB8ue170006Ev, symObjAddr: 0x14EC, symBinAddr: 0x100004280, symSize: 0x28 }
  - { offsetInCU: 0x18C75, offset: 0x18C75, size: 0x8, addend: 0x0, symName: __ZNSt3__16vectorI8EmployeeNS_9allocatorIS1_EEE21_ConstructTransactionD1B8ue170006Ev, symObjAddr: 0x1528, symBinAddr: 0x1000042BC, symSize: 0x2C }
  - { offsetInCU: 0x18C9F, offset: 0x18C9F, size: 0x8, addend: 0x0, symName: __ZNSt3__16vectorI8EmployeeNS_9allocatorIS1_EEE21_ConstructTransactionC2B8ue170006ERS4_m, symObjAddr: 0x1554, symBinAddr: 0x1000042E8, symSize: 0x4C }
  - { offsetInCU: 0x18CE7, offset: 0x18CE7, size: 0x8, addend: 0x0, symName: __ZN8EmployeeC1EOS_, symObjAddr: 0x15DC, symBinAddr: 0x100004370, symSize: 0x34 }
  - { offsetInCU: 0x18D1C, offset: 0x18D1C, size: 0x8, addend: 0x0, symName: __ZN8EmployeeC2EOS_, symObjAddr: 0x1610, symBinAddr: 0x1000043A4, symSize: 0x48 }
  - { offsetInCU: 0x18D51, offset: 0x18D51, size: 0x8, addend: 0x0, symName: __ZNSt3__112basic_stringIcNS_11char_traitsIcEENS_9allocatorIcEEEC1B8ue170006EOS5_, symObjAddr: 0x1658, symBinAddr: 0x1000043EC, symSize: 0x34 }
  - { offsetInCU: 0x18D8A, offset: 0x18D8A, size: 0x8, addend: 0x0, symName: __ZNSt3__112basic_stringIcNS_11char_traitsIcEENS_9allocatorIcEEEC2B8ue170006EOS5_, symObjAddr: 0x168C, symBinAddr: 0x100004420, symSize: 0x48 }
  - { offsetInCU: 0x18DC3, offset: 0x18DC3, size: 0x8, addend: 0x0, symName: __ZNSt3__117__compressed_pairIP8EmployeeNS_9allocatorIS1_EEE6secondB8ue170006Ev, symObjAddr: 0x16D4, symBinAddr: 0x100004468, symSize: 0x24 }
  - { offsetInCU: 0x18DE9, offset: 0x18DE9, size: 0x8, addend: 0x0, symName: __ZNSt3__122__compressed_pair_elemINS_9allocatorI8EmployeeEELi1ELb1EE5__getB8ue170006Ev, symObjAddr: 0x16F8, symBinAddr: 0x10000448C, symSize: 0x14 }
  - { offsetInCU: 0x18E0F, offset: 0x18E0F, size: 0x8, addend: 0x0, symName: __ZNSt3__16vectorI8EmployeeNS_9allocatorIS1_EEE21_ConstructTransactionD2B8ue170006Ev, symObjAddr: 0x170C, symBinAddr: 0x1000044A0, symSize: 0x20 }
  - { offsetInCU: 0x18E39, offset: 0x18E39, size: 0x8, addend: 0x0, symName: __ZNKSt3__16vectorI8EmployeeNS_9allocatorIS1_EEE11__recommendB8ue170006Em, symObjAddr: 0x172C, symBinAddr: 0x1000044C0, symSize: 0xB4 }
  - { offsetInCU: 0x18E8E, offset: 0x18E8E, size: 0x8, addend: 0x0, symName: __ZNKSt3__16vectorI8EmployeeNS_9allocatorIS1_EEE4sizeB8ue170006Ev, symObjAddr: 0x17E0, symBinAddr: 0x100004574, symSize: 0x28 }
  - { offsetInCU: 0x18EB4, offset: 0x18EB4, size: 0x8, addend: 0x0, symName: __ZNSt3__114__split_bufferI8EmployeeRNS_9allocatorIS1_EEEC1EmmS4_, symObjAddr: 0x1808, symBinAddr: 0x10000459C, symSize: 0x44 }
  - { offsetInCU: 0x18F0A, offset: 0x18F0A, size: 0x8, addend: 0x0, symName: __ZNSt3__114__split_bufferI8EmployeeRNS_9allocatorIS1_EEED1Ev, symObjAddr: 0x195C, symBinAddr: 0x1000046F0, symSize: 0x2C }
  - { offsetInCU: 0x18F36, offset: 0x18F36, size: 0x8, addend: 0x0, symName: __ZNKSt3__16vectorI8EmployeeNS_9allocatorIS1_EEE8max_sizeEv, symObjAddr: 0x1988, symBinAddr: 0x10000471C, symSize: 0x60 }
  - { offsetInCU: 0x18F5E, offset: 0x18F5E, size: 0x8, addend: 0x0, symName: __ZNKSt3__16vectorI8EmployeeNS_9allocatorIS1_EEE20__throw_length_errorB8ue170006Ev, symObjAddr: 0x19E8, symBinAddr: 0x10000477C, symSize: 0x1C }
  - { offsetInCU: 0x18F84, offset: 0x18F84, size: 0x8, addend: 0x0, symName: __ZNKSt3__16vectorI8EmployeeNS_9allocatorIS1_EEE8capacityB8ue170006Ev, symObjAddr: 0x1A04, symBinAddr: 0x100004798, symSize: 0x40 }
  - { offsetInCU: 0x18FB5, offset: 0x18FB5, size: 0x8, addend: 0x0, symName: __ZNSt3__116allocator_traitsINS_9allocatorI8EmployeeEEE8max_sizeB8ue170006IS3_vvEEmRKS3_, symObjAddr: 0x1A9C, symBinAddr: 0x100004830, symSize: 0x28 }
  - { offsetInCU: 0x18FE1, offset: 0x18FE1, size: 0x8, addend: 0x0, symName: __ZNKSt3__16vectorI8EmployeeNS_9allocatorIS1_EEE7__allocB8ue170006Ev, symObjAddr: 0x1AC4, symBinAddr: 0x100004858, symSize: 0x28 }
  - { offsetInCU: 0x19007, offset: 0x19007, size: 0x8, addend: 0x0, symName: __ZNSt3__114numeric_limitsIlE3maxB8ue170006Ev, symObjAddr: 0x1AEC, symBinAddr: 0x100004880, symSize: 0x14 }
  - { offsetInCU: 0x19030, offset: 0x19030, size: 0x8, addend: 0x0, symName: __ZNKSt3__16__lessIvvEclB8ue170006ImmEEbRKT_RKT0_, symObjAddr: 0x1B54, symBinAddr: 0x1000048E8, symSize: 0x34 }
  - { offsetInCU: 0x19084, offset: 0x19084, size: 0x8, addend: 0x0, symName: __ZNSt3__114numeric_limitsImE3maxB8ue170006Ev, symObjAddr: 0x1B88, symBinAddr: 0x10000491C, symSize: 0x14 }
  - { offsetInCU: 0x19098, offset: 0x19098, size: 0x8, addend: 0x0, symName: __ZNSt3__123__libcpp_numeric_limitsImLb1EE3maxB8ue170006Ev, symObjAddr: 0x1B9C, symBinAddr: 0x100004930, symSize: 0x8 }
  - { offsetInCU: 0x190AC, offset: 0x190AC, size: 0x8, addend: 0x0, symName: __ZNKSt3__117__compressed_pairIP8EmployeeNS_9allocatorIS1_EEE6secondB8ue170006Ev, symObjAddr: 0x1BA4, symBinAddr: 0x100004938, symSize: 0x24 }
  - { offsetInCU: 0x190D2, offset: 0x190D2, size: 0x8, addend: 0x0, symName: __ZNKSt3__122__compressed_pair_elemINS_9allocatorI8EmployeeEELi1ELb1EE5__getB8ue170006Ev, symObjAddr: 0x1BC8, symBinAddr: 0x10000495C, symSize: 0x14 }
  - { offsetInCU: 0x190F8, offset: 0x190F8, size: 0x8, addend: 0x0, symName: __ZNSt3__123__libcpp_numeric_limitsIlLb1EE3maxB8ue170006Ev, symObjAddr: 0x1BDC, symBinAddr: 0x100004970, symSize: 0x8 }
  - { offsetInCU: 0x1910C, offset: 0x1910C, size: 0x8, addend: 0x0, symName: __ZNSt12length_errorC1B8ue170006EPKc, symObjAddr: 0x1C48, symBinAddr: 0x1000049DC, symSize: 0x34 }
  - { offsetInCU: 0x19144, offset: 0x19144, size: 0x8, addend: 0x0, symName: __ZNSt12length_errorC2B8ue170006EPKc, symObjAddr: 0x1C7C, symBinAddr: 0x100004A10, symSize: 0x4C }
  - { offsetInCU: 0x1917C, offset: 0x1917C, size: 0x8, addend: 0x0, symName: __ZNKSt3__16vectorI8EmployeeNS_9allocatorIS1_EEE9__end_capB8ue170006Ev, symObjAddr: 0x1CC8, symBinAddr: 0x100004A5C, symSize: 0x28 }
  - { offsetInCU: 0x191A2, offset: 0x191A2, size: 0x8, addend: 0x0, symName: __ZNKSt3__117__compressed_pairIP8EmployeeNS_9allocatorIS1_EEE5firstB8ue170006Ev, symObjAddr: 0x1CF0, symBinAddr: 0x100004A84, symSize: 0x24 }
  - { offsetInCU: 0x191C8, offset: 0x191C8, size: 0x8, addend: 0x0, symName: __ZNKSt3__122__compressed_pair_elemIP8EmployeeLi0ELb0EE5__getB8ue170006Ev, symObjAddr: 0x1D14, symBinAddr: 0x100004AA8, symSize: 0x14 }
  - { offsetInCU: 0x191EE, offset: 0x191EE, size: 0x8, addend: 0x0, symName: __ZNSt3__114__split_bufferI8EmployeeRNS_9allocatorIS1_EEEC2EmmS4_, symObjAddr: 0x1D7C, symBinAddr: 0x100004B10, symSize: 0xE0 }
  - { offsetInCU: 0x19261, offset: 0x19261, size: 0x8, addend: 0x0, symName: __ZNSt3__117__compressed_pairIP8EmployeeRNS_9allocatorIS1_EEEC1B8ue170006IDnS5_EEOT_OT0_, symObjAddr: 0x1E5C, symBinAddr: 0x100004BF0, symSize: 0x3C }
  - { offsetInCU: 0x192B9, offset: 0x192B9, size: 0x8, addend: 0x0, symName: __ZNSt3__114__split_bufferI8EmployeeRNS_9allocatorIS1_EEE7__allocB8ue170006Ev, symObjAddr: 0x1ED8, symBinAddr: 0x100004C6C, symSize: 0x28 }
  - { offsetInCU: 0x192DF, offset: 0x192DF, size: 0x8, addend: 0x0, symName: __ZNSt3__114__split_bufferI8EmployeeRNS_9allocatorIS1_EEE9__end_capB8ue170006Ev, symObjAddr: 0x1F00, symBinAddr: 0x100004C94, symSize: 0x28 }
  - { offsetInCU: 0x19305, offset: 0x19305, size: 0x8, addend: 0x0, symName: __ZNSt3__117__compressed_pairIP8EmployeeRNS_9allocatorIS1_EEEC2B8ue170006IDnS5_EEOT_OT0_, symObjAddr: 0x1F28, symBinAddr: 0x100004CBC, symSize: 0x48 }
  - { offsetInCU: 0x1935D, offset: 0x1935D, size: 0x8, addend: 0x0, symName: __ZNSt3__122__compressed_pair_elemIRNS_9allocatorI8EmployeeEELi1ELb0EEC2B8ue170006IS4_vEEOT_, symObjAddr: 0x1F70, symBinAddr: 0x100004D04, symSize: 0x20 }
  - { offsetInCU: 0x1939F, offset: 0x1939F, size: 0x8, addend: 0x0, symName: __ZNSt3__19allocatorI8EmployeeE8allocateB8ue170006Em, symObjAddr: 0x1F90, symBinAddr: 0x100004D24, symSize: 0x5C }
  - { offsetInCU: 0x193D3, offset: 0x193D3, size: 0x8, addend: 0x0, symName: __ZNSt3__117__compressed_pairIP8EmployeeRNS_9allocatorIS1_EEE6secondB8ue170006Ev, symObjAddr: 0x20F0, symBinAddr: 0x100004E84, symSize: 0x28 }
  - { offsetInCU: 0x193F9, offset: 0x193F9, size: 0x8, addend: 0x0, symName: __ZNSt3__122__compressed_pair_elemIRNS_9allocatorI8EmployeeEELi1ELb0EE5__getB8ue170006Ev, symObjAddr: 0x2118, symBinAddr: 0x100004EAC, symSize: 0x18 }
  - { offsetInCU: 0x1941F, offset: 0x1941F, size: 0x8, addend: 0x0, symName: __ZNSt3__117__compressed_pairIP8EmployeeRNS_9allocatorIS1_EEE5firstB8ue170006Ev, symObjAddr: 0x2130, symBinAddr: 0x100004EC4, symSize: 0x24 }
  - { offsetInCU: 0x19445, offset: 0x19445, size: 0x8, addend: 0x0, symName: __ZNKSt3__16vectorI8EmployeeNS_9allocatorIS1_EEE17__annotate_deleteB8ue170006Ev, symObjAddr: 0x2154, symBinAddr: 0x100004EE8, symSize: 0xD4 }
  - { offsetInCU: 0x1946B, offset: 0x1946B, size: 0x8, addend: 0x0, symName: __ZNSt3__116reverse_iteratorIP8EmployeeEC1B8ue170006ES2_, symObjAddr: 0x2354, symBinAddr: 0x1000050E8, symSize: 0x34 }
  - { offsetInCU: 0x194A3, offset: 0x194A3, size: 0x8, addend: 0x0, symName: __ZNKSt3__116reverse_iteratorIP8EmployeeE4baseB8ue170006Ev, symObjAddr: 0x2388, symBinAddr: 0x10000511C, symSize: 0x18 }
  - { offsetInCU: 0x194C9, offset: 0x194C9, size: 0x8, addend: 0x0, symName: __ZNKSt3__16vectorI8EmployeeNS_9allocatorIS1_EEE14__annotate_newB8ue170006Em, symObjAddr: 0x23DC, symBinAddr: 0x100005170, symSize: 0xC8 }
  - { offsetInCU: 0x194FE, offset: 0x194FE, size: 0x8, addend: 0x0, symName: __ZNKSt3__16vectorI8EmployeeNS_9allocatorIS1_EEE31__annotate_contiguous_containerB8ue170006EPKvS6_S6_S6_, symObjAddr: 0x24A4, symBinAddr: 0x100005238, symSize: 0x20 }
  - { offsetInCU: 0x19554, offset: 0x19554, size: 0x8, addend: 0x0, symName: __ZNKSt3__16vectorI8EmployeeNS_9allocatorIS1_EEE4dataB8ue170006Ev, symObjAddr: 0x24C4, symBinAddr: 0x100005258, symSize: 0x28 }
  - { offsetInCU: 0x1957A, offset: 0x1957A, size: 0x8, addend: 0x0, symName: __ZNSt3__129_AllocatorDestroyRangeReverseINS_9allocatorI8EmployeeEENS_16reverse_iteratorIPS2_EEEC1B8ue170006ERS3_RS6_S9_, symObjAddr: 0x2538, symBinAddr: 0x1000052CC, symSize: 0x44 }
  - { offsetInCU: 0x195D1, offset: 0x195D1, size: 0x8, addend: 0x0, symName: __ZNKSt3__116reverse_iteratorIP8EmployeeEdeB8ue170006Ev, symObjAddr: 0x25E8, symBinAddr: 0x10000537C, symSize: 0x28 }
  - { offsetInCU: 0x19605, offset: 0x19605, size: 0x8, addend: 0x0, symName: __ZNSt3__116reverse_iteratorIP8EmployeeEppB8ue170006Ev, symObjAddr: 0x2610, symBinAddr: 0x1000053A4, symSize: 0x20 }
  - { offsetInCU: 0x1962B, offset: 0x1962B, size: 0x8, addend: 0x0, symName: __ZNSt3__128__exception_guard_exceptionsINS_29_AllocatorDestroyRangeReverseINS_9allocatorI8EmployeeEENS_16reverse_iteratorIPS3_EEEEE10__completeB8ue170006Ev, symObjAddr: 0x2630, symBinAddr: 0x1000053C4, symSize: 0x1C }
  - { offsetInCU: 0x19651, offset: 0x19651, size: 0x8, addend: 0x0, symName: __ZNSt3__128__exception_guard_exceptionsINS_29_AllocatorDestroyRangeReverseINS_9allocatorI8EmployeeEENS_16reverse_iteratorIPS3_EEEEED1B8ue170006Ev, symObjAddr: 0x264C, symBinAddr: 0x1000053E0, symSize: 0x2C }
  - { offsetInCU: 0x1967B, offset: 0x1967B, size: 0x8, addend: 0x0, symName: __ZNSt3__128__exception_guard_exceptionsINS_29_AllocatorDestroyRangeReverseINS_9allocatorI8EmployeeEENS_16reverse_iteratorIPS3_EEEEEC1B8ue170006ES8_, symObjAddr: 0x2678, symBinAddr: 0x10000540C, symSize: 0x34 }
  - { offsetInCU: 0x196B4, offset: 0x196B4, size: 0x8, addend: 0x0, symName: __ZNSt3__128__exception_guard_exceptionsINS_29_AllocatorDestroyRangeReverseINS_9allocatorI8EmployeeEENS_16reverse_iteratorIPS3_EEEEEC2B8ue170006ES8_, symObjAddr: 0x26AC, symBinAddr: 0x100005440, symSize: 0x30 }
  - { offsetInCU: 0x196ED, offset: 0x196ED, size: 0x8, addend: 0x0, symName: __ZNSt3__129_AllocatorDestroyRangeReverseINS_9allocatorI8EmployeeEENS_16reverse_iteratorIPS2_EEEC2B8ue170006ERS3_RS6_S9_, symObjAddr: 0x26DC, symBinAddr: 0x100005470, symSize: 0x38 }
  - { offsetInCU: 0x1974A, offset: 0x1974A, size: 0x8, addend: 0x0, symName: __ZNSt3__119__to_address_helperINS_16reverse_iteratorIP8EmployeeEEvE6__callB8ue170006ERKS4_, symObjAddr: 0x2714, symBinAddr: 0x1000054A8, symSize: 0x38 }
  - { offsetInCU: 0x1976D, offset: 0x1976D, size: 0x8, addend: 0x0, symName: __ZNKSt3__116reverse_iteratorIP8EmployeeEptB8ue170006Ev, symObjAddr: 0x274C, symBinAddr: 0x1000054E0, symSize: 0x2C }
  - { offsetInCU: 0x19793, offset: 0x19793, size: 0x8, addend: 0x0, symName: __ZNSt3__128__exception_guard_exceptionsINS_29_AllocatorDestroyRangeReverseINS_9allocatorI8EmployeeEENS_16reverse_iteratorIPS3_EEEEED2B8ue170006Ev, symObjAddr: 0x2830, symBinAddr: 0x1000055C4, symSize: 0x50 }
  - { offsetInCU: 0x197BD, offset: 0x197BD, size: 0x8, addend: 0x0, symName: __ZNKSt3__129_AllocatorDestroyRangeReverseINS_9allocatorI8EmployeeEENS_16reverse_iteratorIPS2_EEEclB8ue170006Ev, symObjAddr: 0x2880, symBinAddr: 0x100005614, symSize: 0xB4 }
  - { offsetInCU: 0x197E4, offset: 0x197E4, size: 0x8, addend: 0x0, symName: __ZNSt3__116reverse_iteratorINS0_IP8EmployeeEEEC1B8ue170006ES3_, symObjAddr: 0x29A4, symBinAddr: 0x100005738, symSize: 0x3C }
  - { offsetInCU: 0x1981C, offset: 0x1981C, size: 0x8, addend: 0x0, symName: __ZNSt3__116allocator_traitsINS_9allocatorI8EmployeeEEE7destroyB8ue170006IS2_vvEEvRS3_PT_, symObjAddr: 0x2A40, symBinAddr: 0x1000057D4, symSize: 0x28 }
  - { offsetInCU: 0x19857, offset: 0x19857, size: 0x8, addend: 0x0, symName: __ZNSt3__116reverse_iteratorINS0_IP8EmployeeEEEppB8ue170006Ev, symObjAddr: 0x2A8C, symBinAddr: 0x100005820, symSize: 0x30 }
  - { offsetInCU: 0x1987D, offset: 0x1987D, size: 0x8, addend: 0x0, symName: __ZNKSt3__116reverse_iteratorINS0_IP8EmployeeEEE4baseB8ue170006Ev, symObjAddr: 0x2ABC, symBinAddr: 0x100005850, symSize: 0x24 }
  - { offsetInCU: 0x198A9, offset: 0x198A9, size: 0x8, addend: 0x0, symName: __ZNSt3__119__to_address_helperINS_16reverse_iteratorINS1_IP8EmployeeEEEEvE6__callB8ue170006ERKS5_, symObjAddr: 0x2B28, symBinAddr: 0x1000058BC, symSize: 0x38 }
  - { offsetInCU: 0x198CC, offset: 0x198CC, size: 0x8, addend: 0x0, symName: __ZNKSt3__116reverse_iteratorINS0_IP8EmployeeEEEptB8ue170006Ev, symObjAddr: 0x2B60, symBinAddr: 0x1000058F4, symSize: 0x4C }
  - { offsetInCU: 0x198F2, offset: 0x198F2, size: 0x8, addend: 0x0, symName: __ZNSt3__116reverse_iteratorIP8EmployeeEpLB8ue170006El, symObjAddr: 0x2C5C, symBinAddr: 0x1000059F0, symSize: 0x30 }
  - { offsetInCU: 0x19926, offset: 0x19926, size: 0x8, addend: 0x0, symName: __ZNSt3__116reverse_iteratorIP8EmployeeEmmB8ue170006Ev, symObjAddr: 0x2C8C, symBinAddr: 0x100005A20, symSize: 0x20 }
  - { offsetInCU: 0x1994C, offset: 0x1994C, size: 0x8, addend: 0x0, symName: __ZNSt3__116reverse_iteratorINS0_IP8EmployeeEEEC2B8ue170006ES3_, symObjAddr: 0x2CAC, symBinAddr: 0x100005A40, symSize: 0x2C }
  - { offsetInCU: 0x19984, offset: 0x19984, size: 0x8, addend: 0x0, symName: __ZNSt3__116reverse_iteratorIP8EmployeeEC2B8ue170006ES2_, symObjAddr: 0x2CD8, symBinAddr: 0x100005A6C, symSize: 0x28 }
  - { offsetInCU: 0x199BC, offset: 0x199BC, size: 0x8, addend: 0x0, symName: __ZNSt3__114__split_bufferI8EmployeeRNS_9allocatorIS1_EEED2Ev, symObjAddr: 0x2D00, symBinAddr: 0x100005A94, symSize: 0x8C }
  - { offsetInCU: 0x199E8, offset: 0x199E8, size: 0x8, addend: 0x0, symName: __ZNSt3__114__split_bufferI8EmployeeRNS_9allocatorIS1_EEE5clearB8ue170006Ev, symObjAddr: 0x2D8C, symBinAddr: 0x100005B20, symSize: 0x28 }
  - { offsetInCU: 0x19A0E, offset: 0x19A0E, size: 0x8, addend: 0x0, symName: __ZNSt3__116allocator_traitsINS_9allocatorI8EmployeeEEE10deallocateB8ue170006ERS3_PS2_m, symObjAddr: 0x2DB4, symBinAddr: 0x100005B48, symSize: 0x34 }
  - { offsetInCU: 0x19A50, offset: 0x19A50, size: 0x8, addend: 0x0, symName: __ZNKSt3__114__split_bufferI8EmployeeRNS_9allocatorIS1_EEE8capacityB8ue170006Ev, symObjAddr: 0x2DE8, symBinAddr: 0x100005B7C, symSize: 0x40 }
  - { offsetInCU: 0x19A76, offset: 0x19A76, size: 0x8, addend: 0x0, symName: __ZNSt3__114__split_bufferI8EmployeeRNS_9allocatorIS1_EEE17__destruct_at_endB8ue170006EPS1_, symObjAddr: 0x2E28, symBinAddr: 0x100005BBC, symSize: 0x2C }
  - { offsetInCU: 0x19AAA, offset: 0x19AAA, size: 0x8, addend: 0x0, symName: __ZNSt3__114__split_bufferI8EmployeeRNS_9allocatorIS1_EEE17__destruct_at_endB8ue170006EPS1_NS_17integral_constantIbLb0EEE, symObjAddr: 0x2E54, symBinAddr: 0x100005BE8, symSize: 0x80 }
  - { offsetInCU: 0x19AEA, offset: 0x19AEA, size: 0x8, addend: 0x0, symName: __ZNSt3__19allocatorI8EmployeeE10deallocateB8ue170006EPS1_m, symObjAddr: 0x2ED4, symBinAddr: 0x100005C68, symSize: 0x44 }
  - { offsetInCU: 0x19B2C, offset: 0x19B2C, size: 0x8, addend: 0x0, symName: __ZNKSt3__114__split_bufferI8EmployeeRNS_9allocatorIS1_EEE9__end_capB8ue170006Ev, symObjAddr: 0x3020, symBinAddr: 0x100005DB4, symSize: 0x28 }
  - { offsetInCU: 0x19B52, offset: 0x19B52, size: 0x8, addend: 0x0, symName: __ZNKSt3__117__compressed_pairIP8EmployeeRNS_9allocatorIS1_EEE5firstB8ue170006Ev, symObjAddr: 0x3048, symBinAddr: 0x100005DDC, symSize: 0x24 }
  - { offsetInCU: 0x19B78, offset: 0x19B78, size: 0x8, addend: 0x0, symName: __ZN8EmployeeD2Ev, symObjAddr: 0x306C, symBinAddr: 0x100005E00, symSize: 0x2C }
  - { offsetInCU: 0x19BA4, offset: 0x19BA4, size: 0x8, addend: 0x0, symName: __ZNSt3__16vectorI8EmployeeNS_9allocatorIS1_EEEC2ERKS4_, symObjAddr: 0x3098, symBinAddr: 0x100005E2C, symSize: 0x94 }
  - { offsetInCU: 0x19BDF, offset: 0x19BDF, size: 0x8, addend: 0x0, symName: __ZNSt3__116allocator_traitsINS_9allocatorI8EmployeeEEE37select_on_container_copy_constructionB8ue170006IS3_vvEES3_RKS3_, symObjAddr: 0x312C, symBinAddr: 0x100005EC0, symSize: 0x10 }
  - { offsetInCU: 0x19C14, offset: 0x19C14, size: 0x8, addend: 0x0, symName: __ZNSt3__117__compressed_pairIP8EmployeeNS_9allocatorIS1_EEEC1B8ue170006IDnS4_EEOT_OT0_, symObjAddr: 0x313C, symBinAddr: 0x100005ED0, symSize: 0x3C }
  - { offsetInCU: 0x19C6C, offset: 0x19C6C, size: 0x8, addend: 0x0, symName: __ZNSt3__16vectorI8EmployeeNS_9allocatorIS1_EEE16__init_with_sizeB8ue170006IPS1_S6_EEvT_T0_m, symObjAddr: 0x3178, symBinAddr: 0x100005F0C, symSize: 0xB8 }
  - { offsetInCU: 0x19CE0, offset: 0x19CE0, size: 0x8, addend: 0x0, symName: __ZNSt3__117__compressed_pairIP8EmployeeNS_9allocatorIS1_EEEC2B8ue170006IDnS4_EEOT_OT0_, symObjAddr: 0x3230, symBinAddr: 0x100005FC4, symSize: 0x44 }
  - { offsetInCU: 0x19D38, offset: 0x19D38, size: 0x8, addend: 0x0, symName: __ZNSt3__122__compressed_pair_elemINS_9allocatorI8EmployeeEELi1ELb1EEC2B8ue170006IS3_vEEOT_, symObjAddr: 0x3274, symBinAddr: 0x100006008, symSize: 0x18 }
  - { offsetInCU: 0x19D7A, offset: 0x19D7A, size: 0x8, addend: 0x0, symName: __ZNSt3__16vectorI8EmployeeNS_9allocatorIS1_EEE16__destroy_vectorC1B8ue170006ERS4_, symObjAddr: 0x32CC, symBinAddr: 0x100006060, symSize: 0x34 }
  - { offsetInCU: 0x19DB3, offset: 0x19DB3, size: 0x8, addend: 0x0, symName: __ZNSt3__16vectorI8EmployeeNS_9allocatorIS1_EEE11__vallocateB8ue170006Em, symObjAddr: 0x3300, symBinAddr: 0x100006094, symSize: 0xB4 }
  - { offsetInCU: 0x19DF7, offset: 0x19DF7, size: 0x8, addend: 0x0, symName: __ZNSt3__16vectorI8EmployeeNS_9allocatorIS1_EEE18__construct_at_endIPS1_S6_EEvT_T0_m, symObjAddr: 0x33B4, symBinAddr: 0x100006148, symSize: 0x8C }
  - { offsetInCU: 0x19E6D, offset: 0x19E6D, size: 0x8, addend: 0x0, symName: __ZNSt3__128__exception_guard_exceptionsINS_6vectorI8EmployeeNS_9allocatorIS2_EEE16__destroy_vectorEE10__completeB8ue170006Ev, symObjAddr: 0x3440, symBinAddr: 0x1000061D4, symSize: 0x1C }
  - { offsetInCU: 0x19E93, offset: 0x19E93, size: 0x8, addend: 0x0, symName: __ZNSt3__128__exception_guard_exceptionsINS_6vectorI8EmployeeNS_9allocatorIS2_EEE16__destroy_vectorEED1B8ue170006Ev, symObjAddr: 0x345C, symBinAddr: 0x1000061F0, symSize: 0x2C }
  - { offsetInCU: 0x19EBD, offset: 0x19EBD, size: 0x8, addend: 0x0, symName: __ZNSt3__128__exception_guard_exceptionsINS_6vectorI8EmployeeNS_9allocatorIS2_EEE16__destroy_vectorEEC1B8ue170006ES6_, symObjAddr: 0x3488, symBinAddr: 0x10000621C, symSize: 0x34 }
  - { offsetInCU: 0x19EF5, offset: 0x19EF5, size: 0x8, addend: 0x0, symName: __ZNSt3__128__exception_guard_exceptionsINS_6vectorI8EmployeeNS_9allocatorIS2_EEE16__destroy_vectorEEC2B8ue170006ES6_, symObjAddr: 0x34BC, symBinAddr: 0x100006250, symSize: 0x24 }
  - { offsetInCU: 0x19F2D, offset: 0x19F2D, size: 0x8, addend: 0x0, symName: __ZNSt3__16vectorI8EmployeeNS_9allocatorIS1_EEE16__destroy_vectorC2B8ue170006ERS4_, symObjAddr: 0x34E0, symBinAddr: 0x100006274, symSize: 0x20 }
  - { offsetInCU: 0x19F82, offset: 0x19F82, size: 0x8, addend: 0x0, symName: __ZNSt3__119__unwrap_range_implIP8EmployeeS2_E8__unwrapB8ue170006ES2_S2_, symObjAddr: 0x3710, symBinAddr: 0x1000064A4, symSize: 0x58 }
  - { offsetInCU: 0x19FB9, offset: 0x19FB9, size: 0x8, addend: 0x0, symName: __ZNSt3__14pairIP8EmployeeS2_EC1B8ue170006IS2_S2_LPv0EEEOT_OT0_, symObjAddr: 0x3768, symBinAddr: 0x1000064FC, symSize: 0x3C }
  - { offsetInCU: 0x1A017, offset: 0x1A017, size: 0x8, addend: 0x0, symName: __ZNSt3__14pairIP8EmployeeS2_EC2B8ue170006IS2_S2_LPv0EEEOT_OT0_, symObjAddr: 0x37A4, symBinAddr: 0x100006538, symSize: 0x34 }
  - { offsetInCU: 0x1A075, offset: 0x1A075, size: 0x8, addend: 0x0, symName: __ZNSt3__129_AllocatorDestroyRangeReverseINS_9allocatorI8EmployeeEEPS2_EC1B8ue170006ERS3_RS4_S7_, symObjAddr: 0x3824, symBinAddr: 0x1000065B8, symSize: 0x44 }
  - { offsetInCU: 0x1A0CC, offset: 0x1A0CC, size: 0x8, addend: 0x0, symName: __ZNSt3__116allocator_traitsINS_9allocatorI8EmployeeEEE9constructB8ue170006IS2_JRS2_EvvEEvRS3_PT_DpOT0_, symObjAddr: 0x3868, symBinAddr: 0x1000065FC, symSize: 0x30 }
  - { offsetInCU: 0x1A121, offset: 0x1A121, size: 0x8, addend: 0x0, symName: __ZNSt3__128__exception_guard_exceptionsINS_29_AllocatorDestroyRangeReverseINS_9allocatorI8EmployeeEEPS3_EEE10__completeB8ue170006Ev, symObjAddr: 0x3898, symBinAddr: 0x10000662C, symSize: 0x1C }
  - { offsetInCU: 0x1A147, offset: 0x1A147, size: 0x8, addend: 0x0, symName: __ZNSt3__128__exception_guard_exceptionsINS_29_AllocatorDestroyRangeReverseINS_9allocatorI8EmployeeEEPS3_EEED1B8ue170006Ev, symObjAddr: 0x38B4, symBinAddr: 0x100006648, symSize: 0x2C }
  - { offsetInCU: 0x1A171, offset: 0x1A171, size: 0x8, addend: 0x0, symName: __ZNSt3__128__exception_guard_exceptionsINS_29_AllocatorDestroyRangeReverseINS_9allocatorI8EmployeeEEPS3_EEEC1B8ue170006ES6_, symObjAddr: 0x38E0, symBinAddr: 0x100006674, symSize: 0x34 }
  - { offsetInCU: 0x1A1AA, offset: 0x1A1AA, size: 0x8, addend: 0x0, symName: __ZNSt3__128__exception_guard_exceptionsINS_29_AllocatorDestroyRangeReverseINS_9allocatorI8EmployeeEEPS3_EEEC2B8ue170006ES6_, symObjAddr: 0x3914, symBinAddr: 0x1000066A8, symSize: 0x30 }
  - { offsetInCU: 0x1A1E3, offset: 0x1A1E3, size: 0x8, addend: 0x0, symName: __ZNSt3__129_AllocatorDestroyRangeReverseINS_9allocatorI8EmployeeEEPS2_EC2B8ue170006ERS3_RS4_S7_, symObjAddr: 0x3944, symBinAddr: 0x1000066D8, symSize: 0x38 }
  - { offsetInCU: 0x1A23A, offset: 0x1A23A, size: 0x8, addend: 0x0, symName: __ZN8EmployeeC1ERKS_, symObjAddr: 0x39B8, symBinAddr: 0x10000674C, symSize: 0x34 }
  - { offsetInCU: 0x1A26F, offset: 0x1A26F, size: 0x8, addend: 0x0, symName: __ZN8EmployeeC2ERKS_, symObjAddr: 0x39EC, symBinAddr: 0x100006780, symSize: 0x48 }
  - { offsetInCU: 0x1A2A4, offset: 0x1A2A4, size: 0x8, addend: 0x0, symName: __ZNSt3__128__exception_guard_exceptionsINS_29_AllocatorDestroyRangeReverseINS_9allocatorI8EmployeeEEPS3_EEED2B8ue170006Ev, symObjAddr: 0x3A34, symBinAddr: 0x1000067C8, symSize: 0x50 }
  - { offsetInCU: 0x1A2CE, offset: 0x1A2CE, size: 0x8, addend: 0x0, symName: __ZNKSt3__129_AllocatorDestroyRangeReverseINS_9allocatorI8EmployeeEEPS2_EclB8ue170006Ev, symObjAddr: 0x3A84, symBinAddr: 0x100006818, symSize: 0x68 }
  - { offsetInCU: 0x1A2F4, offset: 0x1A2F4, size: 0x8, addend: 0x0, symName: __ZNSt3__118__unwrap_iter_implIP8EmployeeLb1EE8__unwrapB8ue170006ES2_, symObjAddr: 0x3B5C, symBinAddr: 0x1000068F0, symSize: 0x24 }
  - { offsetInCU: 0x1A317, offset: 0x1A317, size: 0x8, addend: 0x0, symName: __ZNSt3__118__unwrap_iter_implIP8EmployeeLb1EE8__rewrapB8ue170006ES2_S2_, symObjAddr: 0x3B80, symBinAddr: 0x100006914, symSize: 0x58 }
  - { offsetInCU: 0x1A348, offset: 0x1A348, size: 0x8, addend: 0x0, symName: __ZNSt3__128__exception_guard_exceptionsINS_6vectorI8EmployeeNS_9allocatorIS2_EEE16__destroy_vectorEED2B8ue170006Ev, symObjAddr: 0x3BD8, symBinAddr: 0x10000696C, symSize: 0x50 }
  - { offsetInCU: 0x1A372, offset: 0x1A372, size: 0x8, addend: 0x0, symName: __ZNSt3__16vectorI8EmployeeNS_9allocatorIS1_EEE16__destroy_vectorclB8ue170006Ev, symObjAddr: 0x3C28, symBinAddr: 0x1000069BC, symSize: 0x90 }
  - { offsetInCU: 0x1A398, offset: 0x1A398, size: 0x8, addend: 0x0, symName: __ZNSt3__16vectorI8EmployeeNS_9allocatorIS1_EEE7__clearB8ue170006Ev, symObjAddr: 0x3CB8, symBinAddr: 0x100006A4C, symSize: 0x28 }
  - { offsetInCU: 0x1A3BE, offset: 0x1A3BE, size: 0x8, addend: 0x0, symName: __ZNSt3__16vectorI8EmployeeNS_9allocatorIS1_EEE22__base_destruct_at_endB8ue170006EPS1_, symObjAddr: 0x3CE0, symBinAddr: 0x100006A74, symSize: 0x8C }
  - { offsetInCU: 0x1A402, offset: 0x1A402, size: 0x8, addend: 0x0, symName: __ZNSt3__16vectorI4TeamNS_9allocatorIS1_EEE13__move_assignERS4_NS_17integral_constantIbLb1EEE, symObjAddr: 0x3D6C, symBinAddr: 0x100006B00, symSize: 0x94 }
  - { offsetInCU: 0x1A445, offset: 0x1A445, size: 0x8, addend: 0x0, symName: __ZNSt3__16vectorI4TeamNS_9allocatorIS1_EEE13__vdeallocateEv, symObjAddr: 0x3E00, symBinAddr: 0x100006B94, symSize: 0x94 }
  - { offsetInCU: 0x1A46D, offset: 0x1A46D, size: 0x8, addend: 0x0, symName: __ZNSt3__16vectorI4TeamNS_9allocatorIS1_EEE19__move_assign_allocB8ue170006ERS4_, symObjAddr: 0x3E94, symBinAddr: 0x100006C28, symSize: 0x2C }
  - { offsetInCU: 0x1A4A2, offset: 0x1A4A2, size: 0x8, addend: 0x0, symName: __ZNSt3__16vectorI4TeamNS_9allocatorIS1_EEE9__end_capB8ue170006Ev, symObjAddr: 0x3EC0, symBinAddr: 0x100006C54, symSize: 0x28 }
  - { offsetInCU: 0x1A4C8, offset: 0x1A4C8, size: 0x8, addend: 0x0, symName: __ZNSt3__16vectorI4TeamNS_9allocatorIS1_EEE5clearB8ue170006Ev, symObjAddr: 0x3EE8, symBinAddr: 0x100006C7C, symSize: 0x44 }
  - { offsetInCU: 0x1A4FD, offset: 0x1A4FD, size: 0x8, addend: 0x0, symName: __ZNKSt3__16vectorI4TeamNS_9allocatorIS1_EEE17__annotate_deleteB8ue170006Ev, symObjAddr: 0x3F2C, symBinAddr: 0x100006CC0, symSize: 0xD4 }
  - { offsetInCU: 0x1A523, offset: 0x1A523, size: 0x8, addend: 0x0, symName: __ZNSt3__116allocator_traitsINS_9allocatorI4TeamEEE10deallocateB8ue170006ERS3_PS2_m, symObjAddr: 0x4000, symBinAddr: 0x100006D94, symSize: 0x34 }
  - { offsetInCU: 0x1A565, offset: 0x1A565, size: 0x8, addend: 0x0, symName: __ZNSt3__16vectorI4TeamNS_9allocatorIS1_EEE7__allocB8ue170006Ev, symObjAddr: 0x4034, symBinAddr: 0x100006DC8, symSize: 0x28 }
  - { offsetInCU: 0x1A58B, offset: 0x1A58B, size: 0x8, addend: 0x0, symName: __ZNKSt3__16vectorI4TeamNS_9allocatorIS1_EEE8capacityB8ue170006Ev, symObjAddr: 0x405C, symBinAddr: 0x100006DF0, symSize: 0x40 }
  - { offsetInCU: 0x1A5B1, offset: 0x1A5B1, size: 0x8, addend: 0x0, symName: __ZNKSt3__16vectorI4TeamNS_9allocatorIS1_EEE4sizeB8ue170006Ev, symObjAddr: 0x409C, symBinAddr: 0x100006E30, symSize: 0x28 }
  - { offsetInCU: 0x1A5D7, offset: 0x1A5D7, size: 0x8, addend: 0x0, symName: __ZNSt3__16vectorI4TeamNS_9allocatorIS1_EEE7__clearB8ue170006Ev, symObjAddr: 0x40C4, symBinAddr: 0x100006E58, symSize: 0x28 }
  - { offsetInCU: 0x1A5FD, offset: 0x1A5FD, size: 0x8, addend: 0x0, symName: __ZNKSt3__16vectorI4TeamNS_9allocatorIS1_EEE17__annotate_shrinkB8ue170006Em, symObjAddr: 0x40EC, symBinAddr: 0x100006E80, symSize: 0xD0 }
  - { offsetInCU: 0x1A632, offset: 0x1A632, size: 0x8, addend: 0x0, symName: __ZNSt3__16vectorI4TeamNS_9allocatorIS1_EEE22__base_destruct_at_endB8ue170006EPS1_, symObjAddr: 0x41BC, symBinAddr: 0x100006F50, symSize: 0x8C }
  - { offsetInCU: 0x1A676, offset: 0x1A676, size: 0x8, addend: 0x0, symName: __ZNSt3__116allocator_traitsINS_9allocatorI4TeamEEE7destroyB8ue170006IS2_vvEEvRS3_PT_, symObjAddr: 0x4248, symBinAddr: 0x100006FDC, symSize: 0x28 }
  - { offsetInCU: 0x1A6B1, offset: 0x1A6B1, size: 0x8, addend: 0x0, symName: __ZN4TeamD1Ev, symObjAddr: 0x42CC, symBinAddr: 0x100007060, symSize: 0x2C }
  - { offsetInCU: 0x1A6DD, offset: 0x1A6DD, size: 0x8, addend: 0x0, symName: __ZN4TeamD2Ev, symObjAddr: 0x42F8, symBinAddr: 0x10000708C, symSize: 0x30 }
  - { offsetInCU: 0x1A709, offset: 0x1A709, size: 0x8, addend: 0x0, symName: __ZNKSt3__16vectorI4TeamNS_9allocatorIS1_EEE31__annotate_contiguous_containerB8ue170006EPKvS6_S6_S6_, symObjAddr: 0x4328, symBinAddr: 0x1000070BC, symSize: 0x20 }
  - { offsetInCU: 0x1A75F, offset: 0x1A75F, size: 0x8, addend: 0x0, symName: __ZNKSt3__16vectorI4TeamNS_9allocatorIS1_EEE4dataB8ue170006Ev, symObjAddr: 0x4348, symBinAddr: 0x1000070DC, symSize: 0x28 }
  - { offsetInCU: 0x1A785, offset: 0x1A785, size: 0x8, addend: 0x0, symName: __ZNSt3__19allocatorI4TeamE10deallocateB8ue170006EPS1_m, symObjAddr: 0x4370, symBinAddr: 0x100007104, symSize: 0x44 }
  - { offsetInCU: 0x1A7C7, offset: 0x1A7C7, size: 0x8, addend: 0x0, symName: __ZNSt3__117__compressed_pairIP4TeamNS_9allocatorIS1_EEE6secondB8ue170006Ev, symObjAddr: 0x43B4, symBinAddr: 0x100007148, symSize: 0x24 }
  - { offsetInCU: 0x1A7ED, offset: 0x1A7ED, size: 0x8, addend: 0x0, symName: __ZNSt3__122__compressed_pair_elemINS_9allocatorI4TeamEELi1ELb1EE5__getB8ue170006Ev, symObjAddr: 0x43D8, symBinAddr: 0x10000716C, symSize: 0x14 }
  - { offsetInCU: 0x1A813, offset: 0x1A813, size: 0x8, addend: 0x0, symName: __ZNKSt3__16vectorI4TeamNS_9allocatorIS1_EEE9__end_capB8ue170006Ev, symObjAddr: 0x43EC, symBinAddr: 0x100007180, symSize: 0x28 }
  - { offsetInCU: 0x1A839, offset: 0x1A839, size: 0x8, addend: 0x0, symName: __ZNKSt3__117__compressed_pairIP4TeamNS_9allocatorIS1_EEE5firstB8ue170006Ev, symObjAddr: 0x4414, symBinAddr: 0x1000071A8, symSize: 0x24 }
  - { offsetInCU: 0x1A85F, offset: 0x1A85F, size: 0x8, addend: 0x0, symName: __ZNKSt3__122__compressed_pair_elemIP4TeamLi0ELb0EE5__getB8ue170006Ev, symObjAddr: 0x4438, symBinAddr: 0x1000071CC, symSize: 0x14 }
  - { offsetInCU: 0x1A885, offset: 0x1A885, size: 0x8, addend: 0x0, symName: __ZNSt3__16vectorI4TeamNS_9allocatorIS1_EEE19__move_assign_allocB8ue170006ERS4_NS_17integral_constantIbLb1EEE, symObjAddr: 0x444C, symBinAddr: 0x1000071E0, symSize: 0x38 }
  - { offsetInCU: 0x1A8C6, offset: 0x1A8C6, size: 0x8, addend: 0x0, symName: __ZNSt3__117__compressed_pairIP4TeamNS_9allocatorIS1_EEE5firstB8ue170006Ev, symObjAddr: 0x4484, symBinAddr: 0x100007218, symSize: 0x24 }
  - { offsetInCU: 0x1A8EC, offset: 0x1A8EC, size: 0x8, addend: 0x0, symName: __ZNSt3__122__compressed_pair_elemIP4TeamLi0ELb0EE5__getB8ue170006Ev, symObjAddr: 0x44A8, symBinAddr: 0x10000723C, symSize: 0x14 }
  - { offsetInCU: 0x1A912, offset: 0x1A912, size: 0x8, addend: 0x0, symName: __ZNSt3__16vectorI4TeamNS_9allocatorIS1_EEED2B8ue170006Ev, symObjAddr: 0x44BC, symBinAddr: 0x100007250, symSize: 0x44 }
  - { offsetInCU: 0x1A93C, offset: 0x1A93C, size: 0x8, addend: 0x0, symName: __ZNSt3__16vectorI4TeamNS_9allocatorIS1_EEE16__destroy_vectorC1B8ue170006ERS4_, symObjAddr: 0x4500, symBinAddr: 0x100007294, symSize: 0x34 }
  - { offsetInCU: 0x1A975, offset: 0x1A975, size: 0x8, addend: 0x0, symName: __ZNSt3__16vectorI4TeamNS_9allocatorIS1_EEE16__destroy_vectorclB8ue170006Ev, symObjAddr: 0x4534, symBinAddr: 0x1000072C8, symSize: 0x90 }
  - { offsetInCU: 0x1A99B, offset: 0x1A99B, size: 0x8, addend: 0x0, symName: __ZNSt3__16vectorI4TeamNS_9allocatorIS1_EEE16__destroy_vectorC2B8ue170006ERS4_, symObjAddr: 0x45C4, symBinAddr: 0x100007358, symSize: 0x20 }
  - { offsetInCU: 0x1A9D4, offset: 0x1A9D4, size: 0x8, addend: 0x0, symName: __ZNSt3__16vectorI8EmployeeNS_9allocatorIS1_EEED2B8ue170006Ev, symObjAddr: 0x45E4, symBinAddr: 0x100007378, symSize: 0x40 }
  - { offsetInCU: 0x1A9FE, offset: 0x1A9FE, size: 0x8, addend: 0x0, symName: __ZNSt3__16vectorI4TeamNS_9allocatorIS1_EEE11__make_iterB8ue170006EPS1_, symObjAddr: 0x4624, symBinAddr: 0x1000073B8, symSize: 0x30 }
  - { offsetInCU: 0x1AA33, offset: 0x1AA33, size: 0x8, addend: 0x0, symName: __ZNSt3__111__wrap_iterIP4TeamEC1B8ue170006ES2_, symObjAddr: 0x4654, symBinAddr: 0x1000073E8, symSize: 0x34 }
  - { offsetInCU: 0x1AA6B, offset: 0x1AA6B, size: 0x8, addend: 0x0, symName: __ZNSt3__111__wrap_iterIP4TeamEC2B8ue170006ES2_, symObjAddr: 0x4688, symBinAddr: 0x10000741C, symSize: 0x20 }
  - { offsetInCU: 0x1AAA3, offset: 0x1AAA3, size: 0x8, addend: 0x0, symName: __ZNKSt3__111__wrap_iterIP4TeamE4baseB8ue170006Ev, symObjAddr: 0x46F0, symBinAddr: 0x100007484, symSize: 0x18 }
  - { offsetInCU: 0x1AAC9, offset: 0x1AAC9, size: 0x8, addend: 0x0, symName: __ZNSt3__114basic_ofstreamIcNS_11char_traitsIcEEED2Ev, symObjAddr: 0x4708, symBinAddr: 0x10000749C, symSize: 0x64 }
  - { offsetInCU: 0x1AB03, offset: 0x1AB03, size: 0x8, addend: 0x0, symName: __ZTv0_n24_NSt3__114basic_ofstreamIcNS_11char_traitsIcEEED1Ev, symObjAddr: 0x476C, symBinAddr: 0x100007500, symSize: 0x28 }
  - { offsetInCU: 0x1AB1A, offset: 0x1AB1A, size: 0x8, addend: 0x0, symName: __ZNSt3__114basic_ifstreamIcNS_11char_traitsIcEEED2Ev, symObjAddr: 0x4794, symBinAddr: 0x100007528, symSize: 0x64 }
  - { offsetInCU: 0x1AB54, offset: 0x1AB54, size: 0x8, addend: 0x0, symName: __ZTv0_n24_NSt3__114basic_ifstreamIcNS_11char_traitsIcEEED1Ev, symObjAddr: 0x47F8, symBinAddr: 0x10000758C, symSize: 0x28 }
  - { offsetInCU: 0x1AB6B, offset: 0x1AB6B, size: 0x8, addend: 0x0, symName: __ZNSt3__111char_traitsIcE6lengthB8ue170006EPKc, symObjAddr: 0x4A0C, symBinAddr: 0x1000077A0, symSize: 0x34 }
  - { offsetInCU: 0x1ABAF, offset: 0x1ABAF, size: 0x8, addend: 0x0, symName: __ZNKSt3__113basic_ostreamIcNS_11char_traitsIcEEE6sentrycvbB8ue170006Ev, symObjAddr: 0x4A40, symBinAddr: 0x1000077D4, symSize: 0x1C }
  - { offsetInCU: 0x1ABD5, offset: 0x1ABD5, size: 0x8, addend: 0x0, symName: __ZNSt3__119ostreambuf_iteratorIcNS_11char_traitsIcEEEC1B8ue170006ERNS_13basic_ostreamIcS2_EE, symObjAddr: 0x4C9C, symBinAddr: 0x100007A30, symSize: 0x34 }
  - { offsetInCU: 0x1AC0D, offset: 0x1AC0D, size: 0x8, addend: 0x0, symName: __ZNKSt3__18ios_base5flagsB8ue170006Ev, symObjAddr: 0x4CD0, symBinAddr: 0x100007A64, symSize: 0x18 }
  - { offsetInCU: 0x1AC35, offset: 0x1AC35, size: 0x8, addend: 0x0, symName: __ZNKSt3__19basic_iosIcNS_11char_traitsIcEEE4fillB8ue170006Ev, symObjAddr: 0x4CE8, symBinAddr: 0x100007A7C, symSize: 0x64 }
  - { offsetInCU: 0x1AC5D, offset: 0x1AC5D, size: 0x8, addend: 0x0, symName: __ZNKSt3__119ostreambuf_iteratorIcNS_11char_traitsIcEEE6failedB8ue170006Ev, symObjAddr: 0x4D4C, symBinAddr: 0x100007AE0, symSize: 0x24 }
  - { offsetInCU: 0x1AC83, offset: 0x1AC83, size: 0x8, addend: 0x0, symName: __ZNSt3__19basic_iosIcNS_11char_traitsIcEEE8setstateB8ue170006Ej, symObjAddr: 0x4D70, symBinAddr: 0x100007B04, symSize: 0x2C }
  - { offsetInCU: 0x1ACB8, offset: 0x1ACB8, size: 0x8, addend: 0x0, symName: __ZNKSt3__18ios_base5widthB8ue170006Ev, symObjAddr: 0x4D9C, symBinAddr: 0x100007B30, symSize: 0x18 }
  - { offsetInCU: 0x1ACE0, offset: 0x1ACE0, size: 0x8, addend: 0x0, symName: __ZNSt3__115basic_streambufIcNS_11char_traitsIcEEE5sputnB8ue170006EPKcl, symObjAddr: 0x4DB4, symBinAddr: 0x100007B48, symSize: 0x3C }
  - { offsetInCU: 0x1AD22, offset: 0x1AD22, size: 0x8, addend: 0x0, symName: __ZNSt3__112basic_stringIcNS_11char_traitsIcEENS_9allocatorIcEEEC1B8ue170006Emc, symObjAddr: 0x4DF0, symBinAddr: 0x100007B84, symSize: 0x3C }
  - { offsetInCU: 0x1AD6A, offset: 0x1AD6A, size: 0x8, addend: 0x0, symName: __ZNSt3__112basic_stringIcNS_11char_traitsIcEENS_9allocatorIcEEE4dataB8ue170006Ev, symObjAddr: 0x4E2C, symBinAddr: 0x100007BC0, symSize: 0x28 }
  - { offsetInCU: 0x1AD90, offset: 0x1AD90, size: 0x8, addend: 0x0, symName: __ZNSt3__18ios_base5widthB8ue170006El, symObjAddr: 0x4E54, symBinAddr: 0x100007BE8, symSize: 0x2C }
  - { offsetInCU: 0x1ADD6, offset: 0x1ADD6, size: 0x8, addend: 0x0, symName: __ZNSt3__112basic_stringIcNS_11char_traitsIcEENS_9allocatorIcEEEC2B8ue170006Emc, symObjAddr: 0x4E80, symBinAddr: 0x100007C14, symSize: 0x4C }
  - { offsetInCU: 0x1AE1E, offset: 0x1AE1E, size: 0x8, addend: 0x0, symName: __ZNSt3__112basic_stringIcNS_11char_traitsIcEENS_9allocatorIcEEE13__get_pointerB8ue170006Ev, symObjAddr: 0x4EE0, symBinAddr: 0x100007C74, symSize: 0x54 }
  - { offsetInCU: 0x1AE44, offset: 0x1AE44, size: 0x8, addend: 0x0, symName: __ZNKSt3__112basic_stringIcNS_11char_traitsIcEENS_9allocatorIcEEE9__is_longB8ue170006Ev, symObjAddr: 0x4F34, symBinAddr: 0x100007CC8, symSize: 0x38 }
  - { offsetInCU: 0x1AE6A, offset: 0x1AE6A, size: 0x8, addend: 0x0, symName: __ZNSt3__112basic_stringIcNS_11char_traitsIcEENS_9allocatorIcEEE18__get_long_pointerB8ue170006Ev, symObjAddr: 0x4F6C, symBinAddr: 0x100007D00, symSize: 0x28 }
  - { offsetInCU: 0x1AE90, offset: 0x1AE90, size: 0x8, addend: 0x0, symName: __ZNSt3__112basic_stringIcNS_11char_traitsIcEENS_9allocatorIcEEE19__get_short_pointerB8ue170006Ev, symObjAddr: 0x4F94, symBinAddr: 0x100007D28, symSize: 0x28 }
  - { offsetInCU: 0x1AEB6, offset: 0x1AEB6, size: 0x8, addend: 0x0, symName: __ZNKSt3__117__compressed_pairINS_12basic_stringIcNS_11char_traitsIcEENS_9allocatorIcEEE5__repES5_E5firstB8ue170006Ev, symObjAddr: 0x4FBC, symBinAddr: 0x100007D50, symSize: 0x24 }
  - { offsetInCU: 0x1AEDC, offset: 0x1AEDC, size: 0x8, addend: 0x0, symName: __ZNKSt3__122__compressed_pair_elemINS_12basic_stringIcNS_11char_traitsIcEENS_9allocatorIcEEE5__repELi0ELb0EE5__getB8ue170006Ev, symObjAddr: 0x4FE0, symBinAddr: 0x100007D74, symSize: 0x14 }
  - { offsetInCU: 0x1AF02, offset: 0x1AF02, size: 0x8, addend: 0x0, symName: __ZNSt3__114pointer_traitsIPcE10pointer_toB8ue170006ERc, symObjAddr: 0x4FF4, symBinAddr: 0x100007D88, symSize: 0x14 }
  - { offsetInCU: 0x1AF25, offset: 0x1AF25, size: 0x8, addend: 0x0, symName: __ZNSt3__119ostreambuf_iteratorIcNS_11char_traitsIcEEEC2B8ue170006ERNS_13basic_ostreamIcS2_EE, symObjAddr: 0x5008, symBinAddr: 0x100007D9C, symSize: 0x54 }
  - { offsetInCU: 0x1AF5D, offset: 0x1AF5D, size: 0x8, addend: 0x0, symName: __ZNKSt3__19basic_iosIcNS_11char_traitsIcEEE5rdbufB8ue170006Ev, symObjAddr: 0x505C, symBinAddr: 0x100007DF0, symSize: 0x24 }
  - { offsetInCU: 0x1AF85, offset: 0x1AF85, size: 0x8, addend: 0x0, symName: __ZNKSt3__18ios_base5rdbufB8ue170006Ev, symObjAddr: 0x5080, symBinAddr: 0x100007E14, symSize: 0x18 }
  - { offsetInCU: 0x1AFAB, offset: 0x1AFAB, size: 0x8, addend: 0x0, symName: __ZNSt3__111char_traitsIcE11eq_int_typeB8ue170006Eii, symObjAddr: 0x5098, symBinAddr: 0x100007E2C, symSize: 0x28 }
  - { offsetInCU: 0x1AFDE, offset: 0x1AFDE, size: 0x8, addend: 0x0, symName: __ZNSt3__111char_traitsIcE3eofB8ue170006Ev, symObjAddr: 0x50C0, symBinAddr: 0x100007E54, symSize: 0x8 }
  - { offsetInCU: 0x1AFF2, offset: 0x1AFF2, size: 0x8, addend: 0x0, symName: __ZNKSt3__19basic_iosIcNS_11char_traitsIcEEE5widenB8ue170006Ec, symObjAddr: 0x50C8, symBinAddr: 0x100007E5C, symSize: 0x84 }
  - { offsetInCU: 0x1B056, offset: 0x1B056, size: 0x8, addend: 0x0, symName: __ZNKSt3__15ctypeIcE5widenB8ue170006Ec, symObjAddr: 0x5178, symBinAddr: 0x100007F0C, symSize: 0x38 }
  - { offsetInCU: 0x1B08B, offset: 0x1B08B, size: 0x8, addend: 0x0, symName: __ZNSt3__18ios_base8setstateB8ue170006Ej, symObjAddr: 0x51B0, symBinAddr: 0x100007F44, symSize: 0x34 }
  - { offsetInCU: 0x1B0C2, offset: 0x1B0C2, size: 0x8, addend: 0x0, symName: __ZNSt3__19basic_iosIcNS_11char_traitsIcEEEC2B8ue170006Ev, symObjAddr: 0x5208, symBinAddr: 0x100007F9C, symSize: 0x44 }
  - { offsetInCU: 0x1B0EC, offset: 0x1B0EC, size: 0x8, addend: 0x0, symName: __ZNSt3__113basic_istreamIcNS_11char_traitsIcEEEC2B8ue170006EPNS_15basic_streambufIcS2_EE, symObjAddr: 0x524C, symBinAddr: 0x100007FE0, symSize: 0x64 }
  - { offsetInCU: 0x1B131, offset: 0x1B131, size: 0x8, addend: 0x0, symName: __ZNSt3__18ios_baseC2B8ue170006Ev, symObjAddr: 0x52B0, symBinAddr: 0x100008044, symSize: 0x24 }
  - { offsetInCU: 0x1B15B, offset: 0x1B15B, size: 0x8, addend: 0x0, symName: __ZNSt3__19basic_iosIcNS_11char_traitsIcEEE4initB8ue170006EPNS_15basic_streambufIcS2_EE, symObjAddr: 0x52D4, symBinAddr: 0x100008068, symSize: 0x44 }
  - { offsetInCU: 0x1B1B3, offset: 0x1B1B3, size: 0x8, addend: 0x0, symName: __ZNKSt3__113basic_istreamIcNS_11char_traitsIcEEE6sentrycvbB8ue170006Ev, symObjAddr: 0x5318, symBinAddr: 0x1000080AC, symSize: 0x1C }
  - { offsetInCU: 0x1B1D9, offset: 0x1B1D9, size: 0x8, addend: 0x0, symName: __ZNSt3__112basic_stringIcNS_11char_traitsIcEENS_9allocatorIcEEE5clearB8ue170006Ev, symObjAddr: 0x5334, symBinAddr: 0x1000080C8, symSize: 0x78 }
  - { offsetInCU: 0x1B201, offset: 0x1B201, size: 0x8, addend: 0x0, symName: __ZNKSt3__112basic_stringIcNS_11char_traitsIcEENS_9allocatorIcEEE8max_sizeB8ue170006Ev, symObjAddr: 0x53AC, symBinAddr: 0x100008140, symSize: 0xAC }
  - { offsetInCU: 0x1B253, offset: 0x1B253, size: 0x8, addend: 0x0, symName: __ZNSt3__115basic_streambufIcNS_11char_traitsIcEEE5sgetcB8ue170006Ev, symObjAddr: 0x5458, symBinAddr: 0x1000081EC, symSize: 0x70 }
  - { offsetInCU: 0x1B279, offset: 0x1B279, size: 0x8, addend: 0x0, symName: __ZNSt3__111char_traitsIcE12to_char_typeB8ue170006Ei, symObjAddr: 0x54C8, symBinAddr: 0x10000825C, symSize: 0x18 }
  - { offsetInCU: 0x1B29C, offset: 0x1B29C, size: 0x8, addend: 0x0, symName: __ZNKSt3__15ctypeIcE2isB8ue170006Ejc, symObjAddr: 0x54E0, symBinAddr: 0x100008274, symSize: 0x7C }
  - { offsetInCU: 0x1B2E0, offset: 0x1B2E0, size: 0x8, addend: 0x0, symName: __ZNSt3__115basic_streambufIcNS_11char_traitsIcEEE6sbumpcB8ue170006Ev, symObjAddr: 0x555C, symBinAddr: 0x1000082F0, symSize: 0x78 }
  - { offsetInCU: 0x1B306, offset: 0x1B306, size: 0x8, addend: 0x0, symName: __ZNSt3__18ios_base18__setstate_nothrowB8ue170006Ej, symObjAddr: 0x55D4, symBinAddr: 0x100008368, symSize: 0x64 }
  - { offsetInCU: 0x1B33B, offset: 0x1B33B, size: 0x8, addend: 0x0, symName: __ZNKSt3__19basic_iosIcNS_11char_traitsIcEEE10exceptionsB8ue170006Ev, symObjAddr: 0x5638, symBinAddr: 0x1000083CC, symSize: 0x24 }
  - { offsetInCU: 0x1B361, offset: 0x1B361, size: 0x8, addend: 0x0, symName: __ZNSt3__111char_traitsIcE6assignB8ue170006ERcRKc, symObjAddr: 0x565C, symBinAddr: 0x1000083F0, symSize: 0x24 }
  - { offsetInCU: 0x1B392, offset: 0x1B392, size: 0x8, addend: 0x0, symName: __ZNSt3__112basic_stringIcNS_11char_traitsIcEENS_9allocatorIcEEE15__set_long_sizeB8ue170006Em, symObjAddr: 0x5680, symBinAddr: 0x100008414, symSize: 0x38 }
  - { offsetInCU: 0x1B3C7, offset: 0x1B3C7, size: 0x8, addend: 0x0, symName: __ZNSt3__112basic_stringIcNS_11char_traitsIcEENS_9allocatorIcEEE16__set_short_sizeB8ue170006Em, symObjAddr: 0x56B8, symBinAddr: 0x10000844C, symSize: 0x78 }
  - { offsetInCU: 0x1B407, offset: 0x1B407, size: 0x8, addend: 0x0, symName: __ZNSt3__116allocator_traitsINS_9allocatorIcEEE8max_sizeB8ue170006IS2_vvEEmRKS2_, symObjAddr: 0x5730, symBinAddr: 0x1000084C4, symSize: 0x28 }
  - { offsetInCU: 0x1B433, offset: 0x1B433, size: 0x8, addend: 0x0, symName: __ZNKSt3__112basic_stringIcNS_11char_traitsIcEENS_9allocatorIcEEE7__allocB8ue170006Ev, symObjAddr: 0x5758, symBinAddr: 0x1000084EC, symSize: 0x24 }
  - { offsetInCU: 0x1B459, offset: 0x1B459, size: 0x8, addend: 0x0, symName: __ZNKSt3__117__compressed_pairINS_12basic_stringIcNS_11char_traitsIcEENS_9allocatorIcEEE5__repES5_E6secondB8ue170006Ev, symObjAddr: 0x577C, symBinAddr: 0x100008510, symSize: 0x24 }
  - { offsetInCU: 0x1B47F, offset: 0x1B47F, size: 0x8, addend: 0x0, symName: __ZNKSt3__122__compressed_pair_elemINS_9allocatorIcEELi1ELb1EE5__getB8ue170006Ev, symObjAddr: 0x57A0, symBinAddr: 0x100008534, symSize: 0x14 }
  - { offsetInCU: 0x1B4A5, offset: 0x1B4A5, size: 0x8, addend: 0x0, symName: __ZNSt3__111char_traitsIcE11to_int_typeB8ue170006Ec, symObjAddr: 0x57B4, symBinAddr: 0x100008548, symSize: 0x14 }
  - { offsetInCU: 0x1B4C8, offset: 0x1B4C8, size: 0x8, addend: 0x0, symName: __Z7isasciii, symObjAddr: 0x57C8, symBinAddr: 0x10000855C, symSize: 0x24 }
  - { offsetInCU: 0x1B4F5, offset: 0x1B4F5, size: 0x8, addend: 0x0, symName: __ZNKSt3__18ios_base10exceptionsB8ue170006Ev, symObjAddr: 0x57EC, symBinAddr: 0x100008580, symSize: 0x18 }
  - { offsetInCU: 0x1B51D, offset: 0x1B51D, size: 0x8, addend: 0x0, symName: __ZNKSt3__19basic_iosIcNS_11char_traitsIcEEE4failB8ue170006Ev, symObjAddr: 0x5804, symBinAddr: 0x100008598, symSize: 0x28 }
  - { offsetInCU: 0x1B543, offset: 0x1B543, size: 0x8, addend: 0x0, symName: __ZNKSt3__18ios_base4failB8ue170006Ev, symObjAddr: 0x582C, symBinAddr: 0x1000085C0, symSize: 0x28 }
  - { offsetInCU: 0x1B56B, offset: 0x1B56B, size: 0x8, addend: 0x0, symName: __ZNSt3__113basic_ostreamIcNS_11char_traitsIcEEEC2B8ue170006EPNS_15basic_streambufIcS2_EE, symObjAddr: 0x5854, symBinAddr: 0x1000085E8, symSize: 0x60 }
  - { offsetInCU: 0x52CD, offset: 0x209AC, size: 0x8, addend: 0x0, symName: __ZNSt3__17advanceB8ue170006IP4TeamllvEEvRT_T0_, symObjAddr: 0x4F7C, symBinAddr: 0x10000A53C, symSize: 0x38 }
  - { offsetInCU: 0x554D, offset: 0x20C2C, size: 0x8, addend: 0x0, symName: __ZNSt3__17advanceB8ue170006INS_16reverse_iteratorIP4TeamEEllvEEvRT_T0_, symObjAddr: 0x53AC, symBinAddr: 0x10000A8FC, symSize: 0x38 }
  - { offsetInCU: 0x6A89, offset: 0x22168, size: 0x8, addend: 0x0, symName: __ZNSt3__1lsB8ue170006INS_11char_traitsIcEEEERNS_13basic_ostreamIcT_EES6_c, symObjAddr: 0x680, symBinAddr: 0x100008C74, symSize: 0x34 }
  - { offsetInCU: 0x6ACF, offset: 0x221AE, size: 0x8, addend: 0x0, symName: __ZNSt3__1lsB8ue170006IcNS_11char_traitsIcEENS_9allocatorIcEEEERNS_13basic_ostreamIT_T0_EES9_RKNS_12basic_stringIS6_S7_T1_EE, symObjAddr: 0x6FC, symBinAddr: 0x100008CA8, symSize: 0x4C }
  - { offsetInCU: 0x6B27, offset: 0x22206, size: 0x8, addend: 0x0, symName: __ZNSt3__120__throw_out_of_rangeB8ue170006EPKc, symObjAddr: 0xE60, symBinAddr: 0x100009204, symSize: 0x64 }
  - { offsetInCU: 0x6B76, offset: 0x22255, size: 0x8, addend: 0x0, symName: __ZNSt3__112construct_atB8ue170006I8EmployeeJRKS1_EPS1_EEPT_S6_DpOT0_, symObjAddr: 0x122C, symBinAddr: 0x100009480, symSize: 0x3C }
  - { offsetInCU: 0x6C0B, offset: 0x222EA, size: 0x8, addend: 0x0, symName: __ZNSt3__112construct_atB8ue170006I4TeamJRKS1_EPS1_EEPT_S6_DpOT0_, symObjAddr: 0x32E4, symBinAddr: 0x100009724, symSize: 0x3C }
  - { offsetInCU: 0x6C7B, offset: 0x2235A, size: 0x8, addend: 0x0, symName: __ZNSt3__119__allocate_at_leastB8ue170006INS_9allocatorI4TeamEEEENS_19__allocation_resultINS_16allocator_traitsIT_E7pointerEEERS6_m, symObjAddr: 0x457C, symBinAddr: 0x100009C58, symSize: 0x40 }
  - { offsetInCU: 0x6CBE, offset: 0x2239D, size: 0x8, addend: 0x0, symName: __ZNSt3__142__uninitialized_allocator_move_if_noexceptB8ue170006INS_9allocatorI4TeamEENS_16reverse_iteratorIPS2_EES6_S6_EET2_RT_T0_T1_S7_, symObjAddr: 0x4808, symBinAddr: 0x100009E10, symSize: 0x12C }
  - { offsetInCU: 0x6D5E, offset: 0x2243D, size: 0x8, addend: 0x0, symName: __ZNSt3__14swapB8ue170006IP4TeamEENS_9enable_ifIXaasr21is_move_constructibleIT_EE5valuesr18is_move_assignableIS4_EE5valueEvE4typeERS4_S7_, symObjAddr: 0x4980, symBinAddr: 0x100009F88, symSize: 0x3C }
  - { offsetInCU: 0x6DAF, offset: 0x2248E, size: 0x8, addend: 0x0, symName: __ZNSt3__122__make_exception_guardB8ue170006INS_29_AllocatorDestroyRangeReverseINS_9allocatorI4TeamEENS_16reverse_iteratorIPS3_EEEEEENS_28__exception_guard_exceptionsIT_EESA_, symObjAddr: 0x4ACC, symBinAddr: 0x10000A08C, symSize: 0x4C }
  - { offsetInCU: 0x6DE5, offset: 0x224C4, size: 0x8, addend: 0x0, symName: __ZNSt3__1neB8ue170006IP4TeamS2_EEbRKNS_16reverse_iteratorIT_EERKNS3_IT0_EE, symObjAddr: 0x4B5C, symBinAddr: 0x10000A11C, symSize: 0x48 }
  - { offsetInCU: 0x6E31, offset: 0x22510, size: 0x8, addend: 0x0, symName: __ZNSt3__112__to_addressB8ue170006INS_16reverse_iteratorIP4TeamEEvEEu7__decayIDTclsr19__to_address_helperIT_EE6__callclsr3stdE7declvalIRKS5_EEEEES7_, symObjAddr: 0x4BD4, symBinAddr: 0x10000A194, symSize: 0x24 }
  - { offsetInCU: 0x6E67, offset: 0x22546, size: 0x8, addend: 0x0, symName: __ZNSt3__112construct_atB8ue170006I4TeamJS1_EPS1_EEPT_S4_DpOT0_, symObjAddr: 0x4D24, symBinAddr: 0x10000A2E4, symSize: 0x3C }
  - { offsetInCU: 0x6F00, offset: 0x225DF, size: 0x8, addend: 0x0, symName: __ZNSt3__14prevB8ue170006IP4TeamEENS_9enable_ifIXsr29__has_input_iterator_categoryIT_EE5valueES4_E4typeES4_NS_15iterator_traitsIS4_E15difference_typeE, symObjAddr: 0x4F40, symBinAddr: 0x10000A500, symSize: 0x3C }
  - { offsetInCU: 0x6F43, offset: 0x22622, size: 0x8, addend: 0x0, symName: __ZNSt3__19__advanceB8ue170006IP4TeamEEvRT_NS_15iterator_traitsIS3_E15difference_typeENS_26random_access_iterator_tagE, symObjAddr: 0x4FB4, symBinAddr: 0x10000A574, symSize: 0x30 }
  - { offsetInCU: 0x6F8C, offset: 0x2266B, size: 0x8, addend: 0x0, symName: __ZNSt3__119__allocator_destroyB8ue170006INS_9allocatorI4TeamEENS_16reverse_iteratorINS4_IPS2_EEEES7_EEvRT_T0_T1_, symObjAddr: 0x50E8, symBinAddr: 0x10000A6A8, symSize: 0x70 }
  - { offsetInCU: 0x6FF1, offset: 0x226D0, size: 0x8, addend: 0x0, symName: __ZNSt3__1neB8ue170006INS_16reverse_iteratorIP4TeamEES4_EEbRKNS1_IT_EERKNS1_IT0_EE, symObjAddr: 0x5194, symBinAddr: 0x10000A754, symSize: 0x60 }
  - { offsetInCU: 0x703D, offset: 0x2271C, size: 0x8, addend: 0x0, symName: __ZNSt3__112__to_addressB8ue170006INS_16reverse_iteratorINS1_IP4TeamEEEEvEEu7__decayIDTclsr19__to_address_helperIT_EE6__callclsr3stdE7declvalIRKS6_EEEEES8_, symObjAddr: 0x521C, symBinAddr: 0x10000A7B4, symSize: 0x24 }
  - { offsetInCU: 0x709C, offset: 0x2277B, size: 0x8, addend: 0x0, symName: __ZNSt3__14prevB8ue170006INS_16reverse_iteratorIP4TeamEEEENS_9enable_ifIXsr29__has_input_iterator_categoryIT_EE5valueES6_E4typeES6_NS_15iterator_traitsIS6_E15difference_typeE, symObjAddr: 0x5360, symBinAddr: 0x10000A8B0, symSize: 0x4C }
  - { offsetInCU: 0x70DF, offset: 0x227BE, size: 0x8, addend: 0x0, symName: __ZNSt3__19__advanceB8ue170006INS_16reverse_iteratorIP4TeamEEEEvRT_NS_15iterator_traitsIS5_E15difference_typeENS_26random_access_iterator_tagE, symObjAddr: 0x53E4, symBinAddr: 0x10000A934, symSize: 0x2C }
  - { offsetInCU: 0x7128, offset: 0x22807, size: 0x8, addend: 0x0, symName: __ZNSt3__112__to_addressB8ue170006IKcEEPT_S3_, symObjAddr: 0x64EC, symBinAddr: 0x10000AC6C, symSize: 0x14 }
  - { offsetInCU: 0x78D8, offset: 0x22FB7, size: 0x8, addend: 0x0, symName: __ZNSt3__16vectorI4TeamNS_9allocatorIS1_EEE26__swap_out_circular_bufferERNS_14__split_bufferIS1_RS3_EE, symObjAddr: 0x4180, symBinAddr: 0x1000098FC, symSize: 0x110 }
  - { offsetInCU: 0x98BE, offset: 0x24F9D, size: 0x8, addend: 0x0, symName: __ZN4TeamC2Ev, symObjAddr: 0x0, symBinAddr: 0x100008648, symSize: 0x44 }
  - { offsetInCU: 0x98EA, offset: 0x24FC9, size: 0x8, addend: 0x0, symName: __ZN4TeamC1Ev, symObjAddr: 0x70, symBinAddr: 0x10000868C, symSize: 0x2C }
  - { offsetInCU: 0x9916, offset: 0x24FF5, size: 0x8, addend: 0x0, symName: __ZN4Team6UpdateEv, symObjAddr: 0x9C, symBinAddr: 0x1000086B8, symSize: 0x274 }
  - { offsetInCU: 0x99F4, offset: 0x250D3, size: 0x8, addend: 0x0, symName: __ZNSt3__16vectorI8EmployeeNS_9allocatorIS1_EEE2atEm, symObjAddr: 0x338, symBinAddr: 0x10000892C, symSize: 0x68 }
  - { offsetInCU: 0x9A2B, offset: 0x2510A, size: 0x8, addend: 0x0, symName: __ZN4Team11AddEmployeeERK8Employee, symObjAddr: 0x3A0, symBinAddr: 0x100008994, symSize: 0x3C }
  - { offsetInCU: 0x9A61, offset: 0x25140, size: 0x8, addend: 0x0, symName: __ZNSt3__16vectorI8EmployeeNS_9allocatorIS1_EEE9push_backB8ue170006ERKS1_, symObjAddr: 0x3DC, symBinAddr: 0x1000089D0, symSize: 0x6C }
  - { offsetInCU: 0x9A98, offset: 0x25177, size: 0x8, addend: 0x0, symName: __ZNK4Team19GetAvgTecExperianceEv, symObjAddr: 0x448, symBinAddr: 0x100008A3C, symSize: 0x18 }
  - { offsetInCU: 0x9AC0, offset: 0x2519F, size: 0x8, addend: 0x0, symName: __ZNK4Team25GetAvgCommunicationSkillsEv, symObjAddr: 0x460, symBinAddr: 0x100008A54, symSize: 0x18 }
  - { offsetInCU: 0x9AE8, offset: 0x251C7, size: 0x8, addend: 0x0, symName: __ZNK4Team14GetSeniorStaffEv, symObjAddr: 0x478, symBinAddr: 0x100008A6C, symSize: 0x18 }
  - { offsetInCU: 0x9B10, offset: 0x251EF, size: 0x8, addend: 0x0, symName: __ZNK4Team15GetInternAmountEv, symObjAddr: 0x490, symBinAddr: 0x100008A84, symSize: 0x18 }
  - { offsetInCU: 0x9B38, offset: 0x25217, size: 0x8, addend: 0x0, symName: __ZN4Team17GetRandomEmployeeEv, symObjAddr: 0x4A8, symBinAddr: 0x100008A9C, symSize: 0x64 }
  - { offsetInCU: 0x9B6D, offset: 0x2524C, size: 0x8, addend: 0x0, symName: __ZlsRNSt3__113basic_ostreamIcNS_11char_traitsIcEEEERK4Team, symObjAddr: 0x50C, symBinAddr: 0x100008B00, symSize: 0x174 }
  - { offsetInCU: 0x9BBC, offset: 0x2529B, size: 0x8, addend: 0x0, symName: __ZNKSt3__16vectorI8EmployeeNS_9allocatorIS1_EEE2atEm, symObjAddr: 0x748, symBinAddr: 0x100008CF4, symSize: 0x68 }
  - { offsetInCU: 0x9BF2, offset: 0x252D1, size: 0x8, addend: 0x0, symName: __Z12FollowsRulesR4Team, symObjAddr: 0x7B0, symBinAddr: 0x100008D5C, symSize: 0xA0 }
  - { offsetInCU: 0x9C1E, offset: 0x252FD, size: 0x8, addend: 0x0, symName: __Z19AllTeamsFollowRulesRNSt3__16vectorI4TeamNS_9allocatorIS1_EEEE, symObjAddr: 0x850, symBinAddr: 0x100008DFC, symSize: 0xA8 }
  - { offsetInCU: 0x9C67, offset: 0x25346, size: 0x8, addend: 0x0, symName: __ZNSt3__16vectorI4TeamNS_9allocatorIS1_EEE2atEm, symObjAddr: 0x920, symBinAddr: 0x100008EA4, symSize: 0x68 }
  - { offsetInCU: 0x9C9D, offset: 0x2537C, size: 0x8, addend: 0x0, symName: __Z8SwitcherRNSt3__16vectorI4TeamNS_9allocatorIS1_EEEE, symObjAddr: 0x988, symBinAddr: 0x100008F0C, symSize: 0x110 }
  - { offsetInCU: 0x9CE1, offset: 0x253C0, size: 0x8, addend: 0x0, symName: __Z15PeopleSeperaterNSt3__16vectorI8EmployeeNS_9allocatorIS1_EEEE, symObjAddr: 0xA98, symBinAddr: 0x10000901C, symSize: 0x160 }
  - { offsetInCU: 0x9D63, offset: 0x25442, size: 0x8, addend: 0x0, symName: __ZNSt3__16vectorI4TeamNS_9allocatorIS1_EEE9push_backB8ue170006ERKS1_, symObjAddr: 0xC24, symBinAddr: 0x10000917C, symSize: 0x6C }
  - { offsetInCU: 0x9DA0, offset: 0x2547F, size: 0x8, addend: 0x0, symName: __ZNKSt3__16vectorI8EmployeeNS_9allocatorIS1_EEE20__throw_out_of_rangeB8ue170006Ev, symObjAddr: 0xE44, symBinAddr: 0x1000091E8, symSize: 0x1C }
  - { offsetInCU: 0x9DC6, offset: 0x254A5, size: 0x8, addend: 0x0, symName: __ZNSt12out_of_rangeC1B8ue170006EPKc, symObjAddr: 0xEC4, symBinAddr: 0x100009268, symSize: 0x34 }
  - { offsetInCU: 0x9DFE, offset: 0x254DD, size: 0x8, addend: 0x0, symName: __ZNSt12out_of_rangeC2B8ue170006EPKc, symObjAddr: 0xEF8, symBinAddr: 0x10000929C, symSize: 0x4C }
  - { offsetInCU: 0x9E36, offset: 0x25515, size: 0x8, addend: 0x0, symName: __ZNSt3__16vectorI8EmployeeNS_9allocatorIS1_EEE22__construct_one_at_endB8ue170006IJRKS1_EEEvDpOT_, symObjAddr: 0xF6C, symBinAddr: 0x1000092E8, symSize: 0x90 }
  - { offsetInCU: 0x9E85, offset: 0x25564, size: 0x8, addend: 0x0, symName: __ZNSt3__16vectorI8EmployeeNS_9allocatorIS1_EEE21__push_back_slow_pathIRKS1_EEvOT_, symObjAddr: 0xFFC, symBinAddr: 0x100009378, symSize: 0xD8 }
  - { offsetInCU: 0x9EFE, offset: 0x255DD, size: 0x8, addend: 0x0, symName: __ZNSt3__116allocator_traitsINS_9allocatorI8EmployeeEEE9constructB8ue170006IS2_JRKS2_EvvEEvRS3_PT_DpOT0_, symObjAddr: 0x1148, symBinAddr: 0x100009450, symSize: 0x30 }
  - { offsetInCU: 0x9F64, offset: 0x25643, size: 0x8, addend: 0x0, symName: __ZNKSt3__16vectorI4TeamNS_9allocatorIS1_EEE20__throw_out_of_rangeB8ue170006Ev, symObjAddr: 0x2E90, symBinAddr: 0x1000094BC, symSize: 0x1C }
  - { offsetInCU: 0x9F90, offset: 0x2566F, size: 0x8, addend: 0x0, symName: __ZNSt3__16vectorI4TeamNS_9allocatorIS1_EEE22__construct_one_at_endB8ue170006IJRKS1_EEEvDpOT_, symObjAddr: 0x3024, symBinAddr: 0x1000094D8, symSize: 0x90 }
  - { offsetInCU: 0x9FDF, offset: 0x256BE, size: 0x8, addend: 0x0, symName: __ZNSt3__16vectorI4TeamNS_9allocatorIS1_EEE21__push_back_slow_pathIRKS1_EEvOT_, symObjAddr: 0x30B4, symBinAddr: 0x100009568, symSize: 0xD8 }
  - { offsetInCU: 0xA058, offset: 0x25737, size: 0x8, addend: 0x0, symName: __ZNSt3__16vectorI4TeamNS_9allocatorIS1_EEE21_ConstructTransactionC1B8ue170006ERS4_m, symObjAddr: 0x31C4, symBinAddr: 0x100009640, symSize: 0x3C }
  - { offsetInCU: 0xA0A0, offset: 0x2577F, size: 0x8, addend: 0x0, symName: __ZNSt3__116allocator_traitsINS_9allocatorI4TeamEEE9constructB8ue170006IS2_JRKS2_EvvEEvRS3_PT_DpOT0_, symObjAddr: 0x3200, symBinAddr: 0x10000967C, symSize: 0x30 }
  - { offsetInCU: 0xA0F5, offset: 0x257D4, size: 0x8, addend: 0x0, symName: __ZNSt3__16vectorI4TeamNS_9allocatorIS1_EEE21_ConstructTransactionD1B8ue170006Ev, symObjAddr: 0x326C, symBinAddr: 0x1000096AC, symSize: 0x2C }
  - { offsetInCU: 0xA11F, offset: 0x257FE, size: 0x8, addend: 0x0, symName: __ZNSt3__16vectorI4TeamNS_9allocatorIS1_EEE21_ConstructTransactionC2B8ue170006ERS4_m, symObjAddr: 0x3298, symBinAddr: 0x1000096D8, symSize: 0x4C }
  - { offsetInCU: 0xA167, offset: 0x25846, size: 0x8, addend: 0x0, symName: __ZN4TeamC1ERKS_, symObjAddr: 0x3320, symBinAddr: 0x100009760, symSize: 0x34 }
  - { offsetInCU: 0xA19C, offset: 0x2587B, size: 0x8, addend: 0x0, symName: __ZN4TeamC2ERKS_, symObjAddr: 0x3354, symBinAddr: 0x100009794, symSize: 0x50 }
  - { offsetInCU: 0xA1D1, offset: 0x258B0, size: 0x8, addend: 0x0, symName: __ZNSt3__16vectorI4TeamNS_9allocatorIS1_EEE21_ConstructTransactionD2B8ue170006Ev, symObjAddr: 0x4068, symBinAddr: 0x1000097E4, symSize: 0x20 }
  - { offsetInCU: 0xA1FB, offset: 0x258DA, size: 0x8, addend: 0x0, symName: __ZNKSt3__16vectorI4TeamNS_9allocatorIS1_EEE11__recommendB8ue170006Em, symObjAddr: 0x4088, symBinAddr: 0x100009804, symSize: 0xB4 }
  - { offsetInCU: 0xA250, offset: 0x2592F, size: 0x8, addend: 0x0, symName: __ZNSt3__114__split_bufferI4TeamRNS_9allocatorIS1_EEEC1EmmS4_, symObjAddr: 0x413C, symBinAddr: 0x1000098B8, symSize: 0x44 }
  - { offsetInCU: 0xA2A6, offset: 0x25985, size: 0x8, addend: 0x0, symName: __ZNSt3__114__split_bufferI4TeamRNS_9allocatorIS1_EEED1Ev, symObjAddr: 0x4290, symBinAddr: 0x100009A0C, symSize: 0x2C }
  - { offsetInCU: 0xA2D2, offset: 0x259B1, size: 0x8, addend: 0x0, symName: __ZNKSt3__16vectorI4TeamNS_9allocatorIS1_EEE8max_sizeEv, symObjAddr: 0x42BC, symBinAddr: 0x100009A38, symSize: 0x60 }
  - { offsetInCU: 0xA2FA, offset: 0x259D9, size: 0x8, addend: 0x0, symName: __ZNKSt3__16vectorI4TeamNS_9allocatorIS1_EEE20__throw_length_errorB8ue170006Ev, symObjAddr: 0x431C, symBinAddr: 0x100009A98, symSize: 0x1C }
  - { offsetInCU: 0xA32B, offset: 0x25A0A, size: 0x8, addend: 0x0, symName: __ZNSt3__116allocator_traitsINS_9allocatorI4TeamEEE8max_sizeB8ue170006IS3_vvEEmRKS3_, symObjAddr: 0x4378, symBinAddr: 0x100009AB4, symSize: 0x28 }
  - { offsetInCU: 0xA357, offset: 0x25A36, size: 0x8, addend: 0x0, symName: __ZNKSt3__16vectorI4TeamNS_9allocatorIS1_EEE7__allocB8ue170006Ev, symObjAddr: 0x43A0, symBinAddr: 0x100009ADC, symSize: 0x28 }
  - { offsetInCU: 0xA37D, offset: 0x25A5C, size: 0x8, addend: 0x0, symName: __ZNKSt3__117__compressed_pairIP4TeamNS_9allocatorIS1_EEE6secondB8ue170006Ev, symObjAddr: 0x43C8, symBinAddr: 0x100009B04, symSize: 0x24 }
  - { offsetInCU: 0xA3A3, offset: 0x25A82, size: 0x8, addend: 0x0, symName: __ZNKSt3__122__compressed_pair_elemINS_9allocatorI4TeamEELi1ELb1EE5__getB8ue170006Ev, symObjAddr: 0x43EC, symBinAddr: 0x100009B28, symSize: 0x14 }
  - { offsetInCU: 0xA3C9, offset: 0x25AA8, size: 0x8, addend: 0x0, symName: __ZNSt3__114__split_bufferI4TeamRNS_9allocatorIS1_EEEC2EmmS4_, symObjAddr: 0x4460, symBinAddr: 0x100009B3C, symSize: 0xE0 }
  - { offsetInCU: 0xA43C, offset: 0x25B1B, size: 0x8, addend: 0x0, symName: __ZNSt3__117__compressed_pairIP4TeamRNS_9allocatorIS1_EEEC1B8ue170006IDnS5_EEOT_OT0_, symObjAddr: 0x4540, symBinAddr: 0x100009C1C, symSize: 0x3C }
  - { offsetInCU: 0xA494, offset: 0x25B73, size: 0x8, addend: 0x0, symName: __ZNSt3__114__split_bufferI4TeamRNS_9allocatorIS1_EEE7__allocB8ue170006Ev, symObjAddr: 0x45BC, symBinAddr: 0x100009C98, symSize: 0x28 }
  - { offsetInCU: 0xA4BA, offset: 0x25B99, size: 0x8, addend: 0x0, symName: __ZNSt3__114__split_bufferI4TeamRNS_9allocatorIS1_EEE9__end_capB8ue170006Ev, symObjAddr: 0x45E4, symBinAddr: 0x100009CC0, symSize: 0x28 }
  - { offsetInCU: 0xA4E0, offset: 0x25BBF, size: 0x8, addend: 0x0, symName: __ZNSt3__117__compressed_pairIP4TeamRNS_9allocatorIS1_EEEC2B8ue170006IDnS5_EEOT_OT0_, symObjAddr: 0x460C, symBinAddr: 0x100009CE8, symSize: 0x48 }
  - { offsetInCU: 0xA538, offset: 0x25C17, size: 0x8, addend: 0x0, symName: __ZNSt3__122__compressed_pair_elemIRNS_9allocatorI4TeamEELi1ELb0EEC2B8ue170006IS4_vEEOT_, symObjAddr: 0x4654, symBinAddr: 0x100009D30, symSize: 0x20 }
  - { offsetInCU: 0xA57A, offset: 0x25C59, size: 0x8, addend: 0x0, symName: __ZNSt3__19allocatorI4TeamE8allocateB8ue170006Em, symObjAddr: 0x4674, symBinAddr: 0x100009D50, symSize: 0x5C }
  - { offsetInCU: 0xA5AE, offset: 0x25C8D, size: 0x8, addend: 0x0, symName: __ZNSt3__117__compressed_pairIP4TeamRNS_9allocatorIS1_EEE6secondB8ue170006Ev, symObjAddr: 0x46D0, symBinAddr: 0x100009DAC, symSize: 0x28 }
  - { offsetInCU: 0xA5D4, offset: 0x25CB3, size: 0x8, addend: 0x0, symName: __ZNSt3__122__compressed_pair_elemIRNS_9allocatorI4TeamEELi1ELb0EE5__getB8ue170006Ev, symObjAddr: 0x46F8, symBinAddr: 0x100009DD4, symSize: 0x18 }
  - { offsetInCU: 0xA5FA, offset: 0x25CD9, size: 0x8, addend: 0x0, symName: __ZNSt3__117__compressed_pairIP4TeamRNS_9allocatorIS1_EEE5firstB8ue170006Ev, symObjAddr: 0x4710, symBinAddr: 0x100009DEC, symSize: 0x24 }
  - { offsetInCU: 0xA620, offset: 0x25CFF, size: 0x8, addend: 0x0, symName: __ZNSt3__116reverse_iteratorIP4TeamEC1B8ue170006ES2_, symObjAddr: 0x4934, symBinAddr: 0x100009F3C, symSize: 0x34 }
  - { offsetInCU: 0xA658, offset: 0x25D37, size: 0x8, addend: 0x0, symName: __ZNKSt3__116reverse_iteratorIP4TeamE4baseB8ue170006Ev, symObjAddr: 0x4968, symBinAddr: 0x100009F70, symSize: 0x18 }
  - { offsetInCU: 0xA67E, offset: 0x25D5D, size: 0x8, addend: 0x0, symName: __ZNKSt3__16vectorI4TeamNS_9allocatorIS1_EEE14__annotate_newB8ue170006Em, symObjAddr: 0x49BC, symBinAddr: 0x100009FC4, symSize: 0xC8 }
  - { offsetInCU: 0xA6B3, offset: 0x25D92, size: 0x8, addend: 0x0, symName: __ZNSt3__129_AllocatorDestroyRangeReverseINS_9allocatorI4TeamEENS_16reverse_iteratorIPS2_EEEC1B8ue170006ERS3_RS6_S9_, symObjAddr: 0x4B18, symBinAddr: 0x10000A0D8, symSize: 0x44 }
  - { offsetInCU: 0xA710, offset: 0x25DEF, size: 0x8, addend: 0x0, symName: __ZNSt3__116allocator_traitsINS_9allocatorI4TeamEEE9constructB8ue170006IS2_JS2_EvvEEvRS3_PT_DpOT0_, symObjAddr: 0x4BA4, symBinAddr: 0x10000A164, symSize: 0x30 }
  - { offsetInCU: 0xA765, offset: 0x25E44, size: 0x8, addend: 0x0, symName: __ZNKSt3__116reverse_iteratorIP4TeamEdeB8ue170006Ev, symObjAddr: 0x4BF8, symBinAddr: 0x10000A1B8, symSize: 0x28 }
  - { offsetInCU: 0xA799, offset: 0x25E78, size: 0x8, addend: 0x0, symName: __ZNSt3__116reverse_iteratorIP4TeamEppB8ue170006Ev, symObjAddr: 0x4C20, symBinAddr: 0x10000A1E0, symSize: 0x20 }
  - { offsetInCU: 0xA7BF, offset: 0x25E9E, size: 0x8, addend: 0x0, symName: __ZNSt3__128__exception_guard_exceptionsINS_29_AllocatorDestroyRangeReverseINS_9allocatorI4TeamEENS_16reverse_iteratorIPS3_EEEEE10__completeB8ue170006Ev, symObjAddr: 0x4C40, symBinAddr: 0x10000A200, symSize: 0x1C }
  - { offsetInCU: 0xA7E5, offset: 0x25EC4, size: 0x8, addend: 0x0, symName: __ZNSt3__128__exception_guard_exceptionsINS_29_AllocatorDestroyRangeReverseINS_9allocatorI4TeamEENS_16reverse_iteratorIPS3_EEEEED1B8ue170006Ev, symObjAddr: 0x4C5C, symBinAddr: 0x10000A21C, symSize: 0x2C }
  - { offsetInCU: 0xA80F, offset: 0x25EEE, size: 0x8, addend: 0x0, symName: __ZNSt3__128__exception_guard_exceptionsINS_29_AllocatorDestroyRangeReverseINS_9allocatorI4TeamEENS_16reverse_iteratorIPS3_EEEEEC1B8ue170006ES8_, symObjAddr: 0x4C88, symBinAddr: 0x10000A248, symSize: 0x34 }
  - { offsetInCU: 0xA848, offset: 0x25F27, size: 0x8, addend: 0x0, symName: __ZNSt3__128__exception_guard_exceptionsINS_29_AllocatorDestroyRangeReverseINS_9allocatorI4TeamEENS_16reverse_iteratorIPS3_EEEEEC2B8ue170006ES8_, symObjAddr: 0x4CBC, symBinAddr: 0x10000A27C, symSize: 0x30 }
  - { offsetInCU: 0xA881, offset: 0x25F60, size: 0x8, addend: 0x0, symName: __ZNSt3__129_AllocatorDestroyRangeReverseINS_9allocatorI4TeamEENS_16reverse_iteratorIPS2_EEEC2B8ue170006ERS3_RS6_S9_, symObjAddr: 0x4CEC, symBinAddr: 0x10000A2AC, symSize: 0x38 }
  - { offsetInCU: 0xA8D8, offset: 0x25FB7, size: 0x8, addend: 0x0, symName: __ZN4TeamC1EOS_, symObjAddr: 0x4D60, symBinAddr: 0x10000A320, symSize: 0x34 }
  - { offsetInCU: 0xA90D, offset: 0x25FEC, size: 0x8, addend: 0x0, symName: __ZN4TeamC2EOS_, symObjAddr: 0x4D94, symBinAddr: 0x10000A354, symSize: 0x50 }
  - { offsetInCU: 0xA942, offset: 0x26021, size: 0x8, addend: 0x0, symName: __ZNSt3__16vectorI8EmployeeNS_9allocatorIS1_EEEC1B8ue170006EOS4_, symObjAddr: 0x4DE4, symBinAddr: 0x10000A3A4, symSize: 0x34 }
  - { offsetInCU: 0xA97D, offset: 0x2605C, size: 0x8, addend: 0x0, symName: __ZNSt3__16vectorI8EmployeeNS_9allocatorIS1_EEEC2B8ue170006EOS4_, symObjAddr: 0x4E18, symBinAddr: 0x10000A3D8, symSize: 0xC4 }
  - { offsetInCU: 0xA9BE, offset: 0x2609D, size: 0x8, addend: 0x0, symName: __ZNSt3__119__to_address_helperINS_16reverse_iteratorIP4TeamEEvE6__callB8ue170006ERKS4_, symObjAddr: 0x4EDC, symBinAddr: 0x10000A49C, symSize: 0x38 }
  - { offsetInCU: 0xA9E1, offset: 0x260C0, size: 0x8, addend: 0x0, symName: __ZNKSt3__116reverse_iteratorIP4TeamEptB8ue170006Ev, symObjAddr: 0x4F14, symBinAddr: 0x10000A4D4, symSize: 0x2C }
  - { offsetInCU: 0xAA07, offset: 0x260E6, size: 0x8, addend: 0x0, symName: __ZNSt3__128__exception_guard_exceptionsINS_29_AllocatorDestroyRangeReverseINS_9allocatorI4TeamEENS_16reverse_iteratorIPS3_EEEEED2B8ue170006Ev, symObjAddr: 0x4FE4, symBinAddr: 0x10000A5A4, symSize: 0x50 }
  - { offsetInCU: 0xAA31, offset: 0x26110, size: 0x8, addend: 0x0, symName: __ZNKSt3__129_AllocatorDestroyRangeReverseINS_9allocatorI4TeamEENS_16reverse_iteratorIPS2_EEEclB8ue170006Ev, symObjAddr: 0x5034, symBinAddr: 0x10000A5F4, symSize: 0xB4 }
  - { offsetInCU: 0xAA58, offset: 0x26137, size: 0x8, addend: 0x0, symName: __ZNSt3__116reverse_iteratorINS0_IP4TeamEEEC1B8ue170006ES3_, symObjAddr: 0x5158, symBinAddr: 0x10000A718, symSize: 0x3C }
  - { offsetInCU: 0xAA90, offset: 0x2616F, size: 0x8, addend: 0x0, symName: __ZNSt3__116reverse_iteratorINS0_IP4TeamEEEppB8ue170006Ev, symObjAddr: 0x5240, symBinAddr: 0x10000A7D8, symSize: 0x30 }
  - { offsetInCU: 0xAAB6, offset: 0x26195, size: 0x8, addend: 0x0, symName: __ZNKSt3__116reverse_iteratorINS0_IP4TeamEEE4baseB8ue170006Ev, symObjAddr: 0x5270, symBinAddr: 0x10000A808, symSize: 0x24 }
  - { offsetInCU: 0xAAE2, offset: 0x261C1, size: 0x8, addend: 0x0, symName: __ZNSt3__119__to_address_helperINS_16reverse_iteratorINS1_IP4TeamEEEEvE6__callB8ue170006ERKS5_, symObjAddr: 0x52DC, symBinAddr: 0x10000A82C, symSize: 0x38 }
  - { offsetInCU: 0xAB05, offset: 0x261E4, size: 0x8, addend: 0x0, symName: __ZNKSt3__116reverse_iteratorINS0_IP4TeamEEEptB8ue170006Ev, symObjAddr: 0x5314, symBinAddr: 0x10000A864, symSize: 0x4C }
  - { offsetInCU: 0xAB2B, offset: 0x2620A, size: 0x8, addend: 0x0, symName: __ZNSt3__116reverse_iteratorIP4TeamEpLB8ue170006El, symObjAddr: 0x5410, symBinAddr: 0x10000A960, symSize: 0x30 }
  - { offsetInCU: 0xAB5F, offset: 0x2623E, size: 0x8, addend: 0x0, symName: __ZNSt3__116reverse_iteratorIP4TeamEmmB8ue170006Ev, symObjAddr: 0x5440, symBinAddr: 0x10000A990, symSize: 0x20 }
  - { offsetInCU: 0xAB85, offset: 0x26264, size: 0x8, addend: 0x0, symName: __ZNSt3__116reverse_iteratorINS0_IP4TeamEEEC2B8ue170006ES3_, symObjAddr: 0x5460, symBinAddr: 0x10000A9B0, symSize: 0x2C }
  - { offsetInCU: 0xABBD, offset: 0x2629C, size: 0x8, addend: 0x0, symName: __ZNSt3__116reverse_iteratorIP4TeamEC2B8ue170006ES2_, symObjAddr: 0x548C, symBinAddr: 0x10000A9DC, symSize: 0x28 }
  - { offsetInCU: 0xABF5, offset: 0x262D4, size: 0x8, addend: 0x0, symName: __ZNSt3__114__split_bufferI4TeamRNS_9allocatorIS1_EEED2Ev, symObjAddr: 0x54B4, symBinAddr: 0x10000AA04, symSize: 0x8C }
  - { offsetInCU: 0xAC21, offset: 0x26300, size: 0x8, addend: 0x0, symName: __ZNSt3__114__split_bufferI4TeamRNS_9allocatorIS1_EEE5clearB8ue170006Ev, symObjAddr: 0x5540, symBinAddr: 0x10000AA90, symSize: 0x28 }
  - { offsetInCU: 0xAC47, offset: 0x26326, size: 0x8, addend: 0x0, symName: __ZNKSt3__114__split_bufferI4TeamRNS_9allocatorIS1_EEE8capacityB8ue170006Ev, symObjAddr: 0x559C, symBinAddr: 0x10000AAB8, symSize: 0x40 }
  - { offsetInCU: 0xAC6D, offset: 0x2634C, size: 0x8, addend: 0x0, symName: __ZNSt3__114__split_bufferI4TeamRNS_9allocatorIS1_EEE17__destruct_at_endB8ue170006EPS1_, symObjAddr: 0x55DC, symBinAddr: 0x10000AAF8, symSize: 0x2C }
  - { offsetInCU: 0xACA1, offset: 0x26380, size: 0x8, addend: 0x0, symName: __ZNSt3__114__split_bufferI4TeamRNS_9allocatorIS1_EEE17__destruct_at_endB8ue170006EPS1_NS_17integral_constantIbLb0EEE, symObjAddr: 0x5608, symBinAddr: 0x10000AB24, symSize: 0x80 }
  - { offsetInCU: 0xACE1, offset: 0x263C0, size: 0x8, addend: 0x0, symName: __ZNKSt3__114__split_bufferI4TeamRNS_9allocatorIS1_EEE9__end_capB8ue170006Ev, symObjAddr: 0x56CC, symBinAddr: 0x10000ABA4, symSize: 0x28 }
  - { offsetInCU: 0xAD07, offset: 0x263E6, size: 0x8, addend: 0x0, symName: __ZNKSt3__117__compressed_pairIP4TeamRNS_9allocatorIS1_EEE5firstB8ue170006Ev, symObjAddr: 0x56F4, symBinAddr: 0x10000ABCC, symSize: 0x24 }
  - { offsetInCU: 0xAD4E, offset: 0x2642D, size: 0x8, addend: 0x0, symName: __ZNKSt3__112basic_stringIcNS_11char_traitsIcEENS_9allocatorIcEEE4dataB8ue170006Ev, symObjAddr: 0x6470, symBinAddr: 0x10000ABF0, symSize: 0x28 }
  - { offsetInCU: 0xAD74, offset: 0x26453, size: 0x8, addend: 0x0, symName: __ZNKSt3__112basic_stringIcNS_11char_traitsIcEENS_9allocatorIcEEE4sizeB8ue170006Ev, symObjAddr: 0x6498, symBinAddr: 0x10000AC18, symSize: 0x54 }
  - { offsetInCU: 0xAD9A, offset: 0x26479, size: 0x8, addend: 0x0, symName: __ZNKSt3__112basic_stringIcNS_11char_traitsIcEENS_9allocatorIcEEE13__get_pointerB8ue170006Ev, symObjAddr: 0x6500, symBinAddr: 0x10000AC80, symSize: 0x54 }
  - { offsetInCU: 0xADC0, offset: 0x2649F, size: 0x8, addend: 0x0, symName: __ZNKSt3__112basic_stringIcNS_11char_traitsIcEENS_9allocatorIcEEE18__get_long_pointerB8ue170006Ev, symObjAddr: 0x6554, symBinAddr: 0x10000ACD4, symSize: 0x28 }
  - { offsetInCU: 0xADE6, offset: 0x264C5, size: 0x8, addend: 0x0, symName: __ZNKSt3__112basic_stringIcNS_11char_traitsIcEENS_9allocatorIcEEE19__get_short_pointerB8ue170006Ev, symObjAddr: 0x657C, symBinAddr: 0x10000ACFC, symSize: 0x28 }
  - { offsetInCU: 0xAE0C, offset: 0x264EB, size: 0x8, addend: 0x0, symName: __ZNSt3__114pointer_traitsIPKcE10pointer_toB8ue170006ERS1_, symObjAddr: 0x65A4, symBinAddr: 0x10000AD24, symSize: 0x14 }
  - { offsetInCU: 0xAE2F, offset: 0x2650E, size: 0x8, addend: 0x0, symName: __ZNKSt3__112basic_stringIcNS_11char_traitsIcEENS_9allocatorIcEEE15__get_long_sizeB8ue170006Ev, symObjAddr: 0x65B8, symBinAddr: 0x10000AD38, symSize: 0x28 }
  - { offsetInCU: 0xAE55, offset: 0x26534, size: 0x8, addend: 0x0, symName: __ZNKSt3__112basic_stringIcNS_11char_traitsIcEENS_9allocatorIcEEE16__get_short_sizeB8ue170006Ev, symObjAddr: 0x65E0, symBinAddr: 0x10000AD60, symSize: 0x34 }
  - { offsetInCU: 0x26, offset: 0x265EE, size: 0x8, addend: 0x0, symName: __ZNK8Employee7GetNameEv, symObjAddr: 0x0, symBinAddr: 0x10000AD94, symSize: 0x38 }
  - { offsetInCU: 0x4C9E, offset: 0x2B266, size: 0x8, addend: 0x0, symName: __ZNK8Employee7GetNameEv, symObjAddr: 0x0, symBinAddr: 0x10000AD94, symSize: 0x38 }
  - { offsetInCU: 0x4CC6, offset: 0x2B28E, size: 0x8, addend: 0x0, symName: __ZNK8Employee16GetTecExperianceEv, symObjAddr: 0x38, symBinAddr: 0x10000ADCC, symSize: 0x18 }
  - { offsetInCU: 0x4CEE, offset: 0x2B2B6, size: 0x8, addend: 0x0, symName: __ZNK8Employee22GetCommunicationSkillsEv, symObjAddr: 0x50, symBinAddr: 0x10000ADE4, symSize: 0x18 }
  - { offsetInCU: 0x4D16, offset: 0x2B2DE, size: 0x8, addend: 0x0, symName: __ZNK8Employee13IsSeniorStaffEv, symObjAddr: 0x68, symBinAddr: 0x10000ADFC, symSize: 0x1C }
  - { offsetInCU: 0x4D3E, offset: 0x2B306, size: 0x8, addend: 0x0, symName: __ZNK8Employee8IsInternEv, symObjAddr: 0x84, symBinAddr: 0x10000AE18, symSize: 0x1C }
  - { offsetInCU: 0x4D66, offset: 0x2B32E, size: 0x8, addend: 0x0, symName: __ZN8EmployeeC2ERKNSt3__112basic_stringIcNS0_11char_traitsIcEENS0_9allocatorIcEEEEiibb, symObjAddr: 0xA0, symBinAddr: 0x10000AE34, symSize: 0x114 }
  - { offsetInCU: 0x4DD8, offset: 0x2B3A0, size: 0x8, addend: 0x0, symName: __ZN8EmployeeC1ERKNSt3__112basic_stringIcNS0_11char_traitsIcEENS0_9allocatorIcEEEEiibb, symObjAddr: 0x1B4, symBinAddr: 0x10000AF48, symSize: 0x68 }
  - { offsetInCU: 0x4E4A, offset: 0x2B412, size: 0x8, addend: 0x0, symName: __Z14EmployeeSwitchR8EmployeeS0_, symObjAddr: 0x21C, symBinAddr: 0x10000AFB0, symSize: 0x74 }
  - { offsetInCU: 0x4E9A, offset: 0x2B462, size: 0x8, addend: 0x0, symName: __ZN8EmployeeaSERKS_, symObjAddr: 0x2C4, symBinAddr: 0x10000B024, symSize: 0x48 }
...
