---
triple:          'arm64-apple-darwin'
binary-path:     'bin/exec'
relocations:
  - { offsetInCU: 0xC424, offset: 0xC424, size: 0x8, addend: 0x0, symName: __ZNSt3__124__put_character_sequenceB8ue170006IcNS_11char_traitsIcEEEERNS_13basic_ostreamIT_T0_EES7_PKS4_m, symObjAddr: 0x2D18, symBinAddr: 0x1000069D0, symSize: 0x1EC }
  - { offsetInCU: 0xDDBB, offset: 0xDDBB, size: 0x8, addend: 0x0, symName: __ZNSt3__1lsB8ue170006INS_11char_traitsIcEEEERNS_13basic_ostreamIcT_EES6_PKc, symObjAddr: 0x22C, symBinAddr: 0x100003EE4, symSize: 0x48 }
  - { offsetInCU: 0xDE01, offset: 0xDE01, size: 0x8, addend: 0x0, symName: __ZNSt3__14endlB8ue170006IcNS_11char_traitsIcEEEERNS_13basic_ostreamIT_T0_EES7_, symObjAddr: 0x2A0, symBinAddr: 0x100003F58, symSize: 0x58 }
  - { offsetInCU: 0xFFFF, offset: 0xFFFF, size: 0x8, addend: 0x0, symName: __ZNSt3__118__constexpr_strlenB8ue170006EPKc, symObjAddr: 0x4A8, symBinAddr: 0x100004160, symSize: 0x24 }
  - { offsetInCU: 0x100B8, offset: 0x100B8, size: 0x8, addend: 0x0, symName: __ZNSt3__110destroy_atB8ue170006INS_4pairIKNS_12basic_stringIcNS_11char_traitsIcEENS_9allocatorIcEEEENS_4listIiNS5_IiEEEEEELi0EEEvPT_, symObjAddr: 0x854, symBinAddr: 0x10000450C, symSize: 0x24 }
  - { offsetInCU: 0x100EF, offset: 0x100EF, size: 0x8, addend: 0x0, symName: __ZNSt3__112__destroy_atB8ue170006INS_4pairIKNS_12basic_stringIcNS_11char_traitsIcEENS_9allocatorIcEEEENS_4listIiNS5_IiEEEEEELi0EEEvPT_, symObjAddr: 0x878, symBinAddr: 0x100004530, symSize: 0x24 }
  - { offsetInCU: 0x101E6, offset: 0x101E6, size: 0x8, addend: 0x0, symName: __ZNSt3__110destroy_atB8ue170006IiLi0EEEvPT_, symObjAddr: 0xD04, symBinAddr: 0x1000049BC, symSize: 0x24 }
  - { offsetInCU: 0x1021D, offset: 0x1021D, size: 0x8, addend: 0x0, symName: __ZNSt3__112__destroy_atB8ue170006IiLi0EEEvPT_, symObjAddr: 0xD28, symBinAddr: 0x1000049E0, symSize: 0x10 }
  - { offsetInCU: 0x10254, offset: 0x10254, size: 0x8, addend: 0x0, symName: __ZNSt3__119__libcpp_deallocateB8ue170006EPvmm, symObjAddr: 0xD7C, symBinAddr: 0x100004A34, symSize: 0x60 }
  - { offsetInCU: 0x102B9, offset: 0x102B9, size: 0x8, addend: 0x0, symName: __ZNSt3__124__is_overaligned_for_newB8ue170006Em, symObjAddr: 0xDDC, symBinAddr: 0x100004A94, symSize: 0x20 }
  - { offsetInCU: 0x102E7, offset: 0x102E7, size: 0x8, addend: 0x0, symName: __ZNSt3__127__do_deallocate_handle_sizeB8ue170006IJSt11align_val_tEEEvPvmDpT_, symObjAddr: 0xDFC, symBinAddr: 0x100004AB4, symSize: 0x30 }
  - { offsetInCU: 0x1033A, offset: 0x1033A, size: 0x8, addend: 0x0, symName: __ZNSt3__127__do_deallocate_handle_sizeB8ue170006IJEEEvPvmDpT_, symObjAddr: 0xE2C, symBinAddr: 0x100004AE4, symSize: 0x28 }
  - { offsetInCU: 0x10378, offset: 0x10378, size: 0x8, addend: 0x0, symName: __ZNSt3__124__libcpp_operator_deleteB8ue170006IJPvSt11align_val_tEEEvDpT_, symObjAddr: 0xE54, symBinAddr: 0x100004B0C, symSize: 0x2C }
  - { offsetInCU: 0x103C1, offset: 0x103C1, size: 0x8, addend: 0x0, symName: __ZNSt3__124__libcpp_operator_deleteB8ue170006IJPvEEEvDpT_, symObjAddr: 0xE80, symBinAddr: 0x100004B38, symSize: 0x24 }
  - { offsetInCU: 0x103F6, offset: 0x103F6, size: 0x8, addend: 0x0, symName: __ZNSt3__17launderB8ue170006INS_4pairIKNS_12basic_stringIcNS_11char_traitsIcEENS_9allocatorIcEEEENS_4listIiNS5_IiEEEEEEEEPT_SE_, symObjAddr: 0xEC8, symBinAddr: 0x100004B80, symSize: 0x24 }
  - { offsetInCU: 0x1042D, offset: 0x1042D, size: 0x8, addend: 0x0, symName: __ZNSt3__19__launderB8ue170006INS_4pairIKNS_12basic_stringIcNS_11char_traitsIcEENS_9allocatorIcEEEENS_4listIiNS5_IiEEEEEEEEPT_SE_, symObjAddr: 0xEEC, symBinAddr: 0x100004BA4, symSize: 0x14 }
  - { offsetInCU: 0x10524, offset: 0x10524, size: 0x8, addend: 0x0, symName: __ZNSt3__110destroy_atB8ue170006INS_4pairIKNS_12basic_stringIcNS_11char_traitsIcEENS_9allocatorIcEEEENS_3setINS1_IS7_S7_EENS_4lessISA_EENS5_ISA_EEEEEELi0EEEvPT_, symObjAddr: 0x1200, symBinAddr: 0x100004EB8, symSize: 0x24 }
  - { offsetInCU: 0x1055B, offset: 0x1055B, size: 0x8, addend: 0x0, symName: __ZNSt3__112__destroy_atB8ue170006INS_4pairIKNS_12basic_stringIcNS_11char_traitsIcEENS_9allocatorIcEEEENS_3setINS1_IS7_S7_EENS_4lessISA_EENS5_ISA_EEEEEELi0EEEvPT_, symObjAddr: 0x1224, symBinAddr: 0x100004EDC, symSize: 0x24 }
  - { offsetInCU: 0x1061F, offset: 0x1061F, size: 0x8, addend: 0x0, symName: __ZNSt3__110destroy_atB8ue170006INS_4pairINS_12basic_stringIcNS_11char_traitsIcEENS_9allocatorIcEEEES7_EELi0EEEvPT_, symObjAddr: 0x150C, symBinAddr: 0x1000051C4, symSize: 0x24 }
  - { offsetInCU: 0x10656, offset: 0x10656, size: 0x8, addend: 0x0, symName: __ZNSt3__112__destroy_atB8ue170006INS_4pairINS_12basic_stringIcNS_11char_traitsIcEENS_9allocatorIcEEEES7_EELi0EEEvPT_, symObjAddr: 0x1530, symBinAddr: 0x1000051E8, symSize: 0x24 }
  - { offsetInCU: 0x1068D, offset: 0x1068D, size: 0x8, addend: 0x0, symName: __ZNSt3__17launderB8ue170006INS_4pairIKNS_12basic_stringIcNS_11char_traitsIcEENS_9allocatorIcEEEENS_3setINS1_IS7_S7_EENS_4lessISA_EENS5_ISA_EEEEEEEEPT_SH_, symObjAddr: 0x1670, symBinAddr: 0x100005328, symSize: 0x24 }
  - { offsetInCU: 0x106C4, offset: 0x106C4, size: 0x8, addend: 0x0, symName: __ZNSt3__19__launderB8ue170006INS_4pairIKNS_12basic_stringIcNS_11char_traitsIcEENS_9allocatorIcEEEENS_3setINS1_IS7_S7_EENS_4lessISA_EENS5_ISA_EEEEEEEEPT_SH_, symObjAddr: 0x1694, symBinAddr: 0x10000534C, symSize: 0x14 }
  - { offsetInCU: 0x10788, offset: 0x10788, size: 0x8, addend: 0x0, symName: __ZNSt3__110destroy_atB8ue170006INS_4pairIKNS_12basic_stringIcNS_11char_traitsIcEENS_9allocatorIcEEEENS_4listIS7_NS5_IS7_EEEEEELi0EEEvPT_, symObjAddr: 0x1980, symBinAddr: 0x100005638, symSize: 0x24 }
  - { offsetInCU: 0x107BF, offset: 0x107BF, size: 0x8, addend: 0x0, symName: __ZNSt3__112__destroy_atB8ue170006INS_4pairIKNS_12basic_stringIcNS_11char_traitsIcEENS_9allocatorIcEEEENS_4listIS7_NS5_IS7_EEEEEELi0EEEvPT_, symObjAddr: 0x19A4, symBinAddr: 0x10000565C, symSize: 0x24 }
  - { offsetInCU: 0x108B6, offset: 0x108B6, size: 0x8, addend: 0x0, symName: __ZNSt3__110destroy_atB8ue170006INS_12basic_stringIcNS_11char_traitsIcEENS_9allocatorIcEEEELi0EEEvPT_, symObjAddr: 0x1E08, symBinAddr: 0x100005AC0, symSize: 0x24 }
  - { offsetInCU: 0x108ED, offset: 0x108ED, size: 0x8, addend: 0x0, symName: __ZNSt3__112__destroy_atB8ue170006INS_12basic_stringIcNS_11char_traitsIcEENS_9allocatorIcEEEELi0EEEvPT_, symObjAddr: 0x1E2C, symBinAddr: 0x100005AE4, symSize: 0x24 }
  - { offsetInCU: 0x10924, offset: 0x10924, size: 0x8, addend: 0x0, symName: __ZNSt3__17launderB8ue170006INS_4pairIKNS_12basic_stringIcNS_11char_traitsIcEENS_9allocatorIcEEEENS_4listIS7_NS5_IS7_EEEEEEEEPT_SE_, symObjAddr: 0x1EB8, symBinAddr: 0x100005B70, symSize: 0x24 }
  - { offsetInCU: 0x1095B, offset: 0x1095B, size: 0x8, addend: 0x0, symName: __ZNSt3__19__launderB8ue170006INS_4pairIKNS_12basic_stringIcNS_11char_traitsIcEENS_9allocatorIcEEEENS_4listIS7_NS5_IS7_EEEEEEEEPT_SE_, symObjAddr: 0x1EDC, symBinAddr: 0x100005B94, symSize: 0x14 }
  - { offsetInCU: 0x10A1F, offset: 0x10A1F, size: 0x8, addend: 0x0, symName: __ZNSt3__110destroy_atB8ue170006INS_4pairIKNS_12basic_stringIcNS_11char_traitsIcEENS_9allocatorIcEEEENS_6vectorIiNS5_IiEEEEEELi0EEEvPT_, symObjAddr: 0x21C8, symBinAddr: 0x100005E80, symSize: 0x24 }
  - { offsetInCU: 0x10A56, offset: 0x10A56, size: 0x8, addend: 0x0, symName: __ZNSt3__112__destroy_atB8ue170006INS_4pairIKNS_12basic_stringIcNS_11char_traitsIcEENS_9allocatorIcEEEENS_6vectorIiNS5_IiEEEEEELi0EEEvPT_, symObjAddr: 0x21EC, symBinAddr: 0x100005EA4, symSize: 0x24 }
  - { offsetInCU: 0x10A8D, offset: 0x10A8D, size: 0x8, addend: 0x0, symName: __ZNSt3__112__to_addressB8ue170006IiEEPT_S2_, symObjAddr: 0x25F8, symBinAddr: 0x1000062B0, symSize: 0x14 }
  - { offsetInCU: 0x10AC2, offset: 0x10AC2, size: 0x8, addend: 0x0, symName: __ZNSt3__17launderB8ue170006INS_4pairIKNS_12basic_stringIcNS_11char_traitsIcEENS_9allocatorIcEEEENS_6vectorIiNS5_IiEEEEEEEEPT_SE_, symObjAddr: 0x2778, symBinAddr: 0x100006430, symSize: 0x24 }
  - { offsetInCU: 0x10AF9, offset: 0x10AF9, size: 0x8, addend: 0x0, symName: __ZNSt3__19__launderB8ue170006INS_4pairIKNS_12basic_stringIcNS_11char_traitsIcEENS_9allocatorIcEEEENS_6vectorIiNS5_IiEEEEEEEEPT_SE_, symObjAddr: 0x279C, symBinAddr: 0x100006454, symSize: 0x14 }
  - { offsetInCU: 0x10B30, offset: 0x10B30, size: 0x8, addend: 0x0, symName: __ZNSt3__112__to_addressB8ue170006INS_12basic_stringIcNS_11char_traitsIcEENS_9allocatorIcEEEEEEPT_S8_, symObjAddr: 0x2BB8, symBinAddr: 0x100006870, symSize: 0x14 }
  - { offsetInCU: 0x10B65, offset: 0x10B65, size: 0x8, addend: 0x0, symName: __ZNSt3__116__pad_and_outputB8ue170006IcNS_11char_traitsIcEEEENS_19ostreambuf_iteratorIT_T0_EES6_PKS4_S8_S8_RNS_8ios_baseES4_, symObjAddr: 0x2F20, symBinAddr: 0x100006BD8, symSize: 0x240 }
  - { offsetInCU: 0x10C34, offset: 0x10C34, size: 0x8, addend: 0x0, symName: __ZNSt3__112__to_addressB8ue170006IcEEPT_S2_, symObjAddr: 0x3390, symBinAddr: 0x100007048, symSize: 0x14 }
  - { offsetInCU: 0x10C69, offset: 0x10C69, size: 0x8, addend: 0x0, symName: __ZNSt3__19use_facetB8ue170006INS_5ctypeIcEEEERKT_RKNS_6localeE, symObjAddr: 0x3648, symBinAddr: 0x100007300, symSize: 0x2C }
  - { offsetInCU: 0x146CB, offset: 0x146CB, size: 0x8, addend: 0x0, symName: _main, symObjAddr: 0x0, symBinAddr: 0x100003CB8, symSize: 0x1F8 }
  - { offsetInCU: 0x14709, offset: 0x14709, size: 0x8, addend: 0x0, symName: __ZNSt3__112basic_stringIcNS_11char_traitsIcEENS_9allocatorIcEEEC1B8ue170006ILi0EEEPKc, symObjAddr: 0x1F8, symBinAddr: 0x100003EB0, symSize: 0x34 }
  - { offsetInCU: 0x14748, offset: 0x14748, size: 0x8, addend: 0x0, symName: __ZNSt3__113basic_ostreamIcNS_11char_traitsIcEEElsB8ue170006EPFRS3_S4_E, symObjAddr: 0x274, symBinAddr: 0x100003F2C, symSize: 0x2C }
  - { offsetInCU: 0x14B1F, offset: 0x14B1F, size: 0x8, addend: 0x0, symName: __ZN7NetworkD1Ev, symObjAddr: 0x2F8, symBinAddr: 0x100003FB0, symSize: 0x2C }
  - { offsetInCU: 0x14B49, offset: 0x14B49, size: 0x8, addend: 0x0, symName: __ZNSt3__112basic_stringIcNS_11char_traitsIcEENS_9allocatorIcEEEC2B8ue170006ILi0EEEPKc, symObjAddr: 0x324, symBinAddr: 0x100003FDC, symSize: 0x58 }
  - { offsetInCU: 0x14B8D, offset: 0x14B8D, size: 0x8, addend: 0x0, symName: __ZNSt3__117__compressed_pairINS_12basic_stringIcNS_11char_traitsIcEENS_9allocatorIcEEE5__repES5_EC1B8ue170006INS_18__default_init_tagESA_EEOT_OT0_, symObjAddr: 0x37C, symBinAddr: 0x100004034, symSize: 0x3C }
  - { offsetInCU: 0x14BE5, offset: 0x14BE5, size: 0x8, addend: 0x0, symName: __ZNSt3__111char_traitsIcE6lengthB8ue170006EPKc, symObjAddr: 0x3B8, symBinAddr: 0x100004070, symSize: 0x34 }
  - { offsetInCU: 0x14C08, offset: 0x14C08, size: 0x8, addend: 0x0, symName: __ZNSt3__117__compressed_pairINS_12basic_stringIcNS_11char_traitsIcEENS_9allocatorIcEEE5__repES5_EC2B8ue170006INS_18__default_init_tagESA_EEOT_OT0_, symObjAddr: 0x3EC, symBinAddr: 0x1000040A4, symSize: 0x3C }
  - { offsetInCU: 0x14C60, offset: 0x14C60, size: 0x8, addend: 0x0, symName: __ZNSt3__122__compressed_pair_elemINS_12basic_stringIcNS_11char_traitsIcEENS_9allocatorIcEEE5__repELi0ELb0EEC2B8ue170006ENS_18__default_init_tagE, symObjAddr: 0x428, symBinAddr: 0x1000040E0, symSize: 0x14 }
  - { offsetInCU: 0x14C95, offset: 0x14C95, size: 0x8, addend: 0x0, symName: __ZNSt3__122__compressed_pair_elemINS_9allocatorIcEELi1ELb1EEC2B8ue170006ENS_18__default_init_tagE, symObjAddr: 0x43C, symBinAddr: 0x1000040F4, symSize: 0x2C }
  - { offsetInCU: 0x14CCA, offset: 0x14CCA, size: 0x8, addend: 0x0, symName: __ZNSt3__19allocatorIcEC2B8ue170006Ev, symObjAddr: 0x468, symBinAddr: 0x100004120, symSize: 0x2C }
  - { offsetInCU: 0x14CF4, offset: 0x14CF4, size: 0x8, addend: 0x0, symName: __ZNSt3__116__non_trivial_ifILb1ENS_9allocatorIcEEEC2B8ue170006Ev, symObjAddr: 0x494, symBinAddr: 0x10000414C, symSize: 0x14 }
  - { offsetInCU: 0x14D1E, offset: 0x14D1E, size: 0x8, addend: 0x0, symName: __ZN7NetworkD2Ev, symObjAddr: 0x4D8, symBinAddr: 0x100004190, symSize: 0x5C }
  - { offsetInCU: 0x14D48, offset: 0x14D48, size: 0x8, addend: 0x0, symName: __ZNSt3__13mapINS_12basic_stringIcNS_11char_traitsIcEENS_9allocatorIcEEEENS_4listIiNS4_IiEEEENS_4lessIS6_EENS4_INS_4pairIKS6_S9_EEEEED1B8ue170006Ev, symObjAddr: 0x534, symBinAddr: 0x1000041EC, symSize: 0x2C }
  - { offsetInCU: 0x14D72, offset: 0x14D72, size: 0x8, addend: 0x0, symName: __ZNSt3__13mapINS_12basic_stringIcNS_11char_traitsIcEENS_9allocatorIcEEEENS_3setINS_4pairIS6_S6_EENS_4lessIS9_EENS4_IS9_EEEENSA_IS6_EENS4_INS8_IKS6_SD_EEEEED1B8ue170006Ev, symObjAddr: 0x560, symBinAddr: 0x100004218, symSize: 0x2C }
  - { offsetInCU: 0x14D9C, offset: 0x14D9C, size: 0x8, addend: 0x0, symName: __ZNSt3__13mapINS_12basic_stringIcNS_11char_traitsIcEENS_9allocatorIcEEEENS_4listIS6_NS4_IS6_EEEENS_4lessIS6_EENS4_INS_4pairIKS6_S9_EEEEED1B8ue170006Ev, symObjAddr: 0x58C, symBinAddr: 0x100004244, symSize: 0x2C }
  - { offsetInCU: 0x14DC6, offset: 0x14DC6, size: 0x8, addend: 0x0, symName: __ZNSt3__13mapINS_12basic_stringIcNS_11char_traitsIcEENS_9allocatorIcEEEENS_6vectorIiNS4_IiEEEENS_4lessIS6_EENS4_INS_4pairIKS6_S9_EEEEED1B8ue170006Ev, symObjAddr: 0x5B8, symBinAddr: 0x100004270, symSize: 0x2C }
  - { offsetInCU: 0x14DF0, offset: 0x14DF0, size: 0x8, addend: 0x0, symName: __ZNSt3__16vectorINS_12basic_stringIcNS_11char_traitsIcEENS_9allocatorIcEEEENS4_IS6_EEED1B8ue170006Ev, symObjAddr: 0x5E4, symBinAddr: 0x10000429C, symSize: 0x2C }
  - { offsetInCU: 0x14E1A, offset: 0x14E1A, size: 0x8, addend: 0x0, symName: __ZNSt3__13mapINS_12basic_stringIcNS_11char_traitsIcEENS_9allocatorIcEEEENS_4listIiNS4_IiEEEENS_4lessIS6_EENS4_INS_4pairIKS6_S9_EEEEED2B8ue170006Ev, symObjAddr: 0x610, symBinAddr: 0x1000042C8, symSize: 0x2C }
  - { offsetInCU: 0x14E44, offset: 0x14E44, size: 0x8, addend: 0x0, symName: __ZNSt3__16__treeINS_12__value_typeINS_12basic_stringIcNS_11char_traitsIcEENS_9allocatorIcEEEENS_4listIiNS5_IiEEEEEENS_19__map_value_compareIS7_SB_NS_4lessIS7_EELb1EEENS5_ISB_EEED1Ev, symObjAddr: 0x63C, symBinAddr: 0x1000042F4, symSize: 0x2C }
  - { offsetInCU: 0x14E70, offset: 0x14E70, size: 0x8, addend: 0x0, symName: __ZNSt3__16__treeINS_12__value_typeINS_12basic_stringIcNS_11char_traitsIcEENS_9allocatorIcEEEENS_4listIiNS5_IiEEEEEENS_19__map_value_compareIS7_SB_NS_4lessIS7_EELb1EEENS5_ISB_EEED2Ev, symObjAddr: 0x668, symBinAddr: 0x100004320, symSize: 0x38 }
  - { offsetInCU: 0x14E9C, offset: 0x14E9C, size: 0x8, addend: 0x0, symName: __ZNSt3__16__treeINS_12__value_typeINS_12basic_stringIcNS_11char_traitsIcEENS_9allocatorIcEEEENS_4listIiNS5_IiEEEEEENS_19__map_value_compareIS7_SB_NS_4lessIS7_EELb1EEENS5_ISB_EEE7destroyEPNS_11__tree_nodeISB_PvEE, symObjAddr: 0x6A0, symBinAddr: 0x100004358, symSize: 0xAC }
  - { offsetInCU: 0x14EE8, offset: 0x14EE8, size: 0x8, addend: 0x0, symName: __ZNKSt3__16__treeINS_12__value_typeINS_12basic_stringIcNS_11char_traitsIcEENS_9allocatorIcEEEENS_4listIiNS5_IiEEEEEENS_19__map_value_compareIS7_SB_NS_4lessIS7_EELb1EEENS5_ISB_EEE6__rootB8ue170006Ev, symObjAddr: 0x74C, symBinAddr: 0x100004404, symSize: 0x28 }
  - { offsetInCU: 0x14F0E, offset: 0x14F0E, size: 0x8, addend: 0x0, symName: __ZNSt3__16__treeINS_12__value_typeINS_12basic_stringIcNS_11char_traitsIcEENS_9allocatorIcEEEENS_4listIiNS5_IiEEEEEENS_19__map_value_compareIS7_SB_NS_4lessIS7_EELb1EEENS5_ISB_EEE12__node_allocB8ue170006Ev, symObjAddr: 0x774, symBinAddr: 0x10000442C, symSize: 0x28 }
  - { offsetInCU: 0x14F39, offset: 0x14F39, size: 0x8, addend: 0x0, symName: __ZNSt3__116allocator_traitsINS_9allocatorINS_11__tree_nodeINS_12__value_typeINS_12basic_stringIcNS_11char_traitsIcEENS1_IcEEEENS_4listIiNS1_IiEEEEEEPvEEEEE7destroyB8ue170006INS_4pairIKS8_SB_EEvvEEvRSF_PT_, symObjAddr: 0x79C, symBinAddr: 0x100004454, symSize: 0x28 }
  - { offsetInCU: 0x14F74, offset: 0x14F74, size: 0x8, addend: 0x0, symName: __ZNSt3__122__tree_key_value_typesINS_12__value_typeINS_12basic_stringIcNS_11char_traitsIcEENS_9allocatorIcEEEENS_4listIiNS5_IiEEEEEEE9__get_ptrB8ue170006ERSB_, symObjAddr: 0x7C4, symBinAddr: 0x10000447C, symSize: 0x24 }
  - { offsetInCU: 0x14F98, offset: 0x14F98, size: 0x8, addend: 0x0, symName: __ZNSt3__116allocator_traitsINS_9allocatorINS_11__tree_nodeINS_12__value_typeINS_12basic_stringIcNS_11char_traitsIcEENS1_IcEEEENS_4listIiNS1_IiEEEEEEPvEEEEE10deallocateB8ue170006ERSF_PSE_m, symObjAddr: 0x7E8, symBinAddr: 0x1000044A0, symSize: 0x34 }
  - { offsetInCU: 0x14FDA, offset: 0x14FDA, size: 0x8, addend: 0x0, symName: __ZNSt3__117__compressed_pairINS_15__tree_end_nodeIPNS_16__tree_node_baseIPvEEEENS_9allocatorINS_11__tree_nodeINS_12__value_typeINS_12basic_stringIcNS_11char_traitsIcEENS7_IcEEEENS_4listIiNS7_IiEEEEEES3_EEEEE6secondB8ue170006Ev, symObjAddr: 0x81C, symBinAddr: 0x1000044D4, symSize: 0x24 }
  - { offsetInCU: 0x15000, offset: 0x15000, size: 0x8, addend: 0x0, symName: __ZNSt3__122__compressed_pair_elemINS_9allocatorINS_11__tree_nodeINS_12__value_typeINS_12basic_stringIcNS_11char_traitsIcEENS1_IcEEEENS_4listIiNS1_IiEEEEEEPvEEEELi1ELb1EE5__getB8ue170006Ev, symObjAddr: 0x840, symBinAddr: 0x1000044F8, symSize: 0x14 }
  - { offsetInCU: 0x15026, offset: 0x15026, size: 0x8, addend: 0x0, symName: __ZNSt3__14pairIKNS_12basic_stringIcNS_11char_traitsIcEENS_9allocatorIcEEEENS_4listIiNS4_IiEEEEED1Ev, symObjAddr: 0x89C, symBinAddr: 0x100004554, symSize: 0x2C }
  - { offsetInCU: 0x15052, offset: 0x15052, size: 0x8, addend: 0x0, symName: __ZNSt3__14pairIKNS_12basic_stringIcNS_11char_traitsIcEENS_9allocatorIcEEEENS_4listIiNS4_IiEEEEED2Ev, symObjAddr: 0x8C8, symBinAddr: 0x100004580, symSize: 0x38 }
  - { offsetInCU: 0x1507E, offset: 0x1507E, size: 0x8, addend: 0x0, symName: __ZNSt3__14listIiNS_9allocatorIiEEED1Ev, symObjAddr: 0x900, symBinAddr: 0x1000045B8, symSize: 0x2C }
  - { offsetInCU: 0x150AB, offset: 0x150AB, size: 0x8, addend: 0x0, symName: __ZNSt3__14listIiNS_9allocatorIiEEED2Ev, symObjAddr: 0x92C, symBinAddr: 0x1000045E4, symSize: 0x2C }
  - { offsetInCU: 0x150D8, offset: 0x150D8, size: 0x8, addend: 0x0, symName: __ZNSt3__110__list_impIiNS_9allocatorIiEEED2Ev, symObjAddr: 0x958, symBinAddr: 0x100004610, symSize: 0x2C }
  - { offsetInCU: 0x15104, offset: 0x15104, size: 0x8, addend: 0x0, symName: __ZNSt3__110__list_impIiNS_9allocatorIiEEE5clearEv, symObjAddr: 0x984, symBinAddr: 0x10000463C, symSize: 0xE0 }
  - { offsetInCU: 0x15174, offset: 0x15174, size: 0x8, addend: 0x0, symName: __ZNKSt3__110__list_impIiNS_9allocatorIiEEE5emptyB8ue170006Ev, symObjAddr: 0xA64, symBinAddr: 0x10000471C, symSize: 0x34 }
  - { offsetInCU: 0x1519A, offset: 0x1519A, size: 0x8, addend: 0x0, symName: __ZNSt3__110__list_impIiNS_9allocatorIiEEE12__node_allocB8ue170006Ev, symObjAddr: 0xA98, symBinAddr: 0x100004750, symSize: 0x28 }
  - { offsetInCU: 0x151C0, offset: 0x151C0, size: 0x8, addend: 0x0, symName: __ZNKSt3__110__list_impIiNS_9allocatorIiEEE13__end_as_linkB8ue170006Ev, symObjAddr: 0xAC0, symBinAddr: 0x100004778, symSize: 0x44 }
  - { offsetInCU: 0x151E6, offset: 0x151E6, size: 0x8, addend: 0x0, symName: __ZNSt3__110__list_impIiNS_9allocatorIiEEE14__unlink_nodesEPNS_16__list_node_baseIiPvEES7_, symObjAddr: 0xB04, symBinAddr: 0x1000047BC, symSize: 0x3C }
  - { offsetInCU: 0x1521B, offset: 0x1521B, size: 0x8, addend: 0x0, symName: __ZNSt3__110__list_impIiNS_9allocatorIiEEE4__szB8ue170006Ev, symObjAddr: 0xB40, symBinAddr: 0x1000047F8, symSize: 0x28 }
  - { offsetInCU: 0x15241, offset: 0x15241, size: 0x8, addend: 0x0, symName: __ZNSt3__116__list_node_baseIiPvE9__as_nodeB8ue170006Ev, symObjAddr: 0xB68, symBinAddr: 0x100004820, symSize: 0x24 }
  - { offsetInCU: 0x1526C, offset: 0x1526C, size: 0x8, addend: 0x0, symName: __ZNSt3__116allocator_traitsINS_9allocatorINS_11__list_nodeIiPvEEEEE7destroyB8ue170006IivvEEvRS5_PT_, symObjAddr: 0xB8C, symBinAddr: 0x100004844, symSize: 0x28 }
  - { offsetInCU: 0x152A7, offset: 0x152A7, size: 0x8, addend: 0x0, symName: __ZNSt3__116allocator_traitsINS_9allocatorINS_11__list_nodeIiPvEEEEE10deallocateB8ue170006ERS5_PS4_m, symObjAddr: 0xBB4, symBinAddr: 0x10000486C, symSize: 0x34 }
  - { offsetInCU: 0x152E9, offset: 0x152E9, size: 0x8, addend: 0x0, symName: __ZNKSt3__110__list_impIiNS_9allocatorIiEEE4__szB8ue170006Ev, symObjAddr: 0xBE8, symBinAddr: 0x1000048A0, symSize: 0x28 }
  - { offsetInCU: 0x1530F, offset: 0x1530F, size: 0x8, addend: 0x0, symName: __ZNKSt3__117__compressed_pairImNS_9allocatorINS_11__list_nodeIiPvEEEEE5firstB8ue170006Ev, symObjAddr: 0xC10, symBinAddr: 0x1000048C8, symSize: 0x24 }
  - { offsetInCU: 0x15335, offset: 0x15335, size: 0x8, addend: 0x0, symName: __ZNKSt3__122__compressed_pair_elemImLi0ELb0EE5__getB8ue170006Ev, symObjAddr: 0xC34, symBinAddr: 0x1000048EC, symSize: 0x14 }
  - { offsetInCU: 0x1535B, offset: 0x1535B, size: 0x8, addend: 0x0, symName: __ZNSt3__117__compressed_pairImNS_9allocatorINS_11__list_nodeIiPvEEEEE6secondB8ue170006Ev, symObjAddr: 0xC48, symBinAddr: 0x100004900, symSize: 0x24 }
  - { offsetInCU: 0x15381, offset: 0x15381, size: 0x8, addend: 0x0, symName: __ZNSt3__122__compressed_pair_elemINS_9allocatorINS_11__list_nodeIiPvEEEELi1ELb1EE5__getB8ue170006Ev, symObjAddr: 0xC6C, symBinAddr: 0x100004924, symSize: 0x14 }
  - { offsetInCU: 0x153A7, offset: 0x153A7, size: 0x8, addend: 0x0, symName: __ZNSt3__126__list_node_pointer_traitsIiPvE26__unsafe_link_pointer_castB8ue170006EPNS_16__list_node_baseIiS1_EE, symObjAddr: 0xC80, symBinAddr: 0x100004938, symSize: 0x14 }
  - { offsetInCU: 0x153CB, offset: 0x153CB, size: 0x8, addend: 0x0, symName: __ZNSt3__116__list_node_baseIiPvE6__selfB8ue170006Ev, symObjAddr: 0xC94, symBinAddr: 0x10000494C, symSize: 0x24 }
  - { offsetInCU: 0x153F6, offset: 0x153F6, size: 0x8, addend: 0x0, symName: __ZNSt3__114pointer_traitsIPNS_16__list_node_baseIiPvEEE10pointer_toB8ue170006ERS3_, symObjAddr: 0xCB8, symBinAddr: 0x100004970, symSize: 0x14 }
  - { offsetInCU: 0x15419, offset: 0x15419, size: 0x8, addend: 0x0, symName: __ZNSt3__117__compressed_pairImNS_9allocatorINS_11__list_nodeIiPvEEEEE5firstB8ue170006Ev, symObjAddr: 0xCCC, symBinAddr: 0x100004984, symSize: 0x24 }
  - { offsetInCU: 0x1543F, offset: 0x1543F, size: 0x8, addend: 0x0, symName: __ZNSt3__122__compressed_pair_elemImLi0ELb0EE5__getB8ue170006Ev, symObjAddr: 0xCF0, symBinAddr: 0x1000049A8, symSize: 0x14 }
  - { offsetInCU: 0x15465, offset: 0x15465, size: 0x8, addend: 0x0, symName: __ZNSt3__19allocatorINS_11__list_nodeIiPvEEE10deallocateB8ue170006EPS3_m, symObjAddr: 0xD38, symBinAddr: 0x1000049F0, symSize: 0x44 }
  - { offsetInCU: 0x154A7, offset: 0x154A7, size: 0x8, addend: 0x0, symName: __ZNSt3__112__value_typeINS_12basic_stringIcNS_11char_traitsIcEENS_9allocatorIcEEEENS_4listIiNS4_IiEEEEE11__get_valueB8ue170006Ev, symObjAddr: 0xEA4, symBinAddr: 0x100004B5C, symSize: 0x24 }
  - { offsetInCU: 0x154CD, offset: 0x154CD, size: 0x8, addend: 0x0, symName: __ZNSt3__19allocatorINS_11__tree_nodeINS_12__value_typeINS_12basic_stringIcNS_11char_traitsIcEENS0_IcEEEENS_4listIiNS0_IiEEEEEEPvEEE10deallocateB8ue170006EPSD_m, symObjAddr: 0xF00, symBinAddr: 0x100004BB8, symSize: 0x44 }
  - { offsetInCU: 0x1550F, offset: 0x1550F, size: 0x8, addend: 0x0, symName: __ZNKSt3__16__treeINS_12__value_typeINS_12basic_stringIcNS_11char_traitsIcEENS_9allocatorIcEEEENS_4listIiNS5_IiEEEEEENS_19__map_value_compareIS7_SB_NS_4lessIS7_EELb1EEENS5_ISB_EEE10__end_nodeB8ue170006Ev, symObjAddr: 0xF44, symBinAddr: 0x100004BFC, symSize: 0x2C }
  - { offsetInCU: 0x15535, offset: 0x15535, size: 0x8, addend: 0x0, symName: __ZNSt3__114pointer_traitsIPNS_15__tree_end_nodeIPNS_16__tree_node_baseIPvEEEEE10pointer_toB8ue170006ERS6_, symObjAddr: 0xF70, symBinAddr: 0x100004C28, symSize: 0x14 }
  - { offsetInCU: 0x15558, offset: 0x15558, size: 0x8, addend: 0x0, symName: __ZNKSt3__117__compressed_pairINS_15__tree_end_nodeIPNS_16__tree_node_baseIPvEEEENS_9allocatorINS_11__tree_nodeINS_12__value_typeINS_12basic_stringIcNS_11char_traitsIcEENS7_IcEEEENS_4listIiNS7_IiEEEEEES3_EEEEE5firstB8ue170006Ev, symObjAddr: 0xF84, symBinAddr: 0x100004C3C, symSize: 0x24 }
  - { offsetInCU: 0x1557E, offset: 0x1557E, size: 0x8, addend: 0x0, symName: __ZNKSt3__122__compressed_pair_elemINS_15__tree_end_nodeIPNS_16__tree_node_baseIPvEEEELi0ELb0EE5__getB8ue170006Ev, symObjAddr: 0xFA8, symBinAddr: 0x100004C60, symSize: 0x14 }
  - { offsetInCU: 0x155A4, offset: 0x155A4, size: 0x8, addend: 0x0, symName: __ZNSt3__13mapINS_12basic_stringIcNS_11char_traitsIcEENS_9allocatorIcEEEENS_3setINS_4pairIS6_S6_EENS_4lessIS9_EENS4_IS9_EEEENSA_IS6_EENS4_INS8_IKS6_SD_EEEEED2B8ue170006Ev, symObjAddr: 0xFBC, symBinAddr: 0x100004C74, symSize: 0x2C }
  - { offsetInCU: 0x155CE, offset: 0x155CE, size: 0x8, addend: 0x0, symName: __ZNSt3__16__treeINS_12__value_typeINS_12basic_stringIcNS_11char_traitsIcEENS_9allocatorIcEEEENS_3setINS_4pairIS7_S7_EENS_4lessISA_EENS5_ISA_EEEEEENS_19__map_value_compareIS7_SF_NSB_IS7_EELb1EEENS5_ISF_EEED1Ev, symObjAddr: 0xFE8, symBinAddr: 0x100004CA0, symSize: 0x2C }
  - { offsetInCU: 0x155FA, offset: 0x155FA, size: 0x8, addend: 0x0, symName: __ZNSt3__16__treeINS_12__value_typeINS_12basic_stringIcNS_11char_traitsIcEENS_9allocatorIcEEEENS_3setINS_4pairIS7_S7_EENS_4lessISA_EENS5_ISA_EEEEEENS_19__map_value_compareIS7_SF_NSB_IS7_EELb1EEENS5_ISF_EEED2Ev, symObjAddr: 0x1014, symBinAddr: 0x100004CCC, symSize: 0x38 }
  - { offsetInCU: 0x15626, offset: 0x15626, size: 0x8, addend: 0x0, symName: __ZNSt3__16__treeINS_12__value_typeINS_12basic_stringIcNS_11char_traitsIcEENS_9allocatorIcEEEENS_3setINS_4pairIS7_S7_EENS_4lessISA_EENS5_ISA_EEEEEENS_19__map_value_compareIS7_SF_NSB_IS7_EELb1EEENS5_ISF_EEE7destroyEPNS_11__tree_nodeISF_PvEE, symObjAddr: 0x104C, symBinAddr: 0x100004D04, symSize: 0xAC }
  - { offsetInCU: 0x15672, offset: 0x15672, size: 0x8, addend: 0x0, symName: __ZNKSt3__16__treeINS_12__value_typeINS_12basic_stringIcNS_11char_traitsIcEENS_9allocatorIcEEEENS_3setINS_4pairIS7_S7_EENS_4lessISA_EENS5_ISA_EEEEEENS_19__map_value_compareIS7_SF_NSB_IS7_EELb1EEENS5_ISF_EEE6__rootB8ue170006Ev, symObjAddr: 0x10F8, symBinAddr: 0x100004DB0, symSize: 0x28 }
  - { offsetInCU: 0x15698, offset: 0x15698, size: 0x8, addend: 0x0, symName: __ZNSt3__16__treeINS_12__value_typeINS_12basic_stringIcNS_11char_traitsIcEENS_9allocatorIcEEEENS_3setINS_4pairIS7_S7_EENS_4lessISA_EENS5_ISA_EEEEEENS_19__map_value_compareIS7_SF_NSB_IS7_EELb1EEENS5_ISF_EEE12__node_allocB8ue170006Ev, symObjAddr: 0x1120, symBinAddr: 0x100004DD8, symSize: 0x28 }
  - { offsetInCU: 0x156C3, offset: 0x156C3, size: 0x8, addend: 0x0, symName: __ZNSt3__116allocator_traitsINS_9allocatorINS_11__tree_nodeINS_12__value_typeINS_12basic_stringIcNS_11char_traitsIcEENS1_IcEEEENS_3setINS_4pairIS8_S8_EENS_4lessISB_EENS1_ISB_EEEEEEPvEEEEE7destroyB8ue170006INSA_IKS8_SF_EEvvEEvRSJ_PT_, symObjAddr: 0x1148, symBinAddr: 0x100004E00, symSize: 0x28 }
  - { offsetInCU: 0x156FE, offset: 0x156FE, size: 0x8, addend: 0x0, symName: __ZNSt3__122__tree_key_value_typesINS_12__value_typeINS_12basic_stringIcNS_11char_traitsIcEENS_9allocatorIcEEEENS_3setINS_4pairIS7_S7_EENS_4lessISA_EENS5_ISA_EEEEEEE9__get_ptrB8ue170006ERSF_, symObjAddr: 0x1170, symBinAddr: 0x100004E28, symSize: 0x24 }
  - { offsetInCU: 0x15722, offset: 0x15722, size: 0x8, addend: 0x0, symName: __ZNSt3__116allocator_traitsINS_9allocatorINS_11__tree_nodeINS_12__value_typeINS_12basic_stringIcNS_11char_traitsIcEENS1_IcEEEENS_3setINS_4pairIS8_S8_EENS_4lessISB_EENS1_ISB_EEEEEEPvEEEEE10deallocateB8ue170006ERSJ_PSI_m, symObjAddr: 0x1194, symBinAddr: 0x100004E4C, symSize: 0x34 }
  - { offsetInCU: 0x15764, offset: 0x15764, size: 0x8, addend: 0x0, symName: __ZNSt3__117__compressed_pairINS_15__tree_end_nodeIPNS_16__tree_node_baseIPvEEEENS_9allocatorINS_11__tree_nodeINS_12__value_typeINS_12basic_stringIcNS_11char_traitsIcEENS7_IcEEEENS_3setINS_4pairISE_SE_EENS_4lessISH_EENS7_ISH_EEEEEES3_EEEEE6secondB8ue170006Ev, symObjAddr: 0x11C8, symBinAddr: 0x100004E80, symSize: 0x24 }
  - { offsetInCU: 0x1578A, offset: 0x1578A, size: 0x8, addend: 0x0, symName: __ZNSt3__122__compressed_pair_elemINS_9allocatorINS_11__tree_nodeINS_12__value_typeINS_12basic_stringIcNS_11char_traitsIcEENS1_IcEEEENS_3setINS_4pairIS8_S8_EENS_4lessISB_EENS1_ISB_EEEEEEPvEEEELi1ELb1EE5__getB8ue170006Ev, symObjAddr: 0x11EC, symBinAddr: 0x100004EA4, symSize: 0x14 }
  - { offsetInCU: 0x157B0, offset: 0x157B0, size: 0x8, addend: 0x0, symName: __ZNSt3__14pairIKNS_12basic_stringIcNS_11char_traitsIcEENS_9allocatorIcEEEENS_3setINS0_IS6_S6_EENS_4lessIS9_EENS4_IS9_EEEEED1Ev, symObjAddr: 0x1248, symBinAddr: 0x100004F00, symSize: 0x2C }
  - { offsetInCU: 0x157DC, offset: 0x157DC, size: 0x8, addend: 0x0, symName: __ZNSt3__14pairIKNS_12basic_stringIcNS_11char_traitsIcEENS_9allocatorIcEEEENS_3setINS0_IS6_S6_EENS_4lessIS9_EENS4_IS9_EEEEED2Ev, symObjAddr: 0x1274, symBinAddr: 0x100004F2C, symSize: 0x38 }
  - { offsetInCU: 0x15808, offset: 0x15808, size: 0x8, addend: 0x0, symName: __ZNSt3__13setINS_4pairINS_12basic_stringIcNS_11char_traitsIcEENS_9allocatorIcEEEES7_EENS_4lessIS8_EENS5_IS8_EEED1B8ue170006Ev, symObjAddr: 0x12AC, symBinAddr: 0x100004F64, symSize: 0x2C }
  - { offsetInCU: 0x15832, offset: 0x15832, size: 0x8, addend: 0x0, symName: __ZNSt3__13setINS_4pairINS_12basic_stringIcNS_11char_traitsIcEENS_9allocatorIcEEEES7_EENS_4lessIS8_EENS5_IS8_EEED2B8ue170006Ev, symObjAddr: 0x12D8, symBinAddr: 0x100004F90, symSize: 0x2C }
  - { offsetInCU: 0x1585C, offset: 0x1585C, size: 0x8, addend: 0x0, symName: __ZNSt3__16__treeINS_4pairINS_12basic_stringIcNS_11char_traitsIcEENS_9allocatorIcEEEES7_EENS_4lessIS8_EENS5_IS8_EEED1Ev, symObjAddr: 0x1304, symBinAddr: 0x100004FBC, symSize: 0x2C }
  - { offsetInCU: 0x15888, offset: 0x15888, size: 0x8, addend: 0x0, symName: __ZNSt3__16__treeINS_4pairINS_12basic_stringIcNS_11char_traitsIcEENS_9allocatorIcEEEES7_EENS_4lessIS8_EENS5_IS8_EEED2Ev, symObjAddr: 0x1330, symBinAddr: 0x100004FE8, symSize: 0x38 }
  - { offsetInCU: 0x158B4, offset: 0x158B4, size: 0x8, addend: 0x0, symName: __ZNSt3__16__treeINS_4pairINS_12basic_stringIcNS_11char_traitsIcEENS_9allocatorIcEEEES7_EENS_4lessIS8_EENS5_IS8_EEE7destroyEPNS_11__tree_nodeIS8_PvEE, symObjAddr: 0x1368, symBinAddr: 0x100005020, symSize: 0xAC }
  - { offsetInCU: 0x15900, offset: 0x15900, size: 0x8, addend: 0x0, symName: __ZNKSt3__16__treeINS_4pairINS_12basic_stringIcNS_11char_traitsIcEENS_9allocatorIcEEEES7_EENS_4lessIS8_EENS5_IS8_EEE6__rootB8ue170006Ev, symObjAddr: 0x1414, symBinAddr: 0x1000050CC, symSize: 0x28 }
  - { offsetInCU: 0x15926, offset: 0x15926, size: 0x8, addend: 0x0, symName: __ZNSt3__16__treeINS_4pairINS_12basic_stringIcNS_11char_traitsIcEENS_9allocatorIcEEEES7_EENS_4lessIS8_EENS5_IS8_EEE12__node_allocB8ue170006Ev, symObjAddr: 0x143C, symBinAddr: 0x1000050F4, symSize: 0x28 }
  - { offsetInCU: 0x15951, offset: 0x15951, size: 0x8, addend: 0x0, symName: __ZNSt3__116allocator_traitsINS_9allocatorINS_11__tree_nodeINS_4pairINS_12basic_stringIcNS_11char_traitsIcEENS1_IcEEEES8_EEPvEEEEE7destroyB8ue170006IS9_vvEEvRSC_PT_, symObjAddr: 0x1464, symBinAddr: 0x10000511C, symSize: 0x28 }
  - { offsetInCU: 0x1598C, offset: 0x1598C, size: 0x8, addend: 0x0, symName: __ZNSt3__122__tree_key_value_typesINS_4pairINS_12basic_stringIcNS_11char_traitsIcEENS_9allocatorIcEEEES7_EEE9__get_ptrB8ue170006ERS8_, symObjAddr: 0x148C, symBinAddr: 0x100005144, symSize: 0x14 }
  - { offsetInCU: 0x159B0, offset: 0x159B0, size: 0x8, addend: 0x0, symName: __ZNSt3__116allocator_traitsINS_9allocatorINS_11__tree_nodeINS_4pairINS_12basic_stringIcNS_11char_traitsIcEENS1_IcEEEES8_EEPvEEEEE10deallocateB8ue170006ERSC_PSB_m, symObjAddr: 0x14A0, symBinAddr: 0x100005158, symSize: 0x34 }
  - { offsetInCU: 0x159F2, offset: 0x159F2, size: 0x8, addend: 0x0, symName: __ZNSt3__117__compressed_pairINS_15__tree_end_nodeIPNS_16__tree_node_baseIPvEEEENS_9allocatorINS_11__tree_nodeINS_4pairINS_12basic_stringIcNS_11char_traitsIcEENS7_IcEEEESE_EES3_EEEEE6secondB8ue170006Ev, symObjAddr: 0x14D4, symBinAddr: 0x10000518C, symSize: 0x24 }
  - { offsetInCU: 0x15A18, offset: 0x15A18, size: 0x8, addend: 0x0, symName: __ZNSt3__122__compressed_pair_elemINS_9allocatorINS_11__tree_nodeINS_4pairINS_12basic_stringIcNS_11char_traitsIcEENS1_IcEEEES8_EEPvEEEELi1ELb1EE5__getB8ue170006Ev, symObjAddr: 0x14F8, symBinAddr: 0x1000051B0, symSize: 0x14 }
  - { offsetInCU: 0x15A3E, offset: 0x15A3E, size: 0x8, addend: 0x0, symName: __ZNSt3__14pairINS_12basic_stringIcNS_11char_traitsIcEENS_9allocatorIcEEEES6_ED1Ev, symObjAddr: 0x1554, symBinAddr: 0x10000520C, symSize: 0x2C }
  - { offsetInCU: 0x15A6A, offset: 0x15A6A, size: 0x8, addend: 0x0, symName: __ZNSt3__14pairINS_12basic_stringIcNS_11char_traitsIcEENS_9allocatorIcEEEES6_ED2Ev, symObjAddr: 0x1580, symBinAddr: 0x100005238, symSize: 0x38 }
  - { offsetInCU: 0x15A96, offset: 0x15A96, size: 0x8, addend: 0x0, symName: __ZNSt3__19allocatorINS_11__tree_nodeINS_4pairINS_12basic_stringIcNS_11char_traitsIcEENS0_IcEEEES7_EEPvEEE10deallocateB8ue170006EPSA_m, symObjAddr: 0x15B8, symBinAddr: 0x100005270, symSize: 0x44 }
  - { offsetInCU: 0x15AD8, offset: 0x15AD8, size: 0x8, addend: 0x0, symName: __ZNKSt3__16__treeINS_4pairINS_12basic_stringIcNS_11char_traitsIcEENS_9allocatorIcEEEES7_EENS_4lessIS8_EENS5_IS8_EEE10__end_nodeB8ue170006Ev, symObjAddr: 0x15FC, symBinAddr: 0x1000052B4, symSize: 0x2C }
  - { offsetInCU: 0x15AFE, offset: 0x15AFE, size: 0x8, addend: 0x0, symName: __ZNKSt3__117__compressed_pairINS_15__tree_end_nodeIPNS_16__tree_node_baseIPvEEEENS_9allocatorINS_11__tree_nodeINS_4pairINS_12basic_stringIcNS_11char_traitsIcEENS7_IcEEEESE_EES3_EEEEE5firstB8ue170006Ev, symObjAddr: 0x1628, symBinAddr: 0x1000052E0, symSize: 0x24 }
  - { offsetInCU: 0x15B24, offset: 0x15B24, size: 0x8, addend: 0x0, symName: __ZNSt3__112__value_typeINS_12basic_stringIcNS_11char_traitsIcEENS_9allocatorIcEEEENS_3setINS_4pairIS6_S6_EENS_4lessIS9_EENS4_IS9_EEEEE11__get_valueB8ue170006Ev, symObjAddr: 0x164C, symBinAddr: 0x100005304, symSize: 0x24 }
  - { offsetInCU: 0x15B4A, offset: 0x15B4A, size: 0x8, addend: 0x0, symName: __ZNSt3__19allocatorINS_11__tree_nodeINS_12__value_typeINS_12basic_stringIcNS_11char_traitsIcEENS0_IcEEEENS_3setINS_4pairIS7_S7_EENS_4lessISA_EENS0_ISA_EEEEEEPvEEE10deallocateB8ue170006EPSH_m, symObjAddr: 0x16A8, symBinAddr: 0x100005360, symSize: 0x44 }
  - { offsetInCU: 0x15B8C, offset: 0x15B8C, size: 0x8, addend: 0x0, symName: __ZNKSt3__16__treeINS_12__value_typeINS_12basic_stringIcNS_11char_traitsIcEENS_9allocatorIcEEEENS_3setINS_4pairIS7_S7_EENS_4lessISA_EENS5_ISA_EEEEEENS_19__map_value_compareIS7_SF_NSB_IS7_EELb1EEENS5_ISF_EEE10__end_nodeB8ue170006Ev, symObjAddr: 0x16EC, symBinAddr: 0x1000053A4, symSize: 0x2C }
  - { offsetInCU: 0x15BB2, offset: 0x15BB2, size: 0x8, addend: 0x0, symName: __ZNKSt3__117__compressed_pairINS_15__tree_end_nodeIPNS_16__tree_node_baseIPvEEEENS_9allocatorINS_11__tree_nodeINS_12__value_typeINS_12basic_stringIcNS_11char_traitsIcEENS7_IcEEEENS_3setINS_4pairISE_SE_EENS_4lessISH_EENS7_ISH_EEEEEES3_EEEEE5firstB8ue170006Ev, symObjAddr: 0x1718, symBinAddr: 0x1000053D0, symSize: 0x24 }
  - { offsetInCU: 0x15BD8, offset: 0x15BD8, size: 0x8, addend: 0x0, symName: __ZNSt3__13mapINS_12basic_stringIcNS_11char_traitsIcEENS_9allocatorIcEEEENS_4listIS6_NS4_IS6_EEEENS_4lessIS6_EENS4_INS_4pairIKS6_S9_EEEEED2B8ue170006Ev, symObjAddr: 0x173C, symBinAddr: 0x1000053F4, symSize: 0x2C }
  - { offsetInCU: 0x15C02, offset: 0x15C02, size: 0x8, addend: 0x0, symName: __ZNSt3__16__treeINS_12__value_typeINS_12basic_stringIcNS_11char_traitsIcEENS_9allocatorIcEEEENS_4listIS7_NS5_IS7_EEEEEENS_19__map_value_compareIS7_SB_NS_4lessIS7_EELb1EEENS5_ISB_EEED1Ev, symObjAddr: 0x1768, symBinAddr: 0x100005420, symSize: 0x2C }
  - { offsetInCU: 0x15C2E, offset: 0x15C2E, size: 0x8, addend: 0x0, symName: __ZNSt3__16__treeINS_12__value_typeINS_12basic_stringIcNS_11char_traitsIcEENS_9allocatorIcEEEENS_4listIS7_NS5_IS7_EEEEEENS_19__map_value_compareIS7_SB_NS_4lessIS7_EELb1EEENS5_ISB_EEED2Ev, symObjAddr: 0x1794, symBinAddr: 0x10000544C, symSize: 0x38 }
  - { offsetInCU: 0x15C5A, offset: 0x15C5A, size: 0x8, addend: 0x0, symName: __ZNSt3__16__treeINS_12__value_typeINS_12basic_stringIcNS_11char_traitsIcEENS_9allocatorIcEEEENS_4listIS7_NS5_IS7_EEEEEENS_19__map_value_compareIS7_SB_NS_4lessIS7_EELb1EEENS5_ISB_EEE7destroyEPNS_11__tree_nodeISB_PvEE, symObjAddr: 0x17CC, symBinAddr: 0x100005484, symSize: 0xAC }
  - { offsetInCU: 0x15CA6, offset: 0x15CA6, size: 0x8, addend: 0x0, symName: __ZNKSt3__16__treeINS_12__value_typeINS_12basic_stringIcNS_11char_traitsIcEENS_9allocatorIcEEEENS_4listIS7_NS5_IS7_EEEEEENS_19__map_value_compareIS7_SB_NS_4lessIS7_EELb1EEENS5_ISB_EEE6__rootB8ue170006Ev, symObjAddr: 0x1878, symBinAddr: 0x100005530, symSize: 0x28 }
  - { offsetInCU: 0x15CCC, offset: 0x15CCC, size: 0x8, addend: 0x0, symName: __ZNSt3__16__treeINS_12__value_typeINS_12basic_stringIcNS_11char_traitsIcEENS_9allocatorIcEEEENS_4listIS7_NS5_IS7_EEEEEENS_19__map_value_compareIS7_SB_NS_4lessIS7_EELb1EEENS5_ISB_EEE12__node_allocB8ue170006Ev, symObjAddr: 0x18A0, symBinAddr: 0x100005558, symSize: 0x28 }
  - { offsetInCU: 0x15CF7, offset: 0x15CF7, size: 0x8, addend: 0x0, symName: __ZNSt3__116allocator_traitsINS_9allocatorINS_11__tree_nodeINS_12__value_typeINS_12basic_stringIcNS_11char_traitsIcEENS1_IcEEEENS_4listIS8_NS1_IS8_EEEEEEPvEEEEE7destroyB8ue170006INS_4pairIKS8_SB_EEvvEEvRSF_PT_, symObjAddr: 0x18C8, symBinAddr: 0x100005580, symSize: 0x28 }
  - { offsetInCU: 0x15D32, offset: 0x15D32, size: 0x8, addend: 0x0, symName: __ZNSt3__122__tree_key_value_typesINS_12__value_typeINS_12basic_stringIcNS_11char_traitsIcEENS_9allocatorIcEEEENS_4listIS7_NS5_IS7_EEEEEEE9__get_ptrB8ue170006ERSB_, symObjAddr: 0x18F0, symBinAddr: 0x1000055A8, symSize: 0x24 }
  - { offsetInCU: 0x15D56, offset: 0x15D56, size: 0x8, addend: 0x0, symName: __ZNSt3__116allocator_traitsINS_9allocatorINS_11__tree_nodeINS_12__value_typeINS_12basic_stringIcNS_11char_traitsIcEENS1_IcEEEENS_4listIS8_NS1_IS8_EEEEEEPvEEEEE10deallocateB8ue170006ERSF_PSE_m, symObjAddr: 0x1914, symBinAddr: 0x1000055CC, symSize: 0x34 }
  - { offsetInCU: 0x15D98, offset: 0x15D98, size: 0x8, addend: 0x0, symName: __ZNSt3__117__compressed_pairINS_15__tree_end_nodeIPNS_16__tree_node_baseIPvEEEENS_9allocatorINS_11__tree_nodeINS_12__value_typeINS_12basic_stringIcNS_11char_traitsIcEENS7_IcEEEENS_4listISE_NS7_ISE_EEEEEES3_EEEEE6secondB8ue170006Ev, symObjAddr: 0x1948, symBinAddr: 0x100005600, symSize: 0x24 }
  - { offsetInCU: 0x15DBE, offset: 0x15DBE, size: 0x8, addend: 0x0, symName: __ZNSt3__122__compressed_pair_elemINS_9allocatorINS_11__tree_nodeINS_12__value_typeINS_12basic_stringIcNS_11char_traitsIcEENS1_IcEEEENS_4listIS8_NS1_IS8_EEEEEEPvEEEELi1ELb1EE5__getB8ue170006Ev, symObjAddr: 0x196C, symBinAddr: 0x100005624, symSize: 0x14 }
  - { offsetInCU: 0x15DE4, offset: 0x15DE4, size: 0x8, addend: 0x0, symName: __ZNSt3__14pairIKNS_12basic_stringIcNS_11char_traitsIcEENS_9allocatorIcEEEENS_4listIS6_NS4_IS6_EEEEED1Ev, symObjAddr: 0x19C8, symBinAddr: 0x100005680, symSize: 0x2C }
  - { offsetInCU: 0x15E10, offset: 0x15E10, size: 0x8, addend: 0x0, symName: __ZNSt3__14pairIKNS_12basic_stringIcNS_11char_traitsIcEENS_9allocatorIcEEEENS_4listIS6_NS4_IS6_EEEEED2Ev, symObjAddr: 0x19F4, symBinAddr: 0x1000056AC, symSize: 0x38 }
  - { offsetInCU: 0x15E3C, offset: 0x15E3C, size: 0x8, addend: 0x0, symName: __ZNSt3__14listINS_12basic_stringIcNS_11char_traitsIcEENS_9allocatorIcEEEENS4_IS6_EEED1Ev, symObjAddr: 0x1A2C, symBinAddr: 0x1000056E4, symSize: 0x2C }
  - { offsetInCU: 0x15E69, offset: 0x15E69, size: 0x8, addend: 0x0, symName: __ZNSt3__14listINS_12basic_stringIcNS_11char_traitsIcEENS_9allocatorIcEEEENS4_IS6_EEED2Ev, symObjAddr: 0x1A58, symBinAddr: 0x100005710, symSize: 0x2C }
  - { offsetInCU: 0x15E96, offset: 0x15E96, size: 0x8, addend: 0x0, symName: __ZNSt3__110__list_impINS_12basic_stringIcNS_11char_traitsIcEENS_9allocatorIcEEEENS4_IS6_EEED2Ev, symObjAddr: 0x1A84, symBinAddr: 0x10000573C, symSize: 0x2C }
  - { offsetInCU: 0x15EC2, offset: 0x15EC2, size: 0x8, addend: 0x0, symName: __ZNSt3__110__list_impINS_12basic_stringIcNS_11char_traitsIcEENS_9allocatorIcEEEENS4_IS6_EEE5clearEv, symObjAddr: 0x1AB0, symBinAddr: 0x100005768, symSize: 0xE0 }
  - { offsetInCU: 0x15F32, offset: 0x15F32, size: 0x8, addend: 0x0, symName: __ZNKSt3__110__list_impINS_12basic_stringIcNS_11char_traitsIcEENS_9allocatorIcEEEENS4_IS6_EEE5emptyB8ue170006Ev, symObjAddr: 0x1B90, symBinAddr: 0x100005848, symSize: 0x34 }
  - { offsetInCU: 0x15F58, offset: 0x15F58, size: 0x8, addend: 0x0, symName: __ZNSt3__110__list_impINS_12basic_stringIcNS_11char_traitsIcEENS_9allocatorIcEEEENS4_IS6_EEE12__node_allocB8ue170006Ev, symObjAddr: 0x1BC4, symBinAddr: 0x10000587C, symSize: 0x28 }
  - { offsetInCU: 0x15F7E, offset: 0x15F7E, size: 0x8, addend: 0x0, symName: __ZNKSt3__110__list_impINS_12basic_stringIcNS_11char_traitsIcEENS_9allocatorIcEEEENS4_IS6_EEE13__end_as_linkB8ue170006Ev, symObjAddr: 0x1BEC, symBinAddr: 0x1000058A4, symSize: 0x44 }
  - { offsetInCU: 0x15FA4, offset: 0x15FA4, size: 0x8, addend: 0x0, symName: __ZNSt3__110__list_impINS_12basic_stringIcNS_11char_traitsIcEENS_9allocatorIcEEEENS4_IS6_EEE14__unlink_nodesEPNS_16__list_node_baseIS6_PvEESC_, symObjAddr: 0x1C30, symBinAddr: 0x1000058E8, symSize: 0x3C }
  - { offsetInCU: 0x15FD9, offset: 0x15FD9, size: 0x8, addend: 0x0, symName: __ZNSt3__110__list_impINS_12basic_stringIcNS_11char_traitsIcEENS_9allocatorIcEEEENS4_IS6_EEE4__szB8ue170006Ev, symObjAddr: 0x1C6C, symBinAddr: 0x100005924, symSize: 0x28 }
  - { offsetInCU: 0x15FFF, offset: 0x15FFF, size: 0x8, addend: 0x0, symName: __ZNSt3__116__list_node_baseINS_12basic_stringIcNS_11char_traitsIcEENS_9allocatorIcEEEEPvE9__as_nodeB8ue170006Ev, symObjAddr: 0x1C94, symBinAddr: 0x10000594C, symSize: 0x24 }
  - { offsetInCU: 0x1602A, offset: 0x1602A, size: 0x8, addend: 0x0, symName: __ZNSt3__116allocator_traitsINS_9allocatorINS_11__list_nodeINS_12basic_stringIcNS_11char_traitsIcEENS1_IcEEEEPvEEEEE7destroyB8ue170006IS7_vvEEvRSA_PT_, symObjAddr: 0x1CB8, symBinAddr: 0x100005970, symSize: 0x28 }
  - { offsetInCU: 0x16065, offset: 0x16065, size: 0x8, addend: 0x0, symName: __ZNSt3__116allocator_traitsINS_9allocatorINS_11__list_nodeINS_12basic_stringIcNS_11char_traitsIcEENS1_IcEEEEPvEEEEE10deallocateB8ue170006ERSA_PS9_m, symObjAddr: 0x1CE0, symBinAddr: 0x100005998, symSize: 0x34 }
  - { offsetInCU: 0x160A7, offset: 0x160A7, size: 0x8, addend: 0x0, symName: __ZNKSt3__110__list_impINS_12basic_stringIcNS_11char_traitsIcEENS_9allocatorIcEEEENS4_IS6_EEE4__szB8ue170006Ev, symObjAddr: 0x1D14, symBinAddr: 0x1000059CC, symSize: 0x28 }
  - { offsetInCU: 0x160CD, offset: 0x160CD, size: 0x8, addend: 0x0, symName: __ZNKSt3__117__compressed_pairImNS_9allocatorINS_11__list_nodeINS_12basic_stringIcNS_11char_traitsIcEENS1_IcEEEEPvEEEEE5firstB8ue170006Ev, symObjAddr: 0x1D3C, symBinAddr: 0x1000059F4, symSize: 0x24 }
  - { offsetInCU: 0x160F3, offset: 0x160F3, size: 0x8, addend: 0x0, symName: __ZNSt3__117__compressed_pairImNS_9allocatorINS_11__list_nodeINS_12basic_stringIcNS_11char_traitsIcEENS1_IcEEEEPvEEEEE6secondB8ue170006Ev, symObjAddr: 0x1D60, symBinAddr: 0x100005A18, symSize: 0x24 }
  - { offsetInCU: 0x16119, offset: 0x16119, size: 0x8, addend: 0x0, symName: __ZNSt3__122__compressed_pair_elemINS_9allocatorINS_11__list_nodeINS_12basic_stringIcNS_11char_traitsIcEENS1_IcEEEEPvEEEELi1ELb1EE5__getB8ue170006Ev, symObjAddr: 0x1D84, symBinAddr: 0x100005A3C, symSize: 0x14 }
  - { offsetInCU: 0x1613F, offset: 0x1613F, size: 0x8, addend: 0x0, symName: __ZNSt3__126__list_node_pointer_traitsINS_12basic_stringIcNS_11char_traitsIcEENS_9allocatorIcEEEEPvE26__unsafe_link_pointer_castB8ue170006EPNS_16__list_node_baseIS6_S7_EE, symObjAddr: 0x1D98, symBinAddr: 0x100005A50, symSize: 0x14 }
  - { offsetInCU: 0x16163, offset: 0x16163, size: 0x8, addend: 0x0, symName: __ZNSt3__116__list_node_baseINS_12basic_stringIcNS_11char_traitsIcEENS_9allocatorIcEEEEPvE6__selfB8ue170006Ev, symObjAddr: 0x1DAC, symBinAddr: 0x100005A64, symSize: 0x24 }
  - { offsetInCU: 0x1618E, offset: 0x1618E, size: 0x8, addend: 0x0, symName: __ZNSt3__114pointer_traitsIPNS_16__list_node_baseINS_12basic_stringIcNS_11char_traitsIcEENS_9allocatorIcEEEEPvEEE10pointer_toB8ue170006ERS9_, symObjAddr: 0x1DD0, symBinAddr: 0x100005A88, symSize: 0x14 }
  - { offsetInCU: 0x161B1, offset: 0x161B1, size: 0x8, addend: 0x0, symName: __ZNSt3__117__compressed_pairImNS_9allocatorINS_11__list_nodeINS_12basic_stringIcNS_11char_traitsIcEENS1_IcEEEEPvEEEEE5firstB8ue170006Ev, symObjAddr: 0x1DE4, symBinAddr: 0x100005A9C, symSize: 0x24 }
  - { offsetInCU: 0x161D7, offset: 0x161D7, size: 0x8, addend: 0x0, symName: __ZNSt3__19allocatorINS_11__list_nodeINS_12basic_stringIcNS_11char_traitsIcEENS0_IcEEEEPvEEE10deallocateB8ue170006EPS8_m, symObjAddr: 0x1E50, symBinAddr: 0x100005B08, symSize: 0x44 }
  - { offsetInCU: 0x16219, offset: 0x16219, size: 0x8, addend: 0x0, symName: __ZNSt3__112__value_typeINS_12basic_stringIcNS_11char_traitsIcEENS_9allocatorIcEEEENS_4listIS6_NS4_IS6_EEEEE11__get_valueB8ue170006Ev, symObjAddr: 0x1E94, symBinAddr: 0x100005B4C, symSize: 0x24 }
  - { offsetInCU: 0x1623F, offset: 0x1623F, size: 0x8, addend: 0x0, symName: __ZNSt3__19allocatorINS_11__tree_nodeINS_12__value_typeINS_12basic_stringIcNS_11char_traitsIcEENS0_IcEEEENS_4listIS7_NS0_IS7_EEEEEEPvEEE10deallocateB8ue170006EPSD_m, symObjAddr: 0x1EF0, symBinAddr: 0x100005BA8, symSize: 0x44 }
  - { offsetInCU: 0x16281, offset: 0x16281, size: 0x8, addend: 0x0, symName: __ZNKSt3__16__treeINS_12__value_typeINS_12basic_stringIcNS_11char_traitsIcEENS_9allocatorIcEEEENS_4listIS7_NS5_IS7_EEEEEENS_19__map_value_compareIS7_SB_NS_4lessIS7_EELb1EEENS5_ISB_EEE10__end_nodeB8ue170006Ev, symObjAddr: 0x1F34, symBinAddr: 0x100005BEC, symSize: 0x2C }
  - { offsetInCU: 0x162A7, offset: 0x162A7, size: 0x8, addend: 0x0, symName: __ZNKSt3__117__compressed_pairINS_15__tree_end_nodeIPNS_16__tree_node_baseIPvEEEENS_9allocatorINS_11__tree_nodeINS_12__value_typeINS_12basic_stringIcNS_11char_traitsIcEENS7_IcEEEENS_4listISE_NS7_ISE_EEEEEES3_EEEEE5firstB8ue170006Ev, symObjAddr: 0x1F60, symBinAddr: 0x100005C18, symSize: 0x24 }
  - { offsetInCU: 0x162CD, offset: 0x162CD, size: 0x8, addend: 0x0, symName: __ZNSt3__13mapINS_12basic_stringIcNS_11char_traitsIcEENS_9allocatorIcEEEENS_6vectorIiNS4_IiEEEENS_4lessIS6_EENS4_INS_4pairIKS6_S9_EEEEED2B8ue170006Ev, symObjAddr: 0x1F84, symBinAddr: 0x100005C3C, symSize: 0x2C }
  - { offsetInCU: 0x162F7, offset: 0x162F7, size: 0x8, addend: 0x0, symName: __ZNSt3__16__treeINS_12__value_typeINS_12basic_stringIcNS_11char_traitsIcEENS_9allocatorIcEEEENS_6vectorIiNS5_IiEEEEEENS_19__map_value_compareIS7_SB_NS_4lessIS7_EELb1EEENS5_ISB_EEED1Ev, symObjAddr: 0x1FB0, symBinAddr: 0x100005C68, symSize: 0x2C }
  - { offsetInCU: 0x16323, offset: 0x16323, size: 0x8, addend: 0x0, symName: __ZNSt3__16__treeINS_12__value_typeINS_12basic_stringIcNS_11char_traitsIcEENS_9allocatorIcEEEENS_6vectorIiNS5_IiEEEEEENS_19__map_value_compareIS7_SB_NS_4lessIS7_EELb1EEENS5_ISB_EEED2Ev, symObjAddr: 0x1FDC, symBinAddr: 0x100005C94, symSize: 0x38 }
  - { offsetInCU: 0x1634F, offset: 0x1634F, size: 0x8, addend: 0x0, symName: __ZNSt3__16__treeINS_12__value_typeINS_12basic_stringIcNS_11char_traitsIcEENS_9allocatorIcEEEENS_6vectorIiNS5_IiEEEEEENS_19__map_value_compareIS7_SB_NS_4lessIS7_EELb1EEENS5_ISB_EEE7destroyEPNS_11__tree_nodeISB_PvEE, symObjAddr: 0x2014, symBinAddr: 0x100005CCC, symSize: 0xAC }
  - { offsetInCU: 0x1639B, offset: 0x1639B, size: 0x8, addend: 0x0, symName: __ZNKSt3__16__treeINS_12__value_typeINS_12basic_stringIcNS_11char_traitsIcEENS_9allocatorIcEEEENS_6vectorIiNS5_IiEEEEEENS_19__map_value_compareIS7_SB_NS_4lessIS7_EELb1EEENS5_ISB_EEE6__rootB8ue170006Ev, symObjAddr: 0x20C0, symBinAddr: 0x100005D78, symSize: 0x28 }
  - { offsetInCU: 0x163C1, offset: 0x163C1, size: 0x8, addend: 0x0, symName: __ZNSt3__16__treeINS_12__value_typeINS_12basic_stringIcNS_11char_traitsIcEENS_9allocatorIcEEEENS_6vectorIiNS5_IiEEEEEENS_19__map_value_compareIS7_SB_NS_4lessIS7_EELb1EEENS5_ISB_EEE12__node_allocB8ue170006Ev, symObjAddr: 0x20E8, symBinAddr: 0x100005DA0, symSize: 0x28 }
  - { offsetInCU: 0x163EC, offset: 0x163EC, size: 0x8, addend: 0x0, symName: __ZNSt3__116allocator_traitsINS_9allocatorINS_11__tree_nodeINS_12__value_typeINS_12basic_stringIcNS_11char_traitsIcEENS1_IcEEEENS_6vectorIiNS1_IiEEEEEEPvEEEEE7destroyB8ue170006INS_4pairIKS8_SB_EEvvEEvRSF_PT_, symObjAddr: 0x2110, symBinAddr: 0x100005DC8, symSize: 0x28 }
  - { offsetInCU: 0x16427, offset: 0x16427, size: 0x8, addend: 0x0, symName: __ZNSt3__122__tree_key_value_typesINS_12__value_typeINS_12basic_stringIcNS_11char_traitsIcEENS_9allocatorIcEEEENS_6vectorIiNS5_IiEEEEEEE9__get_ptrB8ue170006ERSB_, symObjAddr: 0x2138, symBinAddr: 0x100005DF0, symSize: 0x24 }
  - { offsetInCU: 0x1644B, offset: 0x1644B, size: 0x8, addend: 0x0, symName: __ZNSt3__116allocator_traitsINS_9allocatorINS_11__tree_nodeINS_12__value_typeINS_12basic_stringIcNS_11char_traitsIcEENS1_IcEEEENS_6vectorIiNS1_IiEEEEEEPvEEEEE10deallocateB8ue170006ERSF_PSE_m, symObjAddr: 0x215C, symBinAddr: 0x100005E14, symSize: 0x34 }
  - { offsetInCU: 0x1648D, offset: 0x1648D, size: 0x8, addend: 0x0, symName: __ZNSt3__117__compressed_pairINS_15__tree_end_nodeIPNS_16__tree_node_baseIPvEEEENS_9allocatorINS_11__tree_nodeINS_12__value_typeINS_12basic_stringIcNS_11char_traitsIcEENS7_IcEEEENS_6vectorIiNS7_IiEEEEEES3_EEEEE6secondB8ue170006Ev, symObjAddr: 0x2190, symBinAddr: 0x100005E48, symSize: 0x24 }
  - { offsetInCU: 0x164B3, offset: 0x164B3, size: 0x8, addend: 0x0, symName: __ZNSt3__122__compressed_pair_elemINS_9allocatorINS_11__tree_nodeINS_12__value_typeINS_12basic_stringIcNS_11char_traitsIcEENS1_IcEEEENS_6vectorIiNS1_IiEEEEEEPvEEEELi1ELb1EE5__getB8ue170006Ev, symObjAddr: 0x21B4, symBinAddr: 0x100005E6C, symSize: 0x14 }
  - { offsetInCU: 0x164D9, offset: 0x164D9, size: 0x8, addend: 0x0, symName: __ZNSt3__14pairIKNS_12basic_stringIcNS_11char_traitsIcEENS_9allocatorIcEEEENS_6vectorIiNS4_IiEEEEED1Ev, symObjAddr: 0x2210, symBinAddr: 0x100005EC8, symSize: 0x2C }
  - { offsetInCU: 0x16505, offset: 0x16505, size: 0x8, addend: 0x0, symName: __ZNSt3__14pairIKNS_12basic_stringIcNS_11char_traitsIcEENS_9allocatorIcEEEENS_6vectorIiNS4_IiEEEEED2Ev, symObjAddr: 0x223C, symBinAddr: 0x100005EF4, symSize: 0x38 }
  - { offsetInCU: 0x16531, offset: 0x16531, size: 0x8, addend: 0x0, symName: __ZNSt3__16vectorIiNS_9allocatorIiEEED1B8ue170006Ev, symObjAddr: 0x2274, symBinAddr: 0x100005F2C, symSize: 0x2C }
  - { offsetInCU: 0x1655B, offset: 0x1655B, size: 0x8, addend: 0x0, symName: __ZNSt3__16vectorIiNS_9allocatorIiEEED2B8ue170006Ev, symObjAddr: 0x22A0, symBinAddr: 0x100005F58, symSize: 0x44 }
  - { offsetInCU: 0x16585, offset: 0x16585, size: 0x8, addend: 0x0, symName: __ZNSt3__16vectorIiNS_9allocatorIiEEE16__destroy_vectorC1B8ue170006ERS3_, symObjAddr: 0x22E4, symBinAddr: 0x100005F9C, symSize: 0x34 }
  - { offsetInCU: 0x165BE, offset: 0x165BE, size: 0x8, addend: 0x0, symName: __ZNSt3__16vectorIiNS_9allocatorIiEEE16__destroy_vectorclB8ue170006Ev, symObjAddr: 0x2318, symBinAddr: 0x100005FD0, symSize: 0x90 }
  - { offsetInCU: 0x165E4, offset: 0x165E4, size: 0x8, addend: 0x0, symName: __ZNSt3__16vectorIiNS_9allocatorIiEEE16__destroy_vectorC2B8ue170006ERS3_, symObjAddr: 0x23A8, symBinAddr: 0x100006060, symSize: 0x20 }
  - { offsetInCU: 0x1661D, offset: 0x1661D, size: 0x8, addend: 0x0, symName: __ZNSt3__16vectorIiNS_9allocatorIiEEE7__clearB8ue170006Ev, symObjAddr: 0x23C8, symBinAddr: 0x100006080, symSize: 0x28 }
  - { offsetInCU: 0x16643, offset: 0x16643, size: 0x8, addend: 0x0, symName: __ZNKSt3__16vectorIiNS_9allocatorIiEEE17__annotate_deleteB8ue170006Ev, symObjAddr: 0x23F0, symBinAddr: 0x1000060A8, symSize: 0xB8 }
  - { offsetInCU: 0x16669, offset: 0x16669, size: 0x8, addend: 0x0, symName: __ZNSt3__116allocator_traitsINS_9allocatorIiEEE10deallocateB8ue170006ERS2_Pim, symObjAddr: 0x24A8, symBinAddr: 0x100006160, symSize: 0x34 }
  - { offsetInCU: 0x166AB, offset: 0x166AB, size: 0x8, addend: 0x0, symName: __ZNSt3__16vectorIiNS_9allocatorIiEEE7__allocB8ue170006Ev, symObjAddr: 0x24DC, symBinAddr: 0x100006194, symSize: 0x28 }
  - { offsetInCU: 0x166D1, offset: 0x166D1, size: 0x8, addend: 0x0, symName: __ZNKSt3__16vectorIiNS_9allocatorIiEEE8capacityB8ue170006Ev, symObjAddr: 0x2504, symBinAddr: 0x1000061BC, symSize: 0x40 }
  - { offsetInCU: 0x166F7, offset: 0x166F7, size: 0x8, addend: 0x0, symName: __ZNSt3__16vectorIiNS_9allocatorIiEEE22__base_destruct_at_endB8ue170006EPi, symObjAddr: 0x2544, symBinAddr: 0x1000061FC, symSize: 0x8C }
  - { offsetInCU: 0x1673B, offset: 0x1673B, size: 0x8, addend: 0x0, symName: __ZNSt3__116allocator_traitsINS_9allocatorIiEEE7destroyB8ue170006IivvEEvRS2_PT_, symObjAddr: 0x25D0, symBinAddr: 0x100006288, symSize: 0x28 }
  - { offsetInCU: 0x16776, offset: 0x16776, size: 0x8, addend: 0x0, symName: __ZNKSt3__16vectorIiNS_9allocatorIiEEE31__annotate_contiguous_containerB8ue170006EPKvS5_S5_S5_, symObjAddr: 0x260C, symBinAddr: 0x1000062C4, symSize: 0x20 }
  - { offsetInCU: 0x167CC, offset: 0x167CC, size: 0x8, addend: 0x0, symName: __ZNKSt3__16vectorIiNS_9allocatorIiEEE4dataB8ue170006Ev, symObjAddr: 0x262C, symBinAddr: 0x1000062E4, symSize: 0x28 }
  - { offsetInCU: 0x167F2, offset: 0x167F2, size: 0x8, addend: 0x0, symName: __ZNKSt3__16vectorIiNS_9allocatorIiEEE4sizeB8ue170006Ev, symObjAddr: 0x2654, symBinAddr: 0x10000630C, symSize: 0x28 }
  - { offsetInCU: 0x16818, offset: 0x16818, size: 0x8, addend: 0x0, symName: __ZNSt3__19allocatorIiE10deallocateB8ue170006EPim, symObjAddr: 0x267C, symBinAddr: 0x100006334, symSize: 0x40 }
  - { offsetInCU: 0x1685A, offset: 0x1685A, size: 0x8, addend: 0x0, symName: __ZNSt3__117__compressed_pairIPiNS_9allocatorIiEEE6secondB8ue170006Ev, symObjAddr: 0x26BC, symBinAddr: 0x100006374, symSize: 0x24 }
  - { offsetInCU: 0x16880, offset: 0x16880, size: 0x8, addend: 0x0, symName: __ZNSt3__122__compressed_pair_elemINS_9allocatorIiEELi1ELb1EE5__getB8ue170006Ev, symObjAddr: 0x26E0, symBinAddr: 0x100006398, symSize: 0x14 }
  - { offsetInCU: 0x168A6, offset: 0x168A6, size: 0x8, addend: 0x0, symName: __ZNKSt3__16vectorIiNS_9allocatorIiEEE9__end_capB8ue170006Ev, symObjAddr: 0x26F4, symBinAddr: 0x1000063AC, symSize: 0x28 }
  - { offsetInCU: 0x168CC, offset: 0x168CC, size: 0x8, addend: 0x0, symName: __ZNKSt3__117__compressed_pairIPiNS_9allocatorIiEEE5firstB8ue170006Ev, symObjAddr: 0x271C, symBinAddr: 0x1000063D4, symSize: 0x24 }
  - { offsetInCU: 0x168F2, offset: 0x168F2, size: 0x8, addend: 0x0, symName: __ZNKSt3__122__compressed_pair_elemIPiLi0ELb0EE5__getB8ue170006Ev, symObjAddr: 0x2740, symBinAddr: 0x1000063F8, symSize: 0x14 }
  - { offsetInCU: 0x16918, offset: 0x16918, size: 0x8, addend: 0x0, symName: __ZNSt3__112__value_typeINS_12basic_stringIcNS_11char_traitsIcEENS_9allocatorIcEEEENS_6vectorIiNS4_IiEEEEE11__get_valueB8ue170006Ev, symObjAddr: 0x2754, symBinAddr: 0x10000640C, symSize: 0x24 }
  - { offsetInCU: 0x1693E, offset: 0x1693E, size: 0x8, addend: 0x0, symName: __ZNSt3__19allocatorINS_11__tree_nodeINS_12__value_typeINS_12basic_stringIcNS_11char_traitsIcEENS0_IcEEEENS_6vectorIiNS0_IiEEEEEEPvEEE10deallocateB8ue170006EPSD_m, symObjAddr: 0x27B0, symBinAddr: 0x100006468, symSize: 0x44 }
  - { offsetInCU: 0x16980, offset: 0x16980, size: 0x8, addend: 0x0, symName: __ZNKSt3__16__treeINS_12__value_typeINS_12basic_stringIcNS_11char_traitsIcEENS_9allocatorIcEEEENS_6vectorIiNS5_IiEEEEEENS_19__map_value_compareIS7_SB_NS_4lessIS7_EELb1EEENS5_ISB_EEE10__end_nodeB8ue170006Ev, symObjAddr: 0x27F4, symBinAddr: 0x1000064AC, symSize: 0x2C }
  - { offsetInCU: 0x169A6, offset: 0x169A6, size: 0x8, addend: 0x0, symName: __ZNKSt3__117__compressed_pairINS_15__tree_end_nodeIPNS_16__tree_node_baseIPvEEEENS_9allocatorINS_11__tree_nodeINS_12__value_typeINS_12basic_stringIcNS_11char_traitsIcEENS7_IcEEEENS_6vectorIiNS7_IiEEEEEES3_EEEEE5firstB8ue170006Ev, symObjAddr: 0x2820, symBinAddr: 0x1000064D8, symSize: 0x24 }
  - { offsetInCU: 0x169CC, offset: 0x169CC, size: 0x8, addend: 0x0, symName: __ZNSt3__16vectorINS_12basic_stringIcNS_11char_traitsIcEENS_9allocatorIcEEEENS4_IS6_EEED2B8ue170006Ev, symObjAddr: 0x2844, symBinAddr: 0x1000064FC, symSize: 0x44 }
  - { offsetInCU: 0x169F6, offset: 0x169F6, size: 0x8, addend: 0x0, symName: __ZNSt3__16vectorINS_12basic_stringIcNS_11char_traitsIcEENS_9allocatorIcEEEENS4_IS6_EEE16__destroy_vectorC1B8ue170006ERS8_, symObjAddr: 0x2888, symBinAddr: 0x100006540, symSize: 0x34 }
  - { offsetInCU: 0x16A2F, offset: 0x16A2F, size: 0x8, addend: 0x0, symName: __ZNSt3__16vectorINS_12basic_stringIcNS_11char_traitsIcEENS_9allocatorIcEEEENS4_IS6_EEE16__destroy_vectorclB8ue170006Ev, symObjAddr: 0x28BC, symBinAddr: 0x100006574, symSize: 0x90 }
  - { offsetInCU: 0x16A55, offset: 0x16A55, size: 0x8, addend: 0x0, symName: __ZNSt3__16vectorINS_12basic_stringIcNS_11char_traitsIcEENS_9allocatorIcEEEENS4_IS6_EEE16__destroy_vectorC2B8ue170006ERS8_, symObjAddr: 0x294C, symBinAddr: 0x100006604, symSize: 0x20 }
  - { offsetInCU: 0x16A8E, offset: 0x16A8E, size: 0x8, addend: 0x0, symName: __ZNSt3__16vectorINS_12basic_stringIcNS_11char_traitsIcEENS_9allocatorIcEEEENS4_IS6_EEE7__clearB8ue170006Ev, symObjAddr: 0x296C, symBinAddr: 0x100006624, symSize: 0x28 }
  - { offsetInCU: 0x16AB4, offset: 0x16AB4, size: 0x8, addend: 0x0, symName: __ZNKSt3__16vectorINS_12basic_stringIcNS_11char_traitsIcEENS_9allocatorIcEEEENS4_IS6_EEE17__annotate_deleteB8ue170006Ev, symObjAddr: 0x2994, symBinAddr: 0x10000664C, symSize: 0xD4 }
  - { offsetInCU: 0x16ADA, offset: 0x16ADA, size: 0x8, addend: 0x0, symName: __ZNSt3__116allocator_traitsINS_9allocatorINS_12basic_stringIcNS_11char_traitsIcEENS1_IcEEEEEEE10deallocateB8ue170006ERS7_PS6_m, symObjAddr: 0x2A68, symBinAddr: 0x100006720, symSize: 0x34 }
  - { offsetInCU: 0x16B1C, offset: 0x16B1C, size: 0x8, addend: 0x0, symName: __ZNSt3__16vectorINS_12basic_stringIcNS_11char_traitsIcEENS_9allocatorIcEEEENS4_IS6_EEE7__allocB8ue170006Ev, symObjAddr: 0x2A9C, symBinAddr: 0x100006754, symSize: 0x28 }
  - { offsetInCU: 0x16B42, offset: 0x16B42, size: 0x8, addend: 0x0, symName: __ZNKSt3__16vectorINS_12basic_stringIcNS_11char_traitsIcEENS_9allocatorIcEEEENS4_IS6_EEE8capacityB8ue170006Ev, symObjAddr: 0x2AC4, symBinAddr: 0x10000677C, symSize: 0x40 }
  - { offsetInCU: 0x16B68, offset: 0x16B68, size: 0x8, addend: 0x0, symName: __ZNSt3__16vectorINS_12basic_stringIcNS_11char_traitsIcEENS_9allocatorIcEEEENS4_IS6_EEE22__base_destruct_at_endB8ue170006EPS6_, symObjAddr: 0x2B04, symBinAddr: 0x1000067BC, symSize: 0x8C }
  - { offsetInCU: 0x16BAC, offset: 0x16BAC, size: 0x8, addend: 0x0, symName: __ZNSt3__116allocator_traitsINS_9allocatorINS_12basic_stringIcNS_11char_traitsIcEENS1_IcEEEEEEE7destroyB8ue170006IS6_vvEEvRS7_PT_, symObjAddr: 0x2B90, symBinAddr: 0x100006848, symSize: 0x28 }
  - { offsetInCU: 0x16BE7, offset: 0x16BE7, size: 0x8, addend: 0x0, symName: __ZNKSt3__16vectorINS_12basic_stringIcNS_11char_traitsIcEENS_9allocatorIcEEEENS4_IS6_EEE31__annotate_contiguous_containerB8ue170006EPKvSA_SA_SA_, symObjAddr: 0x2BCC, symBinAddr: 0x100006884, symSize: 0x20 }
  - { offsetInCU: 0x16C3D, offset: 0x16C3D, size: 0x8, addend: 0x0, symName: __ZNKSt3__16vectorINS_12basic_stringIcNS_11char_traitsIcEENS_9allocatorIcEEEENS4_IS6_EEE4dataB8ue170006Ev, symObjAddr: 0x2BEC, symBinAddr: 0x1000068A4, symSize: 0x28 }
  - { offsetInCU: 0x16C63, offset: 0x16C63, size: 0x8, addend: 0x0, symName: __ZNKSt3__16vectorINS_12basic_stringIcNS_11char_traitsIcEENS_9allocatorIcEEEENS4_IS6_EEE4sizeB8ue170006Ev, symObjAddr: 0x2C14, symBinAddr: 0x1000068CC, symSize: 0x28 }
  - { offsetInCU: 0x16C89, offset: 0x16C89, size: 0x8, addend: 0x0, symName: __ZNSt3__19allocatorINS_12basic_stringIcNS_11char_traitsIcEENS0_IcEEEEE10deallocateB8ue170006EPS5_m, symObjAddr: 0x2C3C, symBinAddr: 0x1000068F4, symSize: 0x44 }
  - { offsetInCU: 0x16CCB, offset: 0x16CCB, size: 0x8, addend: 0x0, symName: __ZNSt3__117__compressed_pairIPNS_12basic_stringIcNS_11char_traitsIcEENS_9allocatorIcEEEENS4_IS6_EEE6secondB8ue170006Ev, symObjAddr: 0x2C80, symBinAddr: 0x100006938, symSize: 0x24 }
  - { offsetInCU: 0x16CF1, offset: 0x16CF1, size: 0x8, addend: 0x0, symName: __ZNSt3__122__compressed_pair_elemINS_9allocatorINS_12basic_stringIcNS_11char_traitsIcEENS1_IcEEEEEELi1ELb1EE5__getB8ue170006Ev, symObjAddr: 0x2CA4, symBinAddr: 0x10000695C, symSize: 0x14 }
  - { offsetInCU: 0x16D17, offset: 0x16D17, size: 0x8, addend: 0x0, symName: __ZNKSt3__16vectorINS_12basic_stringIcNS_11char_traitsIcEENS_9allocatorIcEEEENS4_IS6_EEE9__end_capB8ue170006Ev, symObjAddr: 0x2CB8, symBinAddr: 0x100006970, symSize: 0x28 }
  - { offsetInCU: 0x16D3D, offset: 0x16D3D, size: 0x8, addend: 0x0, symName: __ZNKSt3__117__compressed_pairIPNS_12basic_stringIcNS_11char_traitsIcEENS_9allocatorIcEEEENS4_IS6_EEE5firstB8ue170006Ev, symObjAddr: 0x2CE0, symBinAddr: 0x100006998, symSize: 0x24 }
  - { offsetInCU: 0x16D63, offset: 0x16D63, size: 0x8, addend: 0x0, symName: __ZNKSt3__122__compressed_pair_elemIPNS_12basic_stringIcNS_11char_traitsIcEENS_9allocatorIcEEEELi0ELb0EE5__getB8ue170006Ev, symObjAddr: 0x2D04, symBinAddr: 0x1000069BC, symSize: 0x14 }
  - { offsetInCU: 0x16DA7, offset: 0x16DA7, size: 0x8, addend: 0x0, symName: __ZNKSt3__113basic_ostreamIcNS_11char_traitsIcEEE6sentrycvbB8ue170006Ev, symObjAddr: 0x2F04, symBinAddr: 0x100006BBC, symSize: 0x1C }
  - { offsetInCU: 0x16DCD, offset: 0x16DCD, size: 0x8, addend: 0x0, symName: __ZNSt3__119ostreambuf_iteratorIcNS_11char_traitsIcEEEC1B8ue170006ERNS_13basic_ostreamIcS2_EE, symObjAddr: 0x3160, symBinAddr: 0x100006E18, symSize: 0x34 }
  - { offsetInCU: 0x16E05, offset: 0x16E05, size: 0x8, addend: 0x0, symName: __ZNKSt3__18ios_base5flagsB8ue170006Ev, symObjAddr: 0x3194, symBinAddr: 0x100006E4C, symSize: 0x18 }
  - { offsetInCU: 0x16E2D, offset: 0x16E2D, size: 0x8, addend: 0x0, symName: __ZNKSt3__19basic_iosIcNS_11char_traitsIcEEE4fillB8ue170006Ev, symObjAddr: 0x31AC, symBinAddr: 0x100006E64, symSize: 0x64 }
  - { offsetInCU: 0x16E55, offset: 0x16E55, size: 0x8, addend: 0x0, symName: __ZNKSt3__119ostreambuf_iteratorIcNS_11char_traitsIcEEE6failedB8ue170006Ev, symObjAddr: 0x3210, symBinAddr: 0x100006EC8, symSize: 0x24 }
  - { offsetInCU: 0x16E7B, offset: 0x16E7B, size: 0x8, addend: 0x0, symName: __ZNSt3__19basic_iosIcNS_11char_traitsIcEEE8setstateB8ue170006Ej, symObjAddr: 0x3234, symBinAddr: 0x100006EEC, symSize: 0x2C }
  - { offsetInCU: 0x16EB0, offset: 0x16EB0, size: 0x8, addend: 0x0, symName: __ZNKSt3__18ios_base5widthB8ue170006Ev, symObjAddr: 0x3260, symBinAddr: 0x100006F18, symSize: 0x18 }
  - { offsetInCU: 0x16ED8, offset: 0x16ED8, size: 0x8, addend: 0x0, symName: __ZNSt3__115basic_streambufIcNS_11char_traitsIcEEE5sputnB8ue170006EPKcl, symObjAddr: 0x3278, symBinAddr: 0x100006F30, symSize: 0x3C }
  - { offsetInCU: 0x16F1A, offset: 0x16F1A, size: 0x8, addend: 0x0, symName: __ZNSt3__112basic_stringIcNS_11char_traitsIcEENS_9allocatorIcEEEC1B8ue170006Emc, symObjAddr: 0x32B4, symBinAddr: 0x100006F6C, symSize: 0x3C }
  - { offsetInCU: 0x16F62, offset: 0x16F62, size: 0x8, addend: 0x0, symName: __ZNSt3__112basic_stringIcNS_11char_traitsIcEENS_9allocatorIcEEE4dataB8ue170006Ev, symObjAddr: 0x32F0, symBinAddr: 0x100006FA8, symSize: 0x28 }
  - { offsetInCU: 0x16F88, offset: 0x16F88, size: 0x8, addend: 0x0, symName: __ZNSt3__18ios_base5widthB8ue170006El, symObjAddr: 0x3318, symBinAddr: 0x100006FD0, symSize: 0x2C }
  - { offsetInCU: 0x16FCE, offset: 0x16FCE, size: 0x8, addend: 0x0, symName: __ZNSt3__112basic_stringIcNS_11char_traitsIcEENS_9allocatorIcEEEC2B8ue170006Emc, symObjAddr: 0x3344, symBinAddr: 0x100006FFC, symSize: 0x4C }
  - { offsetInCU: 0x17016, offset: 0x17016, size: 0x8, addend: 0x0, symName: __ZNSt3__112basic_stringIcNS_11char_traitsIcEENS_9allocatorIcEEE13__get_pointerB8ue170006Ev, symObjAddr: 0x33A4, symBinAddr: 0x10000705C, symSize: 0x54 }
  - { offsetInCU: 0x1703C, offset: 0x1703C, size: 0x8, addend: 0x0, symName: __ZNKSt3__112basic_stringIcNS_11char_traitsIcEENS_9allocatorIcEEE9__is_longB8ue170006Ev, symObjAddr: 0x33F8, symBinAddr: 0x1000070B0, symSize: 0x38 }
  - { offsetInCU: 0x17062, offset: 0x17062, size: 0x8, addend: 0x0, symName: __ZNSt3__112basic_stringIcNS_11char_traitsIcEENS_9allocatorIcEEE18__get_long_pointerB8ue170006Ev, symObjAddr: 0x3430, symBinAddr: 0x1000070E8, symSize: 0x28 }
  - { offsetInCU: 0x17088, offset: 0x17088, size: 0x8, addend: 0x0, symName: __ZNSt3__112basic_stringIcNS_11char_traitsIcEENS_9allocatorIcEEE19__get_short_pointerB8ue170006Ev, symObjAddr: 0x3458, symBinAddr: 0x100007110, symSize: 0x28 }
  - { offsetInCU: 0x170AE, offset: 0x170AE, size: 0x8, addend: 0x0, symName: __ZNKSt3__117__compressed_pairINS_12basic_stringIcNS_11char_traitsIcEENS_9allocatorIcEEE5__repES5_E5firstB8ue170006Ev, symObjAddr: 0x3480, symBinAddr: 0x100007138, symSize: 0x24 }
  - { offsetInCU: 0x170D4, offset: 0x170D4, size: 0x8, addend: 0x0, symName: __ZNKSt3__122__compressed_pair_elemINS_12basic_stringIcNS_11char_traitsIcEENS_9allocatorIcEEE5__repELi0ELb0EE5__getB8ue170006Ev, symObjAddr: 0x34A4, symBinAddr: 0x10000715C, symSize: 0x14 }
  - { offsetInCU: 0x170FA, offset: 0x170FA, size: 0x8, addend: 0x0, symName: __ZNSt3__117__compressed_pairINS_12basic_stringIcNS_11char_traitsIcEENS_9allocatorIcEEE5__repES5_E5firstB8ue170006Ev, symObjAddr: 0x34B8, symBinAddr: 0x100007170, symSize: 0x24 }
  - { offsetInCU: 0x17120, offset: 0x17120, size: 0x8, addend: 0x0, symName: __ZNSt3__122__compressed_pair_elemINS_12basic_stringIcNS_11char_traitsIcEENS_9allocatorIcEEE5__repELi0ELb0EE5__getB8ue170006Ev, symObjAddr: 0x34DC, symBinAddr: 0x100007194, symSize: 0x14 }
  - { offsetInCU: 0x17146, offset: 0x17146, size: 0x8, addend: 0x0, symName: __ZNSt3__114pointer_traitsIPcE10pointer_toB8ue170006ERc, symObjAddr: 0x34F0, symBinAddr: 0x1000071A8, symSize: 0x14 }
  - { offsetInCU: 0x17169, offset: 0x17169, size: 0x8, addend: 0x0, symName: __ZNSt3__119ostreambuf_iteratorIcNS_11char_traitsIcEEEC2B8ue170006ERNS_13basic_ostreamIcS2_EE, symObjAddr: 0x3504, symBinAddr: 0x1000071BC, symSize: 0x54 }
  - { offsetInCU: 0x171A1, offset: 0x171A1, size: 0x8, addend: 0x0, symName: __ZNKSt3__19basic_iosIcNS_11char_traitsIcEEE5rdbufB8ue170006Ev, symObjAddr: 0x3558, symBinAddr: 0x100007210, symSize: 0x24 }
  - { offsetInCU: 0x171C9, offset: 0x171C9, size: 0x8, addend: 0x0, symName: __ZNKSt3__18ios_base5rdbufB8ue170006Ev, symObjAddr: 0x357C, symBinAddr: 0x100007234, symSize: 0x18 }
  - { offsetInCU: 0x171EF, offset: 0x171EF, size: 0x8, addend: 0x0, symName: __ZNSt3__111char_traitsIcE11eq_int_typeB8ue170006Eii, symObjAddr: 0x3594, symBinAddr: 0x10000724C, symSize: 0x28 }
  - { offsetInCU: 0x17222, offset: 0x17222, size: 0x8, addend: 0x0, symName: __ZNSt3__111char_traitsIcE3eofB8ue170006Ev, symObjAddr: 0x35BC, symBinAddr: 0x100007274, symSize: 0x8 }
  - { offsetInCU: 0x17236, offset: 0x17236, size: 0x8, addend: 0x0, symName: __ZNKSt3__19basic_iosIcNS_11char_traitsIcEEE5widenB8ue170006Ec, symObjAddr: 0x35C4, symBinAddr: 0x10000727C, symSize: 0x84 }
  - { offsetInCU: 0x172A4, offset: 0x172A4, size: 0x8, addend: 0x0, symName: __ZNKSt3__15ctypeIcE5widenB8ue170006Ec, symObjAddr: 0x3674, symBinAddr: 0x10000732C, symSize: 0x38 }
  - { offsetInCU: 0x172D9, offset: 0x172D9, size: 0x8, addend: 0x0, symName: __ZNSt3__18ios_base8setstateB8ue170006Ej, symObjAddr: 0x36AC, symBinAddr: 0x100007364, symSize: 0x34 }
  - { offsetInCU: 0x5C, offset: 0x174B0, size: 0x8, addend: 0x0, symName: __ZNSt3__119piecewise_constructE, symObjAddr: 0x21B1C, symBinAddr: 0x100026BC6, symSize: 0x0 }
  - { offsetInCU: 0x97, offset: 0x174EB, size: 0x8, addend: 0x0, symName: __ZNSt3__16ranges5__cpo9iter_moveE, symObjAddr: 0x21B1D, symBinAddr: 0x100026BC7, symSize: 0x0 }
  - { offsetInCU: 0x148B6, offset: 0x2BD0A, size: 0x8, addend: 0x0, symName: __ZNSt3__17advanceB8ue170006IPNS_12basic_stringIcNS_11char_traitsIcEENS_9allocatorIcEEEEllvEEvRT_T0_, symObjAddr: 0x8660, symBinAddr: 0x10000E934, symSize: 0x38 }
  - { offsetInCU: 0x14B36, offset: 0x2BF8A, size: 0x8, addend: 0x0, symName: __ZNSt3__17advanceB8ue170006INS_16reverse_iteratorIPNS_12basic_stringIcNS_11char_traitsIcEENS_9allocatorIcEEEEEEllvEEvRT_T0_, symObjAddr: 0x8A5C, symBinAddr: 0x10000ED08, symSize: 0x38 }
  - { offsetInCU: 0x2B497, offset: 0x428EB, size: 0x8, addend: 0x0, symName: __ZNSt3__1neB8ue170006ERKNS_20__map_const_iteratorINS_21__tree_const_iteratorINS_12__value_typeIiNS_3setINS_4pairIiNS_12basic_stringIcNS_11char_traitsIcEENS_9allocatorIcEEEEEENS_4lessISB_EENS8_ISB_EEEEEEPNS_11__tree_nodeISG_PvEElEEEESO_, symObjAddr: 0x254, symBinAddr: 0x1000075EC, symSize: 0x30 }
  - { offsetInCU: 0x2B4D4, offset: 0x42928, size: 0x8, addend: 0x0, symName: __ZNSt3__13getB8ue170006ILm0EKiNS_3setINS_4pairIiNS_12basic_stringIcNS_11char_traitsIcEENS_9allocatorIcEEEEEENS_4lessISA_EENS7_ISA_EEEEEERKNS_13tuple_elementIXT_ENS3_IT0_T1_EEE4typeERKSI_, symObjAddr: 0x2AC, symBinAddr: 0x100007644, symSize: 0x24 }
  - { offsetInCU: 0x2B51E, offset: 0x42972, size: 0x8, addend: 0x0, symName: __ZNSt3__13getB8ue170006ILm1EKiNS_3setINS_4pairIiNS_12basic_stringIcNS_11char_traitsIcEENS_9allocatorIcEEEEEENS_4lessISA_EENS7_ISA_EEEEEERKNS_13tuple_elementIXT_ENS3_IT0_T1_EEE4typeERKSI_, symObjAddr: 0x2D0, symBinAddr: 0x100007668, symSize: 0x24 }
  - { offsetInCU: 0x2B568, offset: 0x429BC, size: 0x8, addend: 0x0, symName: __ZNSt3__1neB8ue170006ERKNS_21__tree_const_iteratorINS_4pairIiNS_12basic_stringIcNS_11char_traitsIcEENS_9allocatorIcEEEEEEPNS_11__tree_nodeIS8_PvEElEESF_, symObjAddr: 0x34C, symBinAddr: 0x1000076E4, symSize: 0x34 }
  - { offsetInCU: 0x2B5A5, offset: 0x429F9, size: 0x8, addend: 0x0, symName: __ZNSt3__1eqB8ue170006INS_9allocatorIcEEEEbRKNS_12basic_stringIcNS_11char_traitsIcEET_EES9_, symObjAddr: 0x3A8, symBinAddr: 0x100007740, symSize: 0x148 }
  - { offsetInCU: 0x2C413, offset: 0x43867, size: 0x8, addend: 0x0, symName: __ZNSt3__1rsB8ue170006IcNS_11char_traitsIcEENS_9allocatorIcEEEERNS_13basic_istreamIT_T0_EES9_RNS_12basic_stringIS6_S7_T1_EE, symObjAddr: 0xD58, symBinAddr: 0x1000080C4, symSize: 0x31C }
  - { offsetInCU: 0x2C4E2, offset: 0x43936, size: 0x8, addend: 0x0, symName: __ZNSt3__19make_pairB8ue170006IRNS_12basic_stringIcNS_11char_traitsIcEENS_9allocatorIcEEEES7_EENS_4pairINS_18__unwrap_ref_decayIT_E4typeENS9_IT0_E4typeEEEOSA_OSD_, symObjAddr: 0x1564, symBinAddr: 0x100008820, symSize: 0x40 }
  - { offsetInCU: 0x2C747, offset: 0x43B9B, size: 0x8, addend: 0x0, symName: __ZNSt3__1neB8ue170006ERKNS_21__list_const_iteratorINS_12basic_stringIcNS_11char_traitsIcEENS_9allocatorIcEEEEPvEESA_, symObjAddr: 0x1CC4, symBinAddr: 0x100008E78, symSize: 0x34 }
  - { offsetInCU: 0x2C784, offset: 0x43BD8, size: 0x8, addend: 0x0, symName: __ZNSt3__1neB8ue170006ERKNS_21__tree_const_iteratorINS_4pairINS_12basic_stringIcNS_11char_traitsIcEENS_9allocatorIcEEEES7_EEPNS_11__tree_nodeIS8_PvEElEESF_, symObjAddr: 0x21F0, symBinAddr: 0x1000093A4, symSize: 0x34 }
  - { offsetInCU: 0x2E2DE, offset: 0x45732, size: 0x8, addend: 0x0, symName: __ZNSt3__1neB8ue170006ERKNS_15__list_iteratorINS_4pairINS_12basic_stringIcNS_11char_traitsIcEENS_9allocatorIcEEEEiEEPvEESC_, symObjAddr: 0x322C, symBinAddr: 0x10000A3E0, symSize: 0x34 }
  - { offsetInCU: 0x2E31B, offset: 0x4576F, size: 0x8, addend: 0x0, symName: __ZNSt3__1eqB8ue170006IcNS_11char_traitsIcEENS_9allocatorIcEEEEbRKNS_12basic_stringIT_T0_T1_EEPKS6_, symObjAddr: 0x3870, symBinAddr: 0x10000A9FC, symSize: 0x5C }
  - { offsetInCU: 0x2F025, offset: 0x46479, size: 0x8, addend: 0x0, symName: __ZNSt3__1neB8ue170006IPKNS_12basic_stringIcNS_11char_traitsIcEENS_9allocatorIcEEEEEEbRKNS_11__wrap_iterIT_EESD_, symObjAddr: 0x4404, symBinAddr: 0x10000B590, symSize: 0x34 }
  - { offsetInCU: 0x2F0E2, offset: 0x46536, size: 0x8, addend: 0x0, symName: __ZNSt3__112__to_addressB8ue170006IKcEEPT_S3_, symObjAddr: 0x4818, symBinAddr: 0x10000B928, symSize: 0x14 }
  - { offsetInCU: 0x2F171, offset: 0x465C5, size: 0x8, addend: 0x0, symName: __ZNSt3__112construct_atB8ue170006IiJRKiEPiEEPT_S5_DpOT0_, symObjAddr: 0x4BC4, symBinAddr: 0x10000BC98, symSize: 0x2C }
  - { offsetInCU: 0x2F1E3, offset: 0x46637, size: 0x8, addend: 0x0, symName: __ZNSt3__13maxB8ue170006ImEERKT_S3_S3_, symObjAddr: 0x4F60, symBinAddr: 0x10000BF94, symSize: 0x2C }
  - { offsetInCU: 0x2F226, offset: 0x4667A, size: 0x8, addend: 0x0, symName: __ZNSt3__13minB8ue170006ImEERKT_S3_S3_, symObjAddr: 0x4F8C, symBinAddr: 0x10000BFC0, symSize: 0x2C }
  - { offsetInCU: 0x2F453, offset: 0x468A7, size: 0x8, addend: 0x0, symName: __ZNSt3__13minB8ue170006ImNS_6__lessIvvEEEERKT_S5_S5_T0_, symObjAddr: 0x501C, symBinAddr: 0x10000C050, symSize: 0x54 }
  - { offsetInCU: 0x2F4F5, offset: 0x46949, size: 0x8, addend: 0x0, symName: __ZNSt3__120__throw_length_errorB8ue170006EPKc, symObjAddr: 0x5100, symBinAddr: 0x10000C134, symSize: 0x64 }
  - { offsetInCU: 0x2F51F, offset: 0x46973, size: 0x8, addend: 0x0, symName: __ZNSt3__13maxB8ue170006ImNS_6__lessIvvEEEERKT_S5_S5_T0_, symObjAddr: 0x5244, symBinAddr: 0x10000C218, symSize: 0x54 }
  - { offsetInCU: 0x2F579, offset: 0x469CD, size: 0x8, addend: 0x0, symName: __ZNSt3__119__allocate_at_leastB8ue170006INS_9allocatorIiEEEENS_19__allocation_resultINS_16allocator_traitsIT_E7pointerEEERS5_m, symObjAddr: 0x53A8, symBinAddr: 0x10000C37C, symSize: 0x40 }
  - { offsetInCU: 0x2F5BC, offset: 0x46A10, size: 0x8, addend: 0x0, symName: __ZNSt3__117__libcpp_allocateB8ue170006Emm, symObjAddr: 0x552C, symBinAddr: 0x10000C500, symSize: 0x60 }
  - { offsetInCU: 0x2F616, offset: 0x46A6A, size: 0x8, addend: 0x0, symName: __ZNSt3__121__libcpp_operator_newB8ue170006IJmSt11align_val_tEEEPvDpT_, symObjAddr: 0x55AC, symBinAddr: 0x10000C560, symSize: 0x2C }
  - { offsetInCU: 0x2F663, offset: 0x46AB7, size: 0x8, addend: 0x0, symName: __ZNSt3__121__libcpp_operator_newB8ue170006IJmEEEPvDpT_, symObjAddr: 0x55D8, symBinAddr: 0x10000C58C, symSize: 0x24 }
  - { offsetInCU: 0x2F69C, offset: 0x46AF0, size: 0x8, addend: 0x0, symName: __ZNSt3__142__uninitialized_allocator_move_if_noexceptB8ue170006INS_9allocatorIiEENS_16reverse_iteratorIPiEES5_ivEET1_RT_T0_S9_S6_, symObjAddr: 0x5718, symBinAddr: 0x10000C614, symSize: 0x78 }
  - { offsetInCU: 0x2F71A, offset: 0x46B6E, size: 0x8, addend: 0x0, symName: __ZNSt3__14swapB8ue170006IPiEENS_9enable_ifIXaasr21is_move_constructibleIT_EE5valuesr18is_move_assignableIS3_EE5valueEvE4typeERS3_S6_, symObjAddr: 0x57DC, symBinAddr: 0x10000C6D8, symSize: 0x3C }
  - { offsetInCU: 0x2F76B, offset: 0x46BBF, size: 0x8, addend: 0x0, symName: __ZNSt3__14moveB8ue170006INS_16reverse_iteratorIPiEES3_EET0_T_S5_S4_, symObjAddr: 0x590C, symBinAddr: 0x10000C7C0, symSize: 0x78 }
  - { offsetInCU: 0x2F7C5, offset: 0x46C19, size: 0x8, addend: 0x0, symName: __ZNSt3__16__moveB8ue170006INS_17_ClassicAlgPolicyENS_16reverse_iteratorIPiEES4_S4_EENS_4pairIT0_T2_EES6_T1_S7_, symObjAddr: 0x5984, symBinAddr: 0x10000C838, symSize: 0x64 }
  - { offsetInCU: 0x2F831, offset: 0x46C85, size: 0x8, addend: 0x0, symName: __ZNSt3__123__dispatch_copy_or_moveB8ue170006INS_17_ClassicAlgPolicyENS_11__move_loopIS1_EENS_14__move_trivialENS_16reverse_iteratorIPiEES7_S7_EENS_4pairIT2_T4_EES9_T3_SA_, symObjAddr: 0x59E8, symBinAddr: 0x10000C89C, symSize: 0x64 }
  - { offsetInCU: 0x2F8AF, offset: 0x46D03, size: 0x8, addend: 0x0, symName: __ZNSt3__121__unwrap_and_dispatchB8ue170006INS_10__overloadINS_11__move_loopINS_17_ClassicAlgPolicyEEENS_14__move_trivialEEENS_16reverse_iteratorIPiEES9_S9_Li0EEENS_4pairIT0_T2_EESB_T1_SC_, symObjAddr: 0x5A4C, symBinAddr: 0x10000C900, symSize: 0x12C }
  - { offsetInCU: 0x2F93F, offset: 0x46D93, size: 0x8, addend: 0x0, symName: __ZNSt3__114__unwrap_rangeB8ue170006INS_16reverse_iteratorIPiEES3_EEDaT_T0_, symObjAddr: 0x5B78, symBinAddr: 0x10000CA2C, symSize: 0x4C }
  - { offsetInCU: 0x2FABB, offset: 0x46F0F, size: 0x8, addend: 0x0, symName: __ZNSt3__113__unwrap_iterB8ue170006INS_16reverse_iteratorIPiEENS_18__unwrap_iter_implIS3_Lb0EEELi0EEEDTclsrT0_8__unwrapclsr3stdE7declvalIT_EEEES7_, symObjAddr: 0x5C64, symBinAddr: 0x10000CB18, symSize: 0x44 }
  - { offsetInCU: 0x2FAFF, offset: 0x46F53, size: 0x8, addend: 0x0, symName: __ZNSt3__19make_pairB8ue170006INS_16reverse_iteratorIPiEES3_EENS_4pairINS_18__unwrap_ref_decayIT_E4typeENS5_IT0_E4typeEEEOS6_OS9_, symObjAddr: 0x5CA8, symBinAddr: 0x10000CB5C, symSize: 0x38 }
  - { offsetInCU: 0x2FB4E, offset: 0x46FA2, size: 0x8, addend: 0x0, symName: __ZNSt3__114__rewrap_rangeB8ue170006INS_16reverse_iteratorIPiEES3_S3_EET0_S4_T1_, symObjAddr: 0x5CE0, symBinAddr: 0x10000CB94, symSize: 0x5C }
  - { offsetInCU: 0x2FBA3, offset: 0x46FF7, size: 0x8, addend: 0x0, symName: __ZNSt3__113__rewrap_iterB8ue170006INS_16reverse_iteratorIPiEES3_NS_18__unwrap_iter_implIS3_Lb0EEEEET_S6_T0_, symObjAddr: 0x5D3C, symBinAddr: 0x10000CBF0, symSize: 0x74 }
  - { offsetInCU: 0x2FC48, offset: 0x4709C, size: 0x8, addend: 0x0, symName: __ZNSt3__1neB8ue170006IPiS1_EEbRKNS_16reverse_iteratorIT_EERKNS2_IT0_EE, symObjAddr: 0x5EA4, symBinAddr: 0x10000CD58, symSize: 0x48 }
  - { offsetInCU: 0x2FD6E, offset: 0x471C2, size: 0x8, addend: 0x0, symName: __ZNSt3__112construct_atB8ue170006INS_12basic_stringIcNS_11char_traitsIcEENS_9allocatorIcEEEEJRKS6_EPS6_EEPT_SB_DpOT0_, symObjAddr: 0x77D8, symBinAddr: 0x10000DCA0, symSize: 0x3C }
  - { offsetInCU: 0x2FDE0, offset: 0x47234, size: 0x8, addend: 0x0, symName: __ZNSt3__119__allocate_at_leastB8ue170006INS_9allocatorINS_12basic_stringIcNS_11char_traitsIcEENS1_IcEEEEEEEENS_19__allocation_resultINS_16allocator_traitsIT_E7pointerEEERSA_m, symObjAddr: 0x7D60, symBinAddr: 0x10000E150, symSize: 0x40 }
  - { offsetInCU: 0x2FE23, offset: 0x47277, size: 0x8, addend: 0x0, symName: __ZNSt3__142__uninitialized_allocator_move_if_noexceptB8ue170006INS_9allocatorINS_12basic_stringIcNS_11char_traitsIcEENS1_IcEEEEEENS_16reverse_iteratorIPS6_EESA_SA_EET2_RT_T0_T1_SB_, symObjAddr: 0x7FEC, symBinAddr: 0x10000E308, symSize: 0x12C }
  - { offsetInCU: 0x2FEC3, offset: 0x47317, size: 0x8, addend: 0x0, symName: __ZNSt3__14swapB8ue170006IPNS_12basic_stringIcNS_11char_traitsIcEENS_9allocatorIcEEEEEENS_9enable_ifIXaasr21is_move_constructibleIT_EE5valuesr18is_move_assignableIS9_EE5valueEvE4typeERS9_SC_, symObjAddr: 0x8164, symBinAddr: 0x10000E480, symSize: 0x3C }
  - { offsetInCU: 0x2FF14, offset: 0x47368, size: 0x8, addend: 0x0, symName: __ZNSt3__122__make_exception_guardB8ue170006INS_29_AllocatorDestroyRangeReverseINS_9allocatorINS_12basic_stringIcNS_11char_traitsIcEENS2_IcEEEEEENS_16reverse_iteratorIPS7_EEEEEENS_28__exception_guard_exceptionsIT_EESE_, symObjAddr: 0x82B0, symBinAddr: 0x10000E584, symSize: 0x4C }
  - { offsetInCU: 0x2FF4A, offset: 0x4739E, size: 0x8, addend: 0x0, symName: __ZNSt3__1neB8ue170006IPNS_12basic_stringIcNS_11char_traitsIcEENS_9allocatorIcEEEES7_EEbRKNS_16reverse_iteratorIT_EERKNS8_IT0_EE, symObjAddr: 0x8340, symBinAddr: 0x10000E614, symSize: 0x48 }
  - { offsetInCU: 0x2FF96, offset: 0x473EA, size: 0x8, addend: 0x0, symName: __ZNSt3__112__to_addressB8ue170006INS_16reverse_iteratorIPNS_12basic_stringIcNS_11char_traitsIcEENS_9allocatorIcEEEEEEvEEu7__decayIDTclsr19__to_address_helperIT_EE6__callclsr3stdE7declvalIRKSA_EEEEESC_, symObjAddr: 0x83B8, symBinAddr: 0x10000E68C, symSize: 0x24 }
  - { offsetInCU: 0x2FFCC, offset: 0x47420, size: 0x8, addend: 0x0, symName: __ZNSt3__112construct_atB8ue170006INS_12basic_stringIcNS_11char_traitsIcEENS_9allocatorIcEEEEJS6_EPS6_EEPT_S9_DpOT0_, symObjAddr: 0x8508, symBinAddr: 0x10000E7DC, symSize: 0x3C }
  - { offsetInCU: 0x30068, offset: 0x474BC, size: 0x8, addend: 0x0, symName: __ZNSt3__14prevB8ue170006IPNS_12basic_stringIcNS_11char_traitsIcEENS_9allocatorIcEEEEEENS_9enable_ifIXsr29__has_input_iterator_categoryIT_EE5valueES9_E4typeES9_NS_15iterator_traitsIS9_E15difference_typeE, symObjAddr: 0x8624, symBinAddr: 0x10000E8F8, symSize: 0x3C }
  - { offsetInCU: 0x300AB, offset: 0x474FF, size: 0x8, addend: 0x0, symName: __ZNSt3__121__convert_to_integralB8ue170006El, symObjAddr: 0x8698, symBinAddr: 0x10000E96C, symSize: 0x14 }
  - { offsetInCU: 0x300D8, offset: 0x4752C, size: 0x8, addend: 0x0, symName: __ZNSt3__19__advanceB8ue170006IPNS_12basic_stringIcNS_11char_traitsIcEENS_9allocatorIcEEEEEEvRT_NS_15iterator_traitsIS8_E15difference_typeENS_26random_access_iterator_tagE, symObjAddr: 0x86AC, symBinAddr: 0x10000E980, symSize: 0x30 }
  - { offsetInCU: 0x30122, offset: 0x47576, size: 0x8, addend: 0x0, symName: __ZNSt3__119__allocator_destroyB8ue170006INS_9allocatorINS_12basic_stringIcNS_11char_traitsIcEENS1_IcEEEEEENS_16reverse_iteratorINS8_IPS6_EEEESB_EEvRT_T0_T1_, symObjAddr: 0x87E0, symBinAddr: 0x10000EAB4, symSize: 0x70 }
  - { offsetInCU: 0x30186, offset: 0x475DA, size: 0x8, addend: 0x0, symName: __ZNSt3__1neB8ue170006INS_16reverse_iteratorIPNS_12basic_stringIcNS_11char_traitsIcEENS_9allocatorIcEEEEEES9_EEbRKNS1_IT_EERKNS1_IT0_EE, symObjAddr: 0x888C, symBinAddr: 0x10000EB60, symSize: 0x60 }
  - { offsetInCU: 0x301D2, offset: 0x47626, size: 0x8, addend: 0x0, symName: __ZNSt3__112__to_addressB8ue170006INS_16reverse_iteratorINS1_IPNS_12basic_stringIcNS_11char_traitsIcEENS_9allocatorIcEEEEEEEEvEEu7__decayIDTclsr19__to_address_helperIT_EE6__callclsr3stdE7declvalIRKSB_EEEEESD_, symObjAddr: 0x8914, symBinAddr: 0x10000EBC0, symSize: 0x24 }
  - { offsetInCU: 0x30232, offset: 0x47686, size: 0x8, addend: 0x0, symName: __ZNSt3__14prevB8ue170006INS_16reverse_iteratorIPNS_12basic_stringIcNS_11char_traitsIcEENS_9allocatorIcEEEEEEEENS_9enable_ifIXsr29__has_input_iterator_categoryIT_EE5valueESB_E4typeESB_NS_15iterator_traitsISB_E15difference_typeE, symObjAddr: 0x8A10, symBinAddr: 0x10000ECBC, symSize: 0x4C }
  - { offsetInCU: 0x30275, offset: 0x476C9, size: 0x8, addend: 0x0, symName: __ZNSt3__19__advanceB8ue170006INS_16reverse_iteratorIPNS_12basic_stringIcNS_11char_traitsIcEENS_9allocatorIcEEEEEEEEvRT_NS_15iterator_traitsISA_E15difference_typeENS_26random_access_iterator_tagE, symObjAddr: 0x8A94, symBinAddr: 0x10000ED40, symSize: 0x2C }
  - { offsetInCU: 0x302BF, offset: 0x47713, size: 0x8, addend: 0x0, symName: __ZNSt3__1neB8ue170006ERKNS_16__deque_iteratorINS_12basic_stringIcNS_11char_traitsIcEENS_9allocatorIcEEEEPS6_RS6_PS7_lLl170EEESC_, symObjAddr: 0x9740, symBinAddr: 0x10000F760, symSize: 0x34 }
  - { offsetInCU: 0x302FD, offset: 0x47751, size: 0x8, addend: 0x0, symName: __ZNSt3__1eqB8ue170006ERKNS_16__deque_iteratorINS_12basic_stringIcNS_11char_traitsIcEENS_9allocatorIcEEEEPS6_RS6_PS7_lLl170EEESC_, symObjAddr: 0x9A54, symBinAddr: 0x10000FA74, symSize: 0x30 }
  - { offsetInCU: 0x30339, offset: 0x4778D, size: 0x8, addend: 0x0, symName: __ZNSt3__112__to_addressB8ue170006IPNS_12basic_stringIcNS_11char_traitsIcEENS_9allocatorIcEEEEEEPT_S9_, symObjAddr: 0xA434, symBinAddr: 0x100010454, symSize: 0x14 }
  - { offsetInCU: 0x3036E, offset: 0x477C2, size: 0x8, addend: 0x0, symName: __ZNSt3__110destroy_atB8ue170006IPNS_12basic_stringIcNS_11char_traitsIcEENS_9allocatorIcEEEELi0EEEvPT_, symObjAddr: 0xA448, symBinAddr: 0x100010468, symSize: 0x24 }
  - { offsetInCU: 0x303A6, offset: 0x477FA, size: 0x8, addend: 0x0, symName: __ZNSt3__112__destroy_atB8ue170006IPNS_12basic_stringIcNS_11char_traitsIcEENS_9allocatorIcEEEELi0EEEvPT_, symObjAddr: 0xA46C, symBinAddr: 0x10001048C, symSize: 0x10 }
  - { offsetInCU: 0x303DC, offset: 0x47830, size: 0x8, addend: 0x0, symName: __ZNSt3__1neB8ue170006ERKNS_16__deque_iteratorINS_4pairINS_12basic_stringIcNS_11char_traitsIcEENS_9allocatorIcEEEEiEEPS8_RS8_PS9_lLl128EEESE_, symObjAddr: 0xAC18, symBinAddr: 0x100010C38, symSize: 0x34 }
  - { offsetInCU: 0x3041A, offset: 0x4786E, size: 0x8, addend: 0x0, symName: __ZNSt3__1eqB8ue170006ERKNS_16__deque_iteratorINS_4pairINS_12basic_stringIcNS_11char_traitsIcEENS_9allocatorIcEEEEiEEPS8_RS8_PS9_lLl128EEESE_, symObjAddr: 0xAF4C, symBinAddr: 0x100010F6C, symSize: 0x30 }
  - { offsetInCU: 0x30456, offset: 0x478AA, size: 0x8, addend: 0x0, symName: __ZNSt3__110destroy_atB8ue170006INS_4pairINS_12basic_stringIcNS_11char_traitsIcEENS_9allocatorIcEEEEiEELi0EEEvPT_, symObjAddr: 0xAF7C, symBinAddr: 0x100010F9C, symSize: 0x24 }
  - { offsetInCU: 0x3048D, offset: 0x478E1, size: 0x8, addend: 0x0, symName: __ZNSt3__112__destroy_atB8ue170006INS_4pairINS_12basic_stringIcNS_11char_traitsIcEENS_9allocatorIcEEEEiEELi0EEEvPT_, symObjAddr: 0xAFA0, symBinAddr: 0x100010FC0, symSize: 0x24 }
  - { offsetInCU: 0x304C4, offset: 0x47918, size: 0x8, addend: 0x0, symName: __ZNSt3__112__to_addressB8ue170006INS_4pairINS_12basic_stringIcNS_11char_traitsIcEENS_9allocatorIcEEEEiEEEEPT_SA_, symObjAddr: 0xB5FC, symBinAddr: 0x10001161C, symSize: 0x14 }
  - { offsetInCU: 0x304F9, offset: 0x4794D, size: 0x8, addend: 0x0, symName: __ZNSt3__112__to_addressB8ue170006IPNS_4pairINS_12basic_stringIcNS_11char_traitsIcEENS_9allocatorIcEEEEiEEEEPT_SB_, symObjAddr: 0xB9C4, symBinAddr: 0x1000119E4, symSize: 0x14 }
  - { offsetInCU: 0x3052E, offset: 0x47982, size: 0x8, addend: 0x0, symName: __ZNSt3__110destroy_atB8ue170006IPNS_4pairINS_12basic_stringIcNS_11char_traitsIcEENS_9allocatorIcEEEEiEELi0EEEvPT_, symObjAddr: 0xB9D8, symBinAddr: 0x1000119F8, symSize: 0x24 }
  - { offsetInCU: 0x30566, offset: 0x479BA, size: 0x8, addend: 0x0, symName: __ZNSt3__112__destroy_atB8ue170006IPNS_4pairINS_12basic_stringIcNS_11char_traitsIcEENS_9allocatorIcEEEEiEELi0EEEvPT_, symObjAddr: 0xB9FC, symBinAddr: 0x100011A1C, symSize: 0x10 }
  - { offsetInCU: 0x305CF, offset: 0x47A23, size: 0x8, addend: 0x0, symName: __ZNSt3__122__make_exception_guardB8ue170006INS_6vectorINS_12basic_stringIcNS_11char_traitsIcEENS_9allocatorIcEEEENS5_IS7_EEE16__destroy_vectorEEENS_28__exception_guard_exceptionsIT_EESC_, symObjAddr: 0xC0CC, symBinAddr: 0x1000120EC, symSize: 0x40 }
  - { offsetInCU: 0x30604, offset: 0x47A58, size: 0x8, addend: 0x0, symName: __ZNSt3__130__uninitialized_allocator_copyB8ue170006INS_9allocatorINS_12basic_stringIcNS_11char_traitsIcEENS1_IcEEEEEEPS6_S8_S8_EET2_RT_T0_T1_S9_, symObjAddr: 0xC2EC, symBinAddr: 0x10001230C, symSize: 0x80 }
  - { offsetInCU: 0x306A1, offset: 0x47AF5, size: 0x8, addend: 0x0, symName: __ZNSt3__114__unwrap_rangeB8ue170006IPNS_12basic_stringIcNS_11char_traitsIcEENS_9allocatorIcEEEES7_EEDaT_T0_, symObjAddr: 0xC36C, symBinAddr: 0x10001238C, symSize: 0x3C }
  - { offsetInCU: 0x306ED, offset: 0x47B41, size: 0x8, addend: 0x0, symName: __ZNSt3__135__uninitialized_allocator_copy_implB8ue170006INS_9allocatorINS_12basic_stringIcNS_11char_traitsIcEENS1_IcEEEEEEPS6_S8_S8_EET2_RT_T0_T1_S9_, symObjAddr: 0xC3A8, symBinAddr: 0x1000123C8, symSize: 0xF4 }
  - { offsetInCU: 0x3078B, offset: 0x47BDF, size: 0x8, addend: 0x0, symName: __ZNSt3__113__unwrap_iterB8ue170006IPNS_12basic_stringIcNS_11char_traitsIcEENS_9allocatorIcEEEENS_18__unwrap_iter_implIS7_Lb1EEELi0EEEDTclsrT0_8__unwrapclsr3stdE7declvalIT_EEEESB_, symObjAddr: 0xC49C, symBinAddr: 0x1000124BC, symSize: 0x24 }
  - { offsetInCU: 0x307CF, offset: 0x47C23, size: 0x8, addend: 0x0, symName: __ZNSt3__113__rewrap_iterB8ue170006IPNS_12basic_stringIcNS_11char_traitsIcEENS_9allocatorIcEEEES7_NS_18__unwrap_iter_implIS7_Lb1EEEEET_SA_T0_, symObjAddr: 0xC4C0, symBinAddr: 0x1000124E0, symSize: 0x3C }
  - { offsetInCU: 0x30927, offset: 0x47D7B, size: 0x8, addend: 0x0, symName: __ZNSt3__122__make_exception_guardB8ue170006INS_29_AllocatorDestroyRangeReverseINS_9allocatorINS_12basic_stringIcNS_11char_traitsIcEENS2_IcEEEEEEPS7_EEEENS_28__exception_guard_exceptionsIT_EESC_, symObjAddr: 0xC5C4, symBinAddr: 0x1000125E4, symSize: 0x4C }
  - { offsetInCU: 0x3095D, offset: 0x47DB1, size: 0x8, addend: 0x0, symName: __ZNSt3__112construct_atB8ue170006INS_12basic_stringIcNS_11char_traitsIcEENS_9allocatorIcEEEEJRS6_EPS6_EEPT_SA_DpOT0_, symObjAddr: 0xC768, symBinAddr: 0x100012788, symSize: 0x3C }
  - { offsetInCU: 0x309D0, offset: 0x47E24, size: 0x8, addend: 0x0, symName: __ZNSt3__119__allocator_destroyB8ue170006INS_9allocatorINS_12basic_stringIcNS_11char_traitsIcEENS1_IcEEEEEENS_16reverse_iteratorIPS6_EESA_EEvRT_T0_T1_, symObjAddr: 0xC85C, symBinAddr: 0x10001287C, symSize: 0x70 }
  - { offsetInCU: 0x30A86, offset: 0x47EDA, size: 0x8, addend: 0x0, symName: __ZNSt3__120__throw_out_of_rangeB8ue170006EPKc, symObjAddr: 0xC9AC, symBinAddr: 0x1000129CC, symSize: 0x64 }
  - { offsetInCU: 0x30AB0, offset: 0x47F04, size: 0x8, addend: 0x0, symName: __ZNSt3__1eqB8ue170006IcNS_11char_traitsIcEEEEbNS_17basic_string_viewIT_T0_EES6_, symObjAddr: 0xCBE4, symBinAddr: 0x100012B20, symSize: 0xB0 }
  - { offsetInCU: 0x30AFF, offset: 0x47F53, size: 0x8, addend: 0x0, symName: __ZNSt3__128__char_traits_length_checkedB8ue170006INS_11char_traitsIcEEEEmPKNT_9char_typeE, symObjAddr: 0xCF30, symBinAddr: 0x100012E6C, symSize: 0x24 }
  - { offsetInCU: 0x30B36, offset: 0x47F8A, size: 0x8, addend: 0x0, symName: __ZNSt3__1eqB8ue170006IPKNS_12basic_stringIcNS_11char_traitsIcEENS_9allocatorIcEEEEEEbRKNS_11__wrap_iterIT_EESD_, symObjAddr: 0xCFD8, symBinAddr: 0x100012F14, symSize: 0x48 }
  - { offsetInCU: 0x30B79, offset: 0x47FCD, size: 0x8, addend: 0x0, symName: __ZNSt3__1neB8ue170006ERKNS_21__tree_const_iteratorINS_12__value_typeIiNS_3setINS_4pairIiNS_12basic_stringIcNS_11char_traitsIcEENS_9allocatorIcEEEEEENS_4lessISA_EENS7_ISA_EEEEEEPNS_11__tree_nodeISF_PvEElEESM_, symObjAddr: 0xD1C0, symBinAddr: 0x1000130E8, symSize: 0x34 }
  - { offsetInCU: 0x30BB7, offset: 0x4800B, size: 0x8, addend: 0x0, symName: __ZNSt3__1eqB8ue170006ERKNS_21__tree_const_iteratorINS_12__value_typeIiNS_3setINS_4pairIiNS_12basic_stringIcNS_11char_traitsIcEENS_9allocatorIcEEEEEENS_4lessISA_EENS7_ISA_EEEEEEPNS_11__tree_nodeISF_PvEElEESM_, symObjAddr: 0xD1F4, symBinAddr: 0x10001311C, symSize: 0x30 }
  - { offsetInCU: 0x30BF3, offset: 0x48047, size: 0x8, addend: 0x0, symName: __ZNSt3__116__tree_next_iterB8ue170006IPNS_15__tree_end_nodeIPNS_16__tree_node_baseIPvEEEES5_EET_T0_, symObjAddr: 0xD25C, symBinAddr: 0x100013184, symSize: 0x90 }
  - { offsetInCU: 0x30C31, offset: 0x48085, size: 0x8, addend: 0x0, symName: __ZNSt3__110__tree_minB8ue170006IPNS_16__tree_node_baseIPvEEEET_S5_, symObjAddr: 0xD2EC, symBinAddr: 0x100013214, symSize: 0x40 }
  - { offsetInCU: 0x30C66, offset: 0x480BA, size: 0x8, addend: 0x0, symName: __ZNSt3__120__tree_is_left_childB8ue170006IPNS_16__tree_node_baseIPvEEEEbT_, symObjAddr: 0xD32C, symBinAddr: 0x100013254, symSize: 0x2C }
  - { offsetInCU: 0x30CCE, offset: 0x48122, size: 0x8, addend: 0x0, symName: __ZNSt3__17launderB8ue170006IKNS_4pairIKiNS_3setINS1_IiNS_12basic_stringIcNS_11char_traitsIcEENS_9allocatorIcEEEEEENS_4lessISA_EENS7_ISA_EEEEEEEEPT_SI_, symObjAddr: 0xD3EC, symBinAddr: 0x100013314, symSize: 0x24 }
  - { offsetInCU: 0x30D06, offset: 0x4815A, size: 0x8, addend: 0x0, symName: __ZNSt3__19__launderB8ue170006IKNS_4pairIKiNS_3setINS1_IiNS_12basic_stringIcNS_11char_traitsIcEENS_9allocatorIcEEEEEENS_4lessISA_EENS7_ISA_EEEEEEEEPT_SI_, symObjAddr: 0xD410, symBinAddr: 0x100013338, symSize: 0x14 }
  - { offsetInCU: 0x30D3D, offset: 0x48191, size: 0x8, addend: 0x0, symName: __ZNSt3__1eqB8ue170006ERKNS_21__tree_const_iteratorINS_4pairIiNS_12basic_stringIcNS_11char_traitsIcEENS_9allocatorIcEEEEEEPNS_11__tree_nodeIS8_PvEElEESF_, symObjAddr: 0xD544, symBinAddr: 0x10001346C, symSize: 0x30 }
  - { offsetInCU: 0x30D9F, offset: 0x481F3, size: 0x8, addend: 0x0, symName: __ZNSt3__1ltB8ue170006ENS_15strong_orderingENS_20_CmpUnspecifiedParamE, symObjAddr: 0x105EC, symBinAddr: 0x10001509C, symSize: 0x24 }
  - { offsetInCU: 0x30DD8, offset: 0x4822C, size: 0x8, addend: 0x0, symName: __ZNSt3__1ssB8ue170006IcNS_11char_traitsIcEENS_9allocatorIcEEEEDaRKNS_12basic_stringIT_T0_T1_EESC_, symObjAddr: 0x10610, symBinAddr: 0x1000150C0, symSize: 0x5C }
  - { offsetInCU: 0x30E4C, offset: 0x482A0, size: 0x8, addend: 0x0, symName: __ZNSt3__1ssB8ue170006IcNS_11char_traitsIcEEEEDaNS_17basic_string_viewIT_T0_EES7_, symObjAddr: 0x106A0, symBinAddr: 0x100015150, symSize: 0x7C }
  - { offsetInCU: 0x30E9B, offset: 0x482EF, size: 0x8, addend: 0x0, symName: __ZNSt3__17launderB8ue170006IKNS_4pairIKNS_12basic_stringIcNS_11char_traitsIcEENS_9allocatorIcEEEENS_4listIS7_NS5_IS7_EEEEEEEEPT_SF_, symObjAddr: 0x10734, symBinAddr: 0x1000151E4, symSize: 0x24 }
  - { offsetInCU: 0x30ED3, offset: 0x48327, size: 0x8, addend: 0x0, symName: __ZNSt3__19__launderB8ue170006IKNS_4pairIKNS_12basic_stringIcNS_11char_traitsIcEENS_9allocatorIcEEEENS_4listIS7_NS5_IS7_EEEEEEEEPT_SF_, symObjAddr: 0x10758, symBinAddr: 0x100015208, symSize: 0x14 }
  - { offsetInCU: 0x30F4E, offset: 0x483A2, size: 0x8, addend: 0x0, symName: __ZNSt3__112construct_atB8ue170006INS_4pairIKNS_12basic_stringIcNS_11char_traitsIcEENS_9allocatorIcEEEENS_4listIS7_NS5_IS7_EEEEEEJSC_EPSC_EEPT_SF_DpOT0_, symObjAddr: 0x10A68, symBinAddr: 0x100015518, symSize: 0x3C }
  - { offsetInCU: 0x30FC1, offset: 0x48415, size: 0x8, addend: 0x0, symName: __ZNSt3__127__tree_balance_after_insertB8ue170006IPNS_16__tree_node_baseIPvEEEEvT_S5_, symObjAddr: 0x10B94, symBinAddr: 0x100015644, symSize: 0x27C }
  - { offsetInCU: 0x3103D, offset: 0x48491, size: 0x8, addend: 0x0, symName: __ZNSt3__118__tree_left_rotateB8ue170006IPNS_16__tree_node_baseIPvEEEEvT_, symObjAddr: 0x10E38, symBinAddr: 0x1000158E8, symSize: 0xD8 }
  - { offsetInCU: 0x3107F, offset: 0x484D3, size: 0x8, addend: 0x0, symName: __ZNSt3__119__tree_right_rotateB8ue170006IPNS_16__tree_node_baseIPvEEEEvT_, symObjAddr: 0x10F10, symBinAddr: 0x1000159C0, symSize: 0xCC }
  - { offsetInCU: 0x310C0, offset: 0x48514, size: 0x8, addend: 0x0, symName: __ZNSt3__17launderB8ue170006IKNS_4pairIKNS_12basic_stringIcNS_11char_traitsIcEENS_9allocatorIcEEEENS_3setINS1_IS7_S7_EENS_4lessISA_EENS5_ISA_EEEEEEEEPT_SI_, symObjAddr: 0x11F18, symBinAddr: 0x1000166B8, symSize: 0x24 }
  - { offsetInCU: 0x310F8, offset: 0x4854C, size: 0x8, addend: 0x0, symName: __ZNSt3__19__launderB8ue170006IKNS_4pairIKNS_12basic_stringIcNS_11char_traitsIcEENS_9allocatorIcEEEENS_3setINS1_IS7_S7_EENS_4lessISA_EENS5_ISA_EEEEEEEEPT_SI_, symObjAddr: 0x11F3C, symBinAddr: 0x1000166DC, symSize: 0x14 }
  - { offsetInCU: 0x31173, offset: 0x485C7, size: 0x8, addend: 0x0, symName: __ZNSt3__112construct_atB8ue170006INS_4pairIKNS_12basic_stringIcNS_11char_traitsIcEENS_9allocatorIcEEEENS_3setINS1_IS7_S7_EENS_4lessISA_EENS5_ISA_EEEEEEJSF_EPSF_EEPT_SI_DpOT0_, symObjAddr: 0x1224C, symBinAddr: 0x1000169EC, symSize: 0x3C }
  - { offsetInCU: 0x3121C, offset: 0x48670, size: 0x8, addend: 0x0, symName: __ZNSt3__116forward_as_tupleB8ue170006IJRKNS_12basic_stringIcNS_11char_traitsIcEENS_9allocatorIcEEEEEEENS_5tupleIJDpOT_EEESC_, symObjAddr: 0x12738, symBinAddr: 0x100016ED8, symSize: 0x2C }
  - { offsetInCU: 0x31256, offset: 0x486AA, size: 0x8, addend: 0x0, symName: __ZNSt3__116forward_as_tupleB8ue170006IJEEENS_5tupleIJDpOT_EEES4_, symObjAddr: 0x12764, symBinAddr: 0x100016F04, symSize: 0x4 }
  - { offsetInCU: 0x31279, offset: 0x486CD, size: 0x8, addend: 0x0, symName: __ZNSt3__112construct_atB8ue170006INS_4pairIKNS_12basic_stringIcNS_11char_traitsIcEENS_9allocatorIcEEEENS_4listIS7_NS5_IS7_EEEEEEJRKNS_21piecewise_construct_tENS_5tupleIJRS8_EEENSG_IJEEEEPSC_EEPT_SM_DpOT0_, symObjAddr: 0x128F4, symBinAddr: 0x100017094, symSize: 0x50 }
  - { offsetInCU: 0x3131D, offset: 0x48771, size: 0x8, addend: 0x0, symName: __ZNSt3__13getB8ue170006ILm0EJRKNS_12basic_stringIcNS_11char_traitsIcEENS_9allocatorIcEEEEEEERNS_13tuple_elementIXT_ENS_5tupleIJDpT0_EEEE4typeERSD_, symObjAddr: 0x12A0C, symBinAddr: 0x1000171AC, symSize: 0x24 }
  - { offsetInCU: 0x313D5, offset: 0x48829, size: 0x8, addend: 0x0, symName: __ZNSt3__112construct_atB8ue170006INS_4pairIKNS_12basic_stringIcNS_11char_traitsIcEENS_9allocatorIcEEEENS_3setINS1_IS7_S7_EENS_4lessISA_EENS5_ISA_EEEEEEJRKNS_21piecewise_construct_tENS_5tupleIJRS8_EEENSJ_IJEEEEPSF_EEPT_SP_DpOT0_, symObjAddr: 0x133C4, symBinAddr: 0x100017B64, symSize: 0x50 }
  - { offsetInCU: 0x314A0, offset: 0x488F4, size: 0x8, addend: 0x0, symName: __ZNSt3__1ssB8ue170006INS_12basic_stringIcNS_11char_traitsIcEENS_9allocatorIcEEEES6_S6_S6_EENS_26common_comparison_categoryIJDTclsr3stdE17__synth_three_wayclsr3stdE7declvalIRT_EEclsr3stdE7declvalIRT1_EEEEDTclsr3stdE17__synth_three_wayclsr3stdE7declvalIRT0_EEclsr3stdE7declvalIRT2_EEEEEE4typeERKNS_4pairIS8_SD_EERKNSK_ISA_SF_EE, symObjAddr: 0x13BC4, symBinAddr: 0x100018364, symSize: 0x7C }
  - { offsetInCU: 0x3151E, offset: 0x48972, size: 0x8, addend: 0x0, symName: __ZNSt3__117__synth_three_wayB8ue170006INS_12basic_stringIcNS_11char_traitsIcEENS_9allocatorIcEEEES6_EEDaRKT_RKT0_, symObjAddr: 0x13C40, symBinAddr: 0x1000183E0, symSize: 0x34 }
  - { offsetInCU: 0x3156A, offset: 0x489BE, size: 0x8, addend: 0x0, symName: __ZNSt3__1eqB8ue170006ENS_15strong_orderingENS_20_CmpUnspecifiedParamE, symObjAddr: 0x13C74, symBinAddr: 0x100018414, symSize: 0x24 }
  - { offsetInCU: 0x315E6, offset: 0x48A3A, size: 0x8, addend: 0x0, symName: __ZNSt3__112construct_atB8ue170006INS_4pairINS_12basic_stringIcNS_11char_traitsIcEENS_9allocatorIcEEEES7_EEJS8_EPS8_EEPT_SB_DpOT0_, symObjAddr: 0x13F94, symBinAddr: 0x100018734, symSize: 0x3C }
  - { offsetInCU: 0x31658, offset: 0x48AAC, size: 0x8, addend: 0x0, symName: __ZNSt3__110destroy_atB8ue170006INS_4pairIKNS_12basic_stringIcNS_11char_traitsIcEENS_9allocatorIcEEEES7_EELi0EEEvPT_, symObjAddr: 0x14B18, symBinAddr: 0x1000192B8, symSize: 0x24 }
  - { offsetInCU: 0x3168F, offset: 0x48AE3, size: 0x8, addend: 0x0, symName: __ZNSt3__112__destroy_atB8ue170006INS_4pairIKNS_12basic_stringIcNS_11char_traitsIcEENS_9allocatorIcEEEES7_EELi0EEEvPT_, symObjAddr: 0x14B3C, symBinAddr: 0x1000192DC, symSize: 0x24 }
  - { offsetInCU: 0x316C6, offset: 0x48B1A, size: 0x8, addend: 0x0, symName: __ZNSt3__17launderB8ue170006INS_4pairIKNS_12basic_stringIcNS_11char_traitsIcEENS_9allocatorIcEEEES7_EEEEPT_SB_, symObjAddr: 0x14B84, symBinAddr: 0x100019324, symSize: 0x24 }
  - { offsetInCU: 0x316FE, offset: 0x48B52, size: 0x8, addend: 0x0, symName: __ZNSt3__19__launderB8ue170006INS_4pairIKNS_12basic_stringIcNS_11char_traitsIcEENS_9allocatorIcEEEES7_EEEEPT_SB_, symObjAddr: 0x14BA8, symBinAddr: 0x100019348, symSize: 0x14 }
  - { offsetInCU: 0x31AD9, offset: 0x48F2D, size: 0x8, addend: 0x0, symName: __ZNSt3__14swapB8ue170006IPPNS_12basic_stringIcNS_11char_traitsIcEENS_9allocatorIcEEEEEENS_9enable_ifIXaasr21is_move_constructibleIT_EE5valuesr18is_move_assignableISA_EE5valueEvE4typeERSA_SD_, symObjAddr: 0x15F00, symBinAddr: 0x10001A6A0, symSize: 0x3C }
  - { offsetInCU: 0x31B2A, offset: 0x48F7E, size: 0x8, addend: 0x0, symName: __ZNSt3__14moveB8ue170006IPPNS_12basic_stringIcNS_11char_traitsIcEENS_9allocatorIcEEEES8_EET0_T_SA_S9_, symObjAddr: 0x15FE4, symBinAddr: 0x10001A784, symSize: 0x40 }
  - { offsetInCU: 0x31BA3, offset: 0x48FF7, size: 0x8, addend: 0x0, symName: __ZNSt3__16__moveB8ue170006INS_17_ClassicAlgPolicyEPPNS_12basic_stringIcNS_11char_traitsIcEENS_9allocatorIcEEEES9_S9_EENS_4pairIT0_T2_EESB_T1_SC_, symObjAddr: 0x160E8, symBinAddr: 0x10001A888, symSize: 0x44 }
  - { offsetInCU: 0x31C0F, offset: 0x49063, size: 0x8, addend: 0x0, symName: __ZNSt3__123__dispatch_copy_or_moveB8ue170006INS_17_ClassicAlgPolicyENS_11__move_loopIS1_EENS_14__move_trivialEPPNS_12basic_stringIcNS_11char_traitsIcEENS_9allocatorIcEEEESC_SC_EENS_4pairIT2_T4_EESE_T3_SF_, symObjAddr: 0x1612C, symBinAddr: 0x10001A8CC, symSize: 0x44 }
  - { offsetInCU: 0x31C8D, offset: 0x490E1, size: 0x8, addend: 0x0, symName: __ZNSt3__121__unwrap_and_dispatchB8ue170006INS_10__overloadINS_11__move_loopINS_17_ClassicAlgPolicyEEENS_14__move_trivialEEEPPNS_12basic_stringIcNS_11char_traitsIcEENS_9allocatorIcEEEESE_SE_Li0EEENS_4pairIT0_T2_EESG_T1_SH_, symObjAddr: 0x16170, symBinAddr: 0x10001A910, symSize: 0xB4 }
  - { offsetInCU: 0x31D1B, offset: 0x4916F, size: 0x8, addend: 0x0, symName: __ZNSt3__114__unwrap_rangeB8ue170006IPPNS_12basic_stringIcNS_11char_traitsIcEENS_9allocatorIcEEEES8_EEDaT_T0_, symObjAddr: 0x16224, symBinAddr: 0x10001A9C4, symSize: 0x3C }
  - { offsetInCU: 0x31F1E, offset: 0x49372, size: 0x8, addend: 0x0, symName: __ZNSt3__113__unwrap_iterB8ue170006IPPNS_12basic_stringIcNS_11char_traitsIcEENS_9allocatorIcEEEENS_18__unwrap_iter_implIS8_Lb1EEELi0EEEDTclsrT0_8__unwrapclsr3stdE7declvalIT_EEEESC_, symObjAddr: 0x162A8, symBinAddr: 0x10001AA48, symSize: 0x24 }
  - { offsetInCU: 0x31F62, offset: 0x493B6, size: 0x8, addend: 0x0, symName: __ZNSt3__19make_pairB8ue170006IPPNS_12basic_stringIcNS_11char_traitsIcEENS_9allocatorIcEEEES8_EENS_4pairINS_18__unwrap_ref_decayIT_E4typeENSA_IT0_E4typeEEEOSB_OSE_, symObjAddr: 0x162CC, symBinAddr: 0x10001AA6C, symSize: 0x38 }
  - { offsetInCU: 0x31FB1, offset: 0x49405, size: 0x8, addend: 0x0, symName: __ZNSt3__114__rewrap_rangeB8ue170006IPPNS_12basic_stringIcNS_11char_traitsIcEENS_9allocatorIcEEEES8_S8_EET0_S9_T1_, symObjAddr: 0x16304, symBinAddr: 0x10001AAA4, symSize: 0x2C }
  - { offsetInCU: 0x32006, offset: 0x4945A, size: 0x8, addend: 0x0, symName: __ZNSt3__113__rewrap_iterB8ue170006IPPNS_12basic_stringIcNS_11char_traitsIcEENS_9allocatorIcEEEES8_NS_18__unwrap_iter_implIS8_Lb1EEEEET_SB_T0_, symObjAddr: 0x16330, symBinAddr: 0x10001AAD0, symSize: 0x3C }
  - { offsetInCU: 0x320AB, offset: 0x494FF, size: 0x8, addend: 0x0, symName: __ZNSt3__119__copy_trivial_implB8ue170006IPNS_12basic_stringIcNS_11char_traitsIcEENS_9allocatorIcEEEES7_EENS_4pairIPT_PT0_EESA_SA_SC_, symObjAddr: 0x16434, symBinAddr: 0x10001ABD4, symSize: 0x80 }
  - { offsetInCU: 0x32113, offset: 0x49567, size: 0x8, addend: 0x0, symName: __ZNSt3__119__constexpr_memmoveB8ue170006IPNS_12basic_stringIcNS_11char_traitsIcEENS_9allocatorIcEEEES7_Li0EEEPT_S9_PT0_NS_15__element_countE, symObjAddr: 0x164B4, symBinAddr: 0x10001AC54, symSize: 0x64 }
  - { offsetInCU: 0x32181, offset: 0x495D5, size: 0x8, addend: 0x0, symName: __ZNSt3__19make_pairB8ue170006IRPPNS_12basic_stringIcNS_11char_traitsIcEENS_9allocatorIcEEEES8_EENS_4pairINS_18__unwrap_ref_decayIT_E4typeENSB_IT0_E4typeEEEOSC_OSF_, symObjAddr: 0x16518, symBinAddr: 0x10001ACB8, symSize: 0x38 }
  - { offsetInCU: 0x32223, offset: 0x49677, size: 0x8, addend: 0x0, symName: __ZNSt3__18distanceB8ue170006INS_13move_iteratorIPPNS_12basic_stringIcNS_11char_traitsIcEENS_9allocatorIcEEEEEEEENS_15iterator_traitsIT_E15difference_typeESC_SC_, symObjAddr: 0x1673C, symBinAddr: 0x10001AEDC, symSize: 0x3C }
  - { offsetInCU: 0x3228D, offset: 0x496E1, size: 0x8, addend: 0x0, symName: __ZNSt3__112construct_atB8ue170006IPNS_12basic_stringIcNS_11char_traitsIcEENS_9allocatorIcEEEEJS7_EPS7_EEPT_SA_DpOT0_, symObjAddr: 0x168C8, symBinAddr: 0x10001B068, symSize: 0x2C }
  - { offsetInCU: 0x322FF, offset: 0x49753, size: 0x8, addend: 0x0, symName: __ZNSt3__110__distanceB8ue170006INS_13move_iteratorIPPNS_12basic_stringIcNS_11char_traitsIcEENS_9allocatorIcEEEEEEEENS_15iterator_traitsIT_E15difference_typeESC_SC_NS_26random_access_iterator_tagE, symObjAddr: 0x16970, symBinAddr: 0x10001B110, symSize: 0x30 }
  - { offsetInCU: 0x3234D, offset: 0x497A1, size: 0x8, addend: 0x0, symName: __ZNSt3__1miB8ue170006IPPNS_12basic_stringIcNS_11char_traitsIcEENS_9allocatorIcEEEES8_EEDTmicldtfp_4baseEcldtfp0_4baseEERKNS_13move_iteratorIT_EERKNSA_IT0_EE, symObjAddr: 0x169A0, symBinAddr: 0x10001B140, symSize: 0x4C }
  - { offsetInCU: 0x3239C, offset: 0x497F0, size: 0x8, addend: 0x0, symName: __ZNSt3__112construct_atB8ue170006IPNS_12basic_stringIcNS_11char_traitsIcEENS_9allocatorIcEEEEJRKS7_EPS7_EEPT_SC_DpOT0_, symObjAddr: 0x16A20, symBinAddr: 0x10001B1C0, symSize: 0x2C }
  - { offsetInCU: 0x3240E, offset: 0x49862, size: 0x8, addend: 0x0, symName: __ZNSt3__113move_backwardB8ue170006IPPNS_12basic_stringIcNS_11char_traitsIcEENS_9allocatorIcEEEES8_EET0_T_SA_S9_, symObjAddr: 0x16A4C, symBinAddr: 0x10001B1EC, symSize: 0x40 }
  - { offsetInCU: 0x32468, offset: 0x498BC, size: 0x8, addend: 0x0, symName: __ZNSt3__115__move_backwardB8ue170006INS_17_ClassicAlgPolicyEPPNS_12basic_stringIcNS_11char_traitsIcEENS_9allocatorIcEEEES9_S9_EENS_4pairIT0_T2_EESB_T1_SC_, symObjAddr: 0x16A8C, symBinAddr: 0x10001B22C, symSize: 0x44 }
  - { offsetInCU: 0x324D4, offset: 0x49928, size: 0x8, addend: 0x0, symName: __ZNSt3__123__dispatch_copy_or_moveB8ue170006INS_17_ClassicAlgPolicyENS_20__move_backward_loopIS1_EENS_23__move_backward_trivialEPPNS_12basic_stringIcNS_11char_traitsIcEENS_9allocatorIcEEEESC_SC_EENS_4pairIT2_T4_EESE_T3_SF_, symObjAddr: 0x16AD0, symBinAddr: 0x10001B270, symSize: 0x44 }
  - { offsetInCU: 0x32552, offset: 0x499A6, size: 0x8, addend: 0x0, symName: __ZNSt3__121__unwrap_and_dispatchB8ue170006INS_10__overloadINS_20__move_backward_loopINS_17_ClassicAlgPolicyEEENS_23__move_backward_trivialEEEPPNS_12basic_stringIcNS_11char_traitsIcEENS_9allocatorIcEEEESE_SE_Li0EEENS_4pairIT0_T2_EESG_T1_SH_, symObjAddr: 0x16B14, symBinAddr: 0x10001B2B4, symSize: 0xB4 }
  - { offsetInCU: 0x32662, offset: 0x49AB6, size: 0x8, addend: 0x0, symName: __ZNSt3__128__copy_backward_trivial_implB8ue170006IPNS_12basic_stringIcNS_11char_traitsIcEENS_9allocatorIcEEEES7_EENS_4pairIPT_PT0_EESA_SA_SC_, symObjAddr: 0x16C10, symBinAddr: 0x10001B3B0, symSize: 0x90 }
  - { offsetInCU: 0x326CA, offset: 0x49B1E, size: 0x8, addend: 0x0, symName: __ZNSt3__19make_pairB8ue170006IRPPNS_12basic_stringIcNS_11char_traitsIcEENS_9allocatorIcEEEES9_EENS_4pairINS_18__unwrap_ref_decayIT_E4typeENSB_IT0_E4typeEEEOSC_OSF_, symObjAddr: 0x16CA0, symBinAddr: 0x10001B440, symSize: 0x38 }
  - { offsetInCU: 0x32719, offset: 0x49B6D, size: 0x8, addend: 0x0, symName: __ZNSt3__119__allocate_at_leastB8ue170006INS_9allocatorIPNS_12basic_stringIcNS_11char_traitsIcEENS1_IcEEEEEEEENS_19__allocation_resultINS_16allocator_traitsIT_E7pointerEEERSB_m, symObjAddr: 0x16E58, symBinAddr: 0x10001B5F8, symSize: 0x40 }
  - { offsetInCU: 0x3275C, offset: 0x49BB0, size: 0x8, addend: 0x0, symName: __ZNSt3__17launderB8ue170006IKNS_4pairIKNS_12basic_stringIcNS_11char_traitsIcEENS_9allocatorIcEEEES7_EEEEPT_SC_, symObjAddr: 0x17B98, symBinAddr: 0x10001C338, symSize: 0x24 }
  - { offsetInCU: 0x32794, offset: 0x49BE8, size: 0x8, addend: 0x0, symName: __ZNSt3__19__launderB8ue170006IKNS_4pairIKNS_12basic_stringIcNS_11char_traitsIcEENS_9allocatorIcEEEES7_EEEEPT_SC_, symObjAddr: 0x17BBC, symBinAddr: 0x10001C35C, symSize: 0x14 }
  - { offsetInCU: 0x3280F, offset: 0x49C63, size: 0x8, addend: 0x0, symName: __ZNSt3__112construct_atB8ue170006INS_4pairIKNS_12basic_stringIcNS_11char_traitsIcEENS_9allocatorIcEEEES7_EEJS9_EPS9_EEPT_SC_DpOT0_, symObjAddr: 0x17ECC, symBinAddr: 0x10001C66C, symSize: 0x3C }
  - { offsetInCU: 0x32882, offset: 0x49CD6, size: 0x8, addend: 0x0, symName: __ZNSt3__1eqB8ue170006ERKNS_21__list_const_iteratorINS_12basic_stringIcNS_11char_traitsIcEENS_9allocatorIcEEEEPvEESA_, symObjAddr: 0x183FC, symBinAddr: 0x10001CB9C, symSize: 0x30 }
  - { offsetInCU: 0x328BF, offset: 0x49D13, size: 0x8, addend: 0x0, symName: __ZNSt3__1eqB8ue170006ERKNS_21__tree_const_iteratorINS_4pairINS_12basic_stringIcNS_11char_traitsIcEENS_9allocatorIcEEEES7_EEPNS_11__tree_nodeIS8_PvEElEESF_, symObjAddr: 0x188BC, symBinAddr: 0x10001D05C, symSize: 0x30 }
  - { offsetInCU: 0x32D87, offset: 0x4A1DB, size: 0x8, addend: 0x0, symName: __ZNSt3__14swapB8ue170006IPPNS_4pairINS_12basic_stringIcNS_11char_traitsIcEENS_9allocatorIcEEEEiEEEENS_9enable_ifIXaasr21is_move_constructibleIT_EE5valuesr18is_move_assignableISC_EE5valueEvE4typeERSC_SF_, symObjAddr: 0x1AACC, symBinAddr: 0x10001F26C, symSize: 0x3C }
  - { offsetInCU: 0x32DD8, offset: 0x4A22C, size: 0x8, addend: 0x0, symName: __ZNSt3__14moveB8ue170006IPPNS_4pairINS_12basic_stringIcNS_11char_traitsIcEENS_9allocatorIcEEEEiEESA_EET0_T_SC_SB_, symObjAddr: 0x1ABB0, symBinAddr: 0x10001F350, symSize: 0x40 }
  - { offsetInCU: 0x32E32, offset: 0x4A286, size: 0x8, addend: 0x0, symName: __ZNSt3__16__moveB8ue170006INS_17_ClassicAlgPolicyEPPNS_4pairINS_12basic_stringIcNS_11char_traitsIcEENS_9allocatorIcEEEEiEESB_SB_EENS2_IT0_T2_EESC_T1_SD_, symObjAddr: 0x1ACB4, symBinAddr: 0x10001F454, symSize: 0x44 }
  - { offsetInCU: 0x32E9E, offset: 0x4A2F2, size: 0x8, addend: 0x0, symName: __ZNSt3__123__dispatch_copy_or_moveB8ue170006INS_17_ClassicAlgPolicyENS_11__move_loopIS1_EENS_14__move_trivialEPPNS_4pairINS_12basic_stringIcNS_11char_traitsIcEENS_9allocatorIcEEEEiEESE_SE_EENS5_IT2_T4_EESF_T3_SG_, symObjAddr: 0x1ACF8, symBinAddr: 0x10001F498, symSize: 0x44 }
  - { offsetInCU: 0x32F1C, offset: 0x4A370, size: 0x8, addend: 0x0, symName: __ZNSt3__121__unwrap_and_dispatchB8ue170006INS_10__overloadINS_11__move_loopINS_17_ClassicAlgPolicyEEENS_14__move_trivialEEEPPNS_4pairINS_12basic_stringIcNS_11char_traitsIcEENS_9allocatorIcEEEEiEESG_SG_Li0EEENS7_IT0_T2_EESH_T1_SI_, symObjAddr: 0x1AD3C, symBinAddr: 0x10001F4DC, symSize: 0xB4 }
  - { offsetInCU: 0x32FAA, offset: 0x4A3FE, size: 0x8, addend: 0x0, symName: __ZNSt3__114__unwrap_rangeB8ue170006IPPNS_4pairINS_12basic_stringIcNS_11char_traitsIcEENS_9allocatorIcEEEEiEESA_EEDaT_T0_, symObjAddr: 0x1ADF0, symBinAddr: 0x10001F590, symSize: 0x3C }
  - { offsetInCU: 0x3312B, offset: 0x4A57F, size: 0x8, addend: 0x0, symName: __ZNSt3__113__unwrap_iterB8ue170006IPPNS_4pairINS_12basic_stringIcNS_11char_traitsIcEENS_9allocatorIcEEEEiEENS_18__unwrap_iter_implISA_Lb1EEELi0EEEDTclsrT0_8__unwrapclsr3stdE7declvalIT_EEEESE_, symObjAddr: 0x1AE74, symBinAddr: 0x10001F614, symSize: 0x24 }
  - { offsetInCU: 0x3316F, offset: 0x4A5C3, size: 0x8, addend: 0x0, symName: __ZNSt3__19make_pairB8ue170006IPPNS_4pairINS_12basic_stringIcNS_11char_traitsIcEENS_9allocatorIcEEEEiEESA_EENS1_INS_18__unwrap_ref_decayIT_E4typeENSB_IT0_E4typeEEEOSC_OSF_, symObjAddr: 0x1AE98, symBinAddr: 0x10001F638, symSize: 0x38 }
  - { offsetInCU: 0x331BE, offset: 0x4A612, size: 0x8, addend: 0x0, symName: __ZNSt3__114__rewrap_rangeB8ue170006IPPNS_4pairINS_12basic_stringIcNS_11char_traitsIcEENS_9allocatorIcEEEEiEESA_SA_EET0_SB_T1_, symObjAddr: 0x1AED0, symBinAddr: 0x10001F670, symSize: 0x2C }
  - { offsetInCU: 0x33213, offset: 0x4A667, size: 0x8, addend: 0x0, symName: __ZNSt3__113__rewrap_iterB8ue170006IPPNS_4pairINS_12basic_stringIcNS_11char_traitsIcEENS_9allocatorIcEEEEiEESA_NS_18__unwrap_iter_implISA_Lb1EEEEET_SD_T0_, symObjAddr: 0x1AEFC, symBinAddr: 0x10001F69C, symSize: 0x3C }
  - { offsetInCU: 0x332B8, offset: 0x4A70C, size: 0x8, addend: 0x0, symName: __ZNSt3__119__copy_trivial_implB8ue170006IPNS_4pairINS_12basic_stringIcNS_11char_traitsIcEENS_9allocatorIcEEEEiEES9_EENS1_IPT_PT0_EESB_SB_SD_, symObjAddr: 0x1B000, symBinAddr: 0x10001F7A0, symSize: 0x80 }
  - { offsetInCU: 0x33320, offset: 0x4A774, size: 0x8, addend: 0x0, symName: __ZNSt3__119__constexpr_memmoveB8ue170006IPNS_4pairINS_12basic_stringIcNS_11char_traitsIcEENS_9allocatorIcEEEEiEES9_Li0EEEPT_SB_PT0_NS_15__element_countE, symObjAddr: 0x1B080, symBinAddr: 0x10001F820, symSize: 0x64 }
  - { offsetInCU: 0x3338E, offset: 0x4A7E2, size: 0x8, addend: 0x0, symName: __ZNSt3__19make_pairB8ue170006IRPPNS_4pairINS_12basic_stringIcNS_11char_traitsIcEENS_9allocatorIcEEEEiEESA_EENS1_INS_18__unwrap_ref_decayIT_E4typeENSC_IT0_E4typeEEEOSD_OSG_, symObjAddr: 0x1B0E4, symBinAddr: 0x10001F884, symSize: 0x38 }
  - { offsetInCU: 0x33430, offset: 0x4A884, size: 0x8, addend: 0x0, symName: __ZNSt3__18distanceB8ue170006INS_13move_iteratorIPPNS_4pairINS_12basic_stringIcNS_11char_traitsIcEENS_9allocatorIcEEEEiEEEEEENS_15iterator_traitsIT_E15difference_typeESE_SE_, symObjAddr: 0x1B308, symBinAddr: 0x10001FAA8, symSize: 0x3C }
  - { offsetInCU: 0x3349A, offset: 0x4A8EE, size: 0x8, addend: 0x0, symName: __ZNSt3__112construct_atB8ue170006IPNS_4pairINS_12basic_stringIcNS_11char_traitsIcEENS_9allocatorIcEEEEiEEJS9_EPS9_EEPT_SC_DpOT0_, symObjAddr: 0x1B494, symBinAddr: 0x10001FC34, symSize: 0x2C }
  - { offsetInCU: 0x3350C, offset: 0x4A960, size: 0x8, addend: 0x0, symName: __ZNSt3__110__distanceB8ue170006INS_13move_iteratorIPPNS_4pairINS_12basic_stringIcNS_11char_traitsIcEENS_9allocatorIcEEEEiEEEEEENS_15iterator_traitsIT_E15difference_typeESE_SE_NS_26random_access_iterator_tagE, symObjAddr: 0x1B53C, symBinAddr: 0x10001FCDC, symSize: 0x30 }
  - { offsetInCU: 0x3355A, offset: 0x4A9AE, size: 0x8, addend: 0x0, symName: __ZNSt3__1miB8ue170006IPPNS_4pairINS_12basic_stringIcNS_11char_traitsIcEENS_9allocatorIcEEEEiEESA_EEDTmicldtfp_4baseEcldtfp0_4baseEERKNS_13move_iteratorIT_EERKNSC_IT0_EE, symObjAddr: 0x1B56C, symBinAddr: 0x10001FD0C, symSize: 0x4C }
  - { offsetInCU: 0x335A9, offset: 0x4A9FD, size: 0x8, addend: 0x0, symName: __ZNSt3__112construct_atB8ue170006IPNS_4pairINS_12basic_stringIcNS_11char_traitsIcEENS_9allocatorIcEEEEiEEJRKS9_EPS9_EEPT_SE_DpOT0_, symObjAddr: 0x1B5EC, symBinAddr: 0x10001FD8C, symSize: 0x2C }
  - { offsetInCU: 0x3361B, offset: 0x4AA6F, size: 0x8, addend: 0x0, symName: __ZNSt3__113move_backwardB8ue170006IPPNS_4pairINS_12basic_stringIcNS_11char_traitsIcEENS_9allocatorIcEEEEiEESA_EET0_T_SC_SB_, symObjAddr: 0x1B698, symBinAddr: 0x10001FE38, symSize: 0x40 }
  - { offsetInCU: 0x33675, offset: 0x4AAC9, size: 0x8, addend: 0x0, symName: __ZNSt3__115__move_backwardB8ue170006INS_17_ClassicAlgPolicyEPPNS_4pairINS_12basic_stringIcNS_11char_traitsIcEENS_9allocatorIcEEEEiEESB_SB_EENS2_IT0_T2_EESC_T1_SD_, symObjAddr: 0x1B6D8, symBinAddr: 0x10001FE78, symSize: 0x44 }
  - { offsetInCU: 0x336E1, offset: 0x4AB35, size: 0x8, addend: 0x0, symName: __ZNSt3__123__dispatch_copy_or_moveB8ue170006INS_17_ClassicAlgPolicyENS_20__move_backward_loopIS1_EENS_23__move_backward_trivialEPPNS_4pairINS_12basic_stringIcNS_11char_traitsIcEENS_9allocatorIcEEEEiEESE_SE_EENS5_IT2_T4_EESF_T3_SG_, symObjAddr: 0x1B71C, symBinAddr: 0x10001FEBC, symSize: 0x44 }
  - { offsetInCU: 0x3375F, offset: 0x4ABB3, size: 0x8, addend: 0x0, symName: __ZNSt3__121__unwrap_and_dispatchB8ue170006INS_10__overloadINS_20__move_backward_loopINS_17_ClassicAlgPolicyEEENS_23__move_backward_trivialEEEPPNS_4pairINS_12basic_stringIcNS_11char_traitsIcEENS_9allocatorIcEEEEiEESG_SG_Li0EEENS7_IT0_T2_EESH_T1_SI_, symObjAddr: 0x1B760, symBinAddr: 0x10001FF00, symSize: 0xB4 }
  - { offsetInCU: 0x337ED, offset: 0x4AC41, size: 0x8, addend: 0x0, symName: __ZNSt3__128__copy_backward_trivial_implB8ue170006IPNS_4pairINS_12basic_stringIcNS_11char_traitsIcEENS_9allocatorIcEEEEiEES9_EENS1_IPT_PT0_EESB_SB_SD_, symObjAddr: 0x1B85C, symBinAddr: 0x10001FFFC, symSize: 0x90 }
  - { offsetInCU: 0x33855, offset: 0x4ACA9, size: 0x8, addend: 0x0, symName: __ZNSt3__19make_pairB8ue170006IRPPNS_4pairINS_12basic_stringIcNS_11char_traitsIcEENS_9allocatorIcEEEEiEESB_EENS1_INS_18__unwrap_ref_decayIT_E4typeENSC_IT0_E4typeEEEOSD_OSG_, symObjAddr: 0x1B8EC, symBinAddr: 0x10002008C, symSize: 0x38 }
  - { offsetInCU: 0x338A4, offset: 0x4ACF8, size: 0x8, addend: 0x0, symName: __ZNSt3__119__allocate_at_leastB8ue170006INS_9allocatorIPNS_4pairINS_12basic_stringIcNS_11char_traitsIcEENS1_IcEEEEiEEEEEENS_19__allocation_resultINS_16allocator_traitsIT_E7pointerEEERSD_m, symObjAddr: 0x1BAA4, symBinAddr: 0x100020244, symSize: 0x40 }
  - { offsetInCU: 0x3390E, offset: 0x4AD62, size: 0x8, addend: 0x0, symName: __ZNSt3__112construct_atB8ue170006INS_4pairINS_12basic_stringIcNS_11char_traitsIcEENS_9allocatorIcEEEEiEEJS8_EPS8_EEPT_SB_DpOT0_, symObjAddr: 0x1C0DC, symBinAddr: 0x10002087C, symSize: 0x3C }
  - { offsetInCU: 0x33980, offset: 0x4ADD4, size: 0x8, addend: 0x0, symName: __ZNSt3__116__constrain_hashB8ue170006Emm, symObjAddr: 0x1C778, symBinAddr: 0x100020F18, symSize: 0x98 }
  - { offsetInCU: 0x339BA, offset: 0x4AE0E, size: 0x8, addend: 0x0, symName: __ZNSt3__116__is_hash_power2B8ue170006Em, symObjAddr: 0x1CA88, symBinAddr: 0x100021228, symSize: 0x50 }
  - { offsetInCU: 0x339E6, offset: 0x4AE3A, size: 0x8, addend: 0x0, symName: __ZNSt3__116__do_string_hashB8ue170006IPKcEEmT_S3_, symObjAddr: 0x1CCE0, symBinAddr: 0x100021480, symSize: 0x3C }
  - { offsetInCU: 0x33A2C, offset: 0x4AE80, size: 0x8, addend: 0x0, symName: __ZNSt3__110__loadwordB8ue170006ImEET_PKv, symObjAddr: 0x1D6D4, symBinAddr: 0x100021E74, symSize: 0x20 }
  - { offsetInCU: 0x33A6F, offset: 0x4AEC3, size: 0x8, addend: 0x0, symName: __ZNSt3__14swapB8ue170006ImEENS_9enable_ifIXaasr21is_move_constructibleIT_EE5valuesr18is_move_assignableIS2_EE5valueEvE4typeERS2_S5_, symObjAddr: 0x1D890, symBinAddr: 0x100022030, symSize: 0x3C }
  - { offsetInCU: 0x33AC0, offset: 0x4AF14, size: 0x8, addend: 0x0, symName: __ZNSt3__110__loadwordB8ue170006IjEET_PKv, symObjAddr: 0x1D920, symBinAddr: 0x1000220C0, symSize: 0x20 }
  - { offsetInCU: 0x33B21, offset: 0x4AF75, size: 0x8, addend: 0x0, symName: __ZNSt3__116__next_hash_pow2B8ue170006Em, symObjAddr: 0x1E394, symBinAddr: 0x100022B34, symSize: 0x6C }
  - { offsetInCU: 0x33B4D, offset: 0x4AFA1, size: 0x8, addend: 0x0, symName: __ZNSt3__112__libcpp_clzB8ue170006Em, symObjAddr: 0x1E548, symBinAddr: 0x100022CE8, symSize: 0x1C }
  - { offsetInCU: 0x33B79, offset: 0x4AFCD, size: 0x8, addend: 0x0, symName: __ZNSt3__1neB8ue170006ERKNS_21__hash_const_iteratorIPNS_11__hash_nodeINS_17__hash_value_typeINS_12basic_stringIcNS_11char_traitsIcEENS_9allocatorIcEEEES8_EEPvEEEESF_, symObjAddr: 0x1E8C4, symBinAddr: 0x100023064, symSize: 0x34 }
  - { offsetInCU: 0x33BB7, offset: 0x4B00B, size: 0x8, addend: 0x0, symName: __ZNSt3__1eqB8ue170006ERKNS_21__hash_const_iteratorIPNS_11__hash_nodeINS_17__hash_value_typeINS_12basic_stringIcNS_11char_traitsIcEENS_9allocatorIcEEEES8_EEPvEEEESF_, symObjAddr: 0x1EADC, symBinAddr: 0x10002327C, symSize: 0x30 }
  - { offsetInCU: 0x33C11, offset: 0x4B065, size: 0x8, addend: 0x0, symName: __ZNSt3__112construct_atB8ue170006INS_4pairINS_12basic_stringIcNS_11char_traitsIcEENS_9allocatorIcEEEEiEEJRKS8_EPS8_EEPT_SD_DpOT0_, symObjAddr: 0x1F4A4, symBinAddr: 0x100023C44, symSize: 0x3C }
  - { offsetInCU: 0x33C84, offset: 0x4B0D8, size: 0x8, addend: 0x0, symName: __ZNSt3__1eqB8ue170006ERKNS_15__list_iteratorINS_4pairINS_12basic_stringIcNS_11char_traitsIcEENS_9allocatorIcEEEEiEEPvEESC_, symObjAddr: 0x1F720, symBinAddr: 0x100023EC0, symSize: 0x30 }
  - { offsetInCU: 0x33CC0, offset: 0x4B114, size: 0x8, addend: 0x0, symName: __ZNSt3__112construct_atB8ue170006INS_4pairIKNS_12basic_stringIcNS_11char_traitsIcEENS_9allocatorIcEEEES7_EEJRKNS_21piecewise_construct_tENS_5tupleIJRS8_EEENSD_IJEEEEPS9_EEPT_SJ_DpOT0_, symObjAddr: 0x1F9DC, symBinAddr: 0x10002417C, symSize: 0x50 }
  - { offsetInCU: 0x3463D, offset: 0x4BA91, size: 0x8, addend: 0x0, symName: __ZSt28__throw_bad_array_new_lengthB8ue170006v, symObjAddr: 0x54F8, symBinAddr: 0x10000C4CC, symSize: 0x34 }
  - { offsetInCU: 0x352CC, offset: 0x4C720, size: 0x8, addend: 0x0, symName: __ZNSt3__16vectorIiNS_9allocatorIiEEE26__swap_out_circular_bufferERNS_14__split_bufferIiRS2_EE, symObjAddr: 0x4D68, symBinAddr: 0x10000BDDC, symSize: 0x110 }
  - { offsetInCU: 0x3576A, offset: 0x4CBBE, size: 0x8, addend: 0x0, symName: __ZNSt3__16vectorINS_12basic_stringIcNS_11char_traitsIcEENS_9allocatorIcEEEENS4_IS6_EEE26__swap_out_circular_bufferERNS_14__split_bufferIS6_RS7_EE, symObjAddr: 0x7964, symBinAddr: 0x10000DDF4, symSize: 0x110 }
  - { offsetInCU: 0x39476, offset: 0x508CA, size: 0x8, addend: 0x0, symName: __Z6FGraphRKNSt3__13mapIiNS_3setINS_4pairIiNS_12basic_stringIcNS_11char_traitsIcEENS_9allocatorIcEEEEEENS_4lessIS9_EENS6_IS9_EEEENSA_IiEENS6_INS2_IKiSD_EEEEEERKS8_, symObjAddr: 0x0, symBinAddr: 0x100007398, symSize: 0x1B8 }
  - { offsetInCU: 0x39566, offset: 0x509BA, size: 0x8, addend: 0x0, symName: __ZNSt3__16vectorIiNS_9allocatorIiEEEC1B8ue170006Ev, symObjAddr: 0x1B8, symBinAddr: 0x100007550, symSize: 0x2C }
  - { offsetInCU: 0x3962B, offset: 0x50A7F, size: 0x8, addend: 0x0, symName: __ZNKSt3__13mapIiNS_3setINS_4pairIiNS_12basic_stringIcNS_11char_traitsIcEENS_9allocatorIcEEEEEENS_4lessIS9_EENS6_IS9_EEEENSA_IiEENS6_INS2_IKiSD_EEEEE5beginB8ue170006Ev, symObjAddr: 0x1E4, symBinAddr: 0x10000757C, symSize: 0x38 }
  - { offsetInCU: 0x39651, offset: 0x50AA5, size: 0x8, addend: 0x0, symName: __ZNKSt3__13mapIiNS_3setINS_4pairIiNS_12basic_stringIcNS_11char_traitsIcEENS_9allocatorIcEEEEEENS_4lessIS9_EENS6_IS9_EEEENSA_IiEENS6_INS2_IKiSD_EEEEE3endB8ue170006Ev, symObjAddr: 0x21C, symBinAddr: 0x1000075B4, symSize: 0x38 }
  - { offsetInCU: 0x39677, offset: 0x50ACB, size: 0x8, addend: 0x0, symName: __ZNKSt3__120__map_const_iteratorINS_21__tree_const_iteratorINS_12__value_typeIiNS_3setINS_4pairIiNS_12basic_stringIcNS_11char_traitsIcEENS_9allocatorIcEEEEEENS_4lessISB_EENS8_ISB_EEEEEEPNS_11__tree_nodeISG_PvEElEEEdeB8ue170006Ev, symObjAddr: 0x284, symBinAddr: 0x10000761C, symSize: 0x28 }
  - { offsetInCU: 0x3969D, offset: 0x50AF1, size: 0x8, addend: 0x0, symName: __ZNKSt3__13setINS_4pairIiNS_12basic_stringIcNS_11char_traitsIcEENS_9allocatorIcEEEEEENS_4lessIS8_EENS5_IS8_EEE5beginB8ue170006Ev, symObjAddr: 0x2F4, symBinAddr: 0x10000768C, symSize: 0x2C }
  - { offsetInCU: 0x396C3, offset: 0x50B17, size: 0x8, addend: 0x0, symName: __ZNKSt3__13setINS_4pairIiNS_12basic_stringIcNS_11char_traitsIcEENS_9allocatorIcEEEEEENS_4lessIS8_EENS5_IS8_EEE3endB8ue170006Ev, symObjAddr: 0x320, symBinAddr: 0x1000076B8, symSize: 0x2C }
  - { offsetInCU: 0x396E9, offset: 0x50B3D, size: 0x8, addend: 0x0, symName: __ZNKSt3__121__tree_const_iteratorINS_4pairIiNS_12basic_stringIcNS_11char_traitsIcEENS_9allocatorIcEEEEEEPNS_11__tree_nodeIS8_PvEElEdeB8ue170006Ev, symObjAddr: 0x380, symBinAddr: 0x100007718, symSize: 0x28 }
  - { offsetInCU: 0x3970F, offset: 0x50B63, size: 0x8, addend: 0x0, symName: __ZNSt3__16vectorIiNS_9allocatorIiEEE9push_backB8ue170006ERKi, symObjAddr: 0x4F0, symBinAddr: 0x100007888, symSize: 0x6C }
  - { offsetInCU: 0x39746, offset: 0x50B9A, size: 0x8, addend: 0x0, symName: __ZNSt3__121__tree_const_iteratorINS_4pairIiNS_12basic_stringIcNS_11char_traitsIcEENS_9allocatorIcEEEEEEPNS_11__tree_nodeIS8_PvEElEppB8ue170006Ev, symObjAddr: 0x55C, symBinAddr: 0x1000078F4, symSize: 0x38 }
  - { offsetInCU: 0x3976C, offset: 0x50BC0, size: 0x8, addend: 0x0, symName: __ZNSt3__120__map_const_iteratorINS_21__tree_const_iteratorINS_12__value_typeIiNS_3setINS_4pairIiNS_12basic_stringIcNS_11char_traitsIcEENS_9allocatorIcEEEEEENS_4lessISB_EENS8_ISB_EEEEEEPNS_11__tree_nodeISG_PvEElEEEppB8ue170006Ev, symObjAddr: 0x594, symBinAddr: 0x10000792C, symSize: 0x2C }
  - { offsetInCU: 0x39955, offset: 0x50DA9, size: 0x8, addend: 0x0, symName: __ZN7NetworkC2ERKNSt3__112basic_stringIcNS0_11char_traitsIcEENS0_9allocatorIcEEEES8_, symObjAddr: 0x5EC, symBinAddr: 0x100007958, symSize: 0x4F8 }
  - { offsetInCU: 0x39A00, offset: 0x50E54, size: 0x8, addend: 0x0, symName: __ZNSt3__16vectorINS_12basic_stringIcNS_11char_traitsIcEENS_9allocatorIcEEEENS4_IS6_EEEC1B8ue170006Ev, symObjAddr: 0xAE4, symBinAddr: 0x100007E50, symSize: 0x2C }
  - { offsetInCU: 0x39A2A, offset: 0x50E7E, size: 0x8, addend: 0x0, symName: __ZNSt3__13mapINS_12basic_stringIcNS_11char_traitsIcEENS_9allocatorIcEEEENS_6vectorIiNS4_IiEEEENS_4lessIS6_EENS4_INS_4pairIKS6_S9_EEEEEC1B8ue170006Ev, symObjAddr: 0xB10, symBinAddr: 0x100007E7C, symSize: 0x2C }
  - { offsetInCU: 0x39A54, offset: 0x50EA8, size: 0x8, addend: 0x0, symName: __ZNSt3__13mapINS_12basic_stringIcNS_11char_traitsIcEENS_9allocatorIcEEEENS_4listIS6_NS4_IS6_EEEENS_4lessIS6_EENS4_INS_4pairIKS6_S9_EEEEEC1B8ue170006Ev, symObjAddr: 0xB3C, symBinAddr: 0x100007EA8, symSize: 0x2C }
  - { offsetInCU: 0x39A7E, offset: 0x50ED2, size: 0x8, addend: 0x0, symName: __ZNSt3__13mapINS_12basic_stringIcNS_11char_traitsIcEENS_9allocatorIcEEEENS_3setINS_4pairIS6_S6_EENS_4lessIS9_EENS4_IS9_EEEENSA_IS6_EENS4_INS8_IKS6_SD_EEEEEC1B8ue170006Ev, symObjAddr: 0xB68, symBinAddr: 0x100007ED4, symSize: 0x2C }
  - { offsetInCU: 0x39AA8, offset: 0x50EFC, size: 0x8, addend: 0x0, symName: __ZNSt3__13mapINS_12basic_stringIcNS_11char_traitsIcEENS_9allocatorIcEEEENS_4listIiNS4_IiEEEENS_4lessIS6_EENS4_INS_4pairIKS6_S9_EEEEEC1B8ue170006Ev, symObjAddr: 0xB94, symBinAddr: 0x100007F00, symSize: 0x2C }
  - { offsetInCU: 0x39BF9, offset: 0x5104D, size: 0x8, addend: 0x0, symName: __ZNSt3__114basic_ifstreamIcNS_11char_traitsIcEEEC1ERKNS_12basic_stringIcS2_NS_9allocatorIcEEEEj, symObjAddr: 0xBC0, symBinAddr: 0x100007F2C, symSize: 0x16C }
  - { offsetInCU: 0x39C43, offset: 0x51097, size: 0x8, addend: 0x0, symName: __ZNSt3__112basic_stringIcNS_11char_traitsIcEENS_9allocatorIcEEEC1B8ue170006Ev, symObjAddr: 0xD2C, symBinAddr: 0x100008098, symSize: 0x2C }
  - { offsetInCU: 0x39C6D, offset: 0x510C1, size: 0x8, addend: 0x0, symName: __ZNKSt3__19basic_iosIcNS_11char_traitsIcEEEcvbB8ue170006Ev, symObjAddr: 0x1074, symBinAddr: 0x1000083E0, symSize: 0x2C }
  - { offsetInCU: 0x39C93, offset: 0x510E7, size: 0x8, addend: 0x0, symName: __ZNSt3__13mapINS_12basic_stringIcNS_11char_traitsIcEENS_9allocatorIcEEEENS_4listIS6_NS4_IS6_EEEENS_4lessIS6_EENS4_INS_4pairIKS6_S9_EEEEE6insertB8ue170006EOSE_, symObjAddr: 0x10A0, symBinAddr: 0x10000840C, symSize: 0x4C }
  - { offsetInCU: 0x39CC8, offset: 0x5111C, size: 0x8, addend: 0x0, symName: __ZNSt3__14listINS_12basic_stringIcNS_11char_traitsIcEENS_9allocatorIcEEEENS4_IS6_EEEC1B8ue170006Ev, symObjAddr: 0x10EC, symBinAddr: 0x100008458, symSize: 0x2C }
  - { offsetInCU: 0x39CF2, offset: 0x51146, size: 0x8, addend: 0x0, symName: __ZNSt3__14pairIKNS_12basic_stringIcNS_11char_traitsIcEENS_9allocatorIcEEEENS_4listIS6_NS4_IS6_EEEEEC1B8ue170006IRS6_SA_LPv0EEEOT_OT0_, symObjAddr: 0x1118, symBinAddr: 0x100008484, symSize: 0x3C }
  - { offsetInCU: 0x39D51, offset: 0x511A5, size: 0x8, addend: 0x0, symName: __ZNSt3__13mapINS_12basic_stringIcNS_11char_traitsIcEENS_9allocatorIcEEEENS_3setINS_4pairIS6_S6_EENS_4lessIS9_EENS4_IS9_EEEENSA_IS6_EENS4_INS8_IKS6_SD_EEEEE6insertB8ue170006EOSG_, symObjAddr: 0x11AC, symBinAddr: 0x1000084C0, symSize: 0x4C }
  - { offsetInCU: 0x39D86, offset: 0x511DA, size: 0x8, addend: 0x0, symName: __ZNSt3__13setINS_4pairINS_12basic_stringIcNS_11char_traitsIcEENS_9allocatorIcEEEES7_EENS_4lessIS8_EENS5_IS8_EEEC1B8ue170006Ev, symObjAddr: 0x11F8, symBinAddr: 0x10000850C, symSize: 0x2C }
  - { offsetInCU: 0x39DB0, offset: 0x51204, size: 0x8, addend: 0x0, symName: __ZNSt3__14pairIKNS_12basic_stringIcNS_11char_traitsIcEENS_9allocatorIcEEEENS_3setINS0_IS6_S6_EENS_4lessIS9_EENS4_IS9_EEEEEC1B8ue170006IRS6_SD_LPv0EEEOT_OT0_, symObjAddr: 0x1224, symBinAddr: 0x100008538, symSize: 0x3C }
  - { offsetInCU: 0x39E0F, offset: 0x51263, size: 0x8, addend: 0x0, symName: __ZNSt3__16vectorINS_12basic_stringIcNS_11char_traitsIcEENS_9allocatorIcEEEENS4_IS6_EEE9push_backB8ue170006ERKS6_, symObjAddr: 0x12B8, symBinAddr: 0x100008574, symSize: 0x6C }
  - { offsetInCU: 0x39E46, offset: 0x5129A, size: 0x8, addend: 0x0, symName: __ZNSt3__13mapINS_12basic_stringIcNS_11char_traitsIcEENS_9allocatorIcEEEENS_4listIS6_NS4_IS6_EEEENS_4lessIS6_EENS4_INS_4pairIKS6_S9_EEEEEixERSD_, symObjAddr: 0x1324, symBinAddr: 0x1000085E0, symSize: 0x80 }
  - { offsetInCU: 0x39E7D, offset: 0x512D1, size: 0x8, addend: 0x0, symName: __ZNSt3__14listINS_12basic_stringIcNS_11char_traitsIcEENS_9allocatorIcEEEENS4_IS6_EEE9push_backERKS6_, symObjAddr: 0x13A4, symBinAddr: 0x100008660, symSize: 0xF4 }
  - { offsetInCU: 0x39ED2, offset: 0x51326, size: 0x8, addend: 0x0, symName: __ZNSt3__13mapINS_12basic_stringIcNS_11char_traitsIcEENS_9allocatorIcEEEENS_3setINS_4pairIS6_S6_EENS_4lessIS9_EENS4_IS9_EEEENSA_IS6_EENS4_INS8_IKS6_SD_EEEEEixERSF_, symObjAddr: 0x1498, symBinAddr: 0x100008754, symSize: 0x80 }
  - { offsetInCU: 0x39F09, offset: 0x5135D, size: 0x8, addend: 0x0, symName: __ZNSt3__13setINS_4pairINS_12basic_stringIcNS_11char_traitsIcEENS_9allocatorIcEEEES7_EENS_4lessIS8_EENS5_IS8_EEE6insertB8ue170006EOS8_, symObjAddr: 0x1518, symBinAddr: 0x1000087D4, symSize: 0x4C }
  - { offsetInCU: 0x39F43, offset: 0x51397, size: 0x8, addend: 0x0, symName: __ZNSt3__114basic_ifstreamIcNS_11char_traitsIcEEED1Ev, symObjAddr: 0x15D0, symBinAddr: 0x100008860, symSize: 0x40 }
  - { offsetInCU: 0x39F70, offset: 0x513C4, size: 0x8, addend: 0x0, symName: __ZN7NetworkC1ERKNSt3__112basic_stringIcNS0_11char_traitsIcEENS0_9allocatorIcEEEES8_, symObjAddr: 0x16EC, symBinAddr: 0x1000088A0, symSize: 0x3C }
  - { offsetInCU: 0x39FB8, offset: 0x5140C, size: 0x8, addend: 0x0, symName: __ZN7Network13GetNextToListENSt3__112basic_stringIcNS0_11char_traitsIcEENS0_9allocatorIcEEEE, symObjAddr: 0x1728, symBinAddr: 0x1000088DC, symSize: 0x30 }
  - { offsetInCU: 0x39FEF, offset: 0x51443, size: 0x8, addend: 0x0, symName: __ZNK7Network12AreConnectedENSt3__112basic_stringIcNS0_11char_traitsIcEENS0_9allocatorIcEEEES6_, symObjAddr: 0x1758, symBinAddr: 0x10000890C, symSize: 0x328 }
  - { offsetInCU: 0x3A0F1, offset: 0x51545, size: 0x8, addend: 0x0, symName: __ZNSt3__15queueINS_12basic_stringIcNS_11char_traitsIcEENS_9allocatorIcEEEENS_5dequeIS6_NS4_IS6_EEEEEC1B8ue170006Ev, symObjAddr: 0x1A80, symBinAddr: 0x100008C34, symSize: 0x2C }
  - { offsetInCU: 0x3A11B, offset: 0x5156F, size: 0x8, addend: 0x0, symName: __ZNSt3__13mapINS_12basic_stringIcNS_11char_traitsIcEENS_9allocatorIcEEEES6_NS_4lessIS6_EENS4_INS_4pairIKS6_S6_EEEEEC1B8ue170006Ev, symObjAddr: 0x1AAC, symBinAddr: 0x100008C60, symSize: 0x2C }
  - { offsetInCU: 0x3A145, offset: 0x51599, size: 0x8, addend: 0x0, symName: __ZNSt3__15queueINS_12basic_stringIcNS_11char_traitsIcEENS_9allocatorIcEEEENS_5dequeIS6_NS4_IS6_EEEEE4pushB8ue170006ERKS6_, symObjAddr: 0x1AD8, symBinAddr: 0x100008C8C, symSize: 0x2C }
  - { offsetInCU: 0x3A17A, offset: 0x515CE, size: 0x8, addend: 0x0, symName: __ZNSt3__13mapINS_12basic_stringIcNS_11char_traitsIcEENS_9allocatorIcEEEES6_NS_4lessIS6_EENS4_INS_4pairIKS6_S6_EEEEE6insertB8ue170006EOSB_, symObjAddr: 0x1B04, symBinAddr: 0x100008CB8, symSize: 0x4C }
  - { offsetInCU: 0x3A1AF, offset: 0x51603, size: 0x8, addend: 0x0, symName: __ZNSt3__14pairIKNS_12basic_stringIcNS_11char_traitsIcEENS_9allocatorIcEEEES6_EC1B8ue170006IRS6_SA_LPv0EEEOT_OT0_, symObjAddr: 0x1B50, symBinAddr: 0x100008D04, symSize: 0x3C }
  - { offsetInCU: 0x3A20E, offset: 0x51662, size: 0x8, addend: 0x0, symName: __ZNSt3__14pairIKNS_12basic_stringIcNS_11char_traitsIcEENS_9allocatorIcEEEES6_ED1Ev, symObjAddr: 0x1B8C, symBinAddr: 0x100008D40, symSize: 0x2C }
  - { offsetInCU: 0x3A23A, offset: 0x5168E, size: 0x8, addend: 0x0, symName: __ZNKSt3__15queueINS_12basic_stringIcNS_11char_traitsIcEENS_9allocatorIcEEEENS_5dequeIS6_NS4_IS6_EEEEE5emptyB8ue170006Ev, symObjAddr: 0x1BB8, symBinAddr: 0x100008D6C, symSize: 0x28 }
  - { offsetInCU: 0x3A260, offset: 0x516B4, size: 0x8, addend: 0x0, symName: __ZNSt3__15queueINS_12basic_stringIcNS_11char_traitsIcEENS_9allocatorIcEEEENS_5dequeIS6_NS4_IS6_EEEEE5frontB8ue170006Ev, symObjAddr: 0x1BE0, symBinAddr: 0x100008D94, symSize: 0x24 }
  - { offsetInCU: 0x3A286, offset: 0x516DA, size: 0x8, addend: 0x0, symName: __ZNKSt3__13mapINS_12basic_stringIcNS_11char_traitsIcEENS_9allocatorIcEEEENS_4listIS6_NS4_IS6_EEEENS_4lessIS6_EENS4_INS_4pairIKS6_S9_EEEEE2atERSD_, symObjAddr: 0x1C04, symBinAddr: 0x100008DB8, symSize: 0x68 }
  - { offsetInCU: 0x3A2DB, offset: 0x5172F, size: 0x8, addend: 0x0, symName: __ZNKSt3__14listINS_12basic_stringIcNS_11char_traitsIcEENS_9allocatorIcEEEENS4_IS6_EEE5beginB8ue170006Ev, symObjAddr: 0x1C6C, symBinAddr: 0x100008E20, symSize: 0x2C }
  - { offsetInCU: 0x3A301, offset: 0x51755, size: 0x8, addend: 0x0, symName: __ZNKSt3__14listINS_12basic_stringIcNS_11char_traitsIcEENS_9allocatorIcEEEENS4_IS6_EEE3endB8ue170006Ev, symObjAddr: 0x1C98, symBinAddr: 0x100008E4C, symSize: 0x2C }
  - { offsetInCU: 0x3A327, offset: 0x5177B, size: 0x8, addend: 0x0, symName: __ZNKSt3__121__list_const_iteratorINS_12basic_stringIcNS_11char_traitsIcEENS_9allocatorIcEEEEPvEdeB8ue170006Ev, symObjAddr: 0x1CF8, symBinAddr: 0x100008EAC, symSize: 0x2C }
  - { offsetInCU: 0x3A34D, offset: 0x517A1, size: 0x8, addend: 0x0, symName: __ZNKSt3__13mapINS_12basic_stringIcNS_11char_traitsIcEENS_9allocatorIcEEEES6_NS_4lessIS6_EENS4_INS_4pairIKS6_S6_EEEEE5countB8ue170006ERSA_, symObjAddr: 0x1D24, symBinAddr: 0x100008ED8, symSize: 0x2C }
  - { offsetInCU: 0x3A382, offset: 0x517D6, size: 0x8, addend: 0x0, symName: __ZNSt3__121__list_const_iteratorINS_12basic_stringIcNS_11char_traitsIcEENS_9allocatorIcEEEEPvEppB8ue170006Ev, symObjAddr: 0x1D50, symBinAddr: 0x100008F04, symSize: 0x20 }
  - { offsetInCU: 0x3A3A8, offset: 0x517FC, size: 0x8, addend: 0x0, symName: __ZNSt3__15queueINS_12basic_stringIcNS_11char_traitsIcEENS_9allocatorIcEEEENS_5dequeIS6_NS4_IS6_EEEEE3popB8ue170006Ev, symObjAddr: 0x1D70, symBinAddr: 0x100008F24, symSize: 0x24 }
  - { offsetInCU: 0x3A3CE, offset: 0x51822, size: 0x8, addend: 0x0, symName: __ZNSt3__13mapINS_12basic_stringIcNS_11char_traitsIcEENS_9allocatorIcEEEES6_NS_4lessIS6_EENS4_INS_4pairIKS6_S6_EEEEED1B8ue170006Ev, symObjAddr: 0x1D94, symBinAddr: 0x100008F48, symSize: 0x2C }
  - { offsetInCU: 0x3A3F8, offset: 0x5184C, size: 0x8, addend: 0x0, symName: __ZNSt3__15queueINS_12basic_stringIcNS_11char_traitsIcEENS_9allocatorIcEEEENS_5dequeIS6_NS4_IS6_EEEEED1Ev, symObjAddr: 0x1DC0, symBinAddr: 0x100008F74, symSize: 0x2C }
  - { offsetInCU: 0x3A425, offset: 0x51879, size: 0x8, addend: 0x0, symName: __ZNK7Network20AreConnectedSpecificENSt3__112basic_stringIcNS0_11char_traitsIcEENS0_9allocatorIcEEEES6_RKS6_, symObjAddr: 0x1DEC, symBinAddr: 0x100008FA0, symSize: 0x344 }
  - { offsetInCU: 0x3A4F9, offset: 0x5194D, size: 0x8, addend: 0x0, symName: __ZNKSt3__13mapINS_12basic_stringIcNS_11char_traitsIcEENS_9allocatorIcEEEENS_3setINS_4pairIS6_S6_EENS_4lessIS9_EENS4_IS9_EEEENSA_IS6_EENS4_INS8_IKS6_SD_EEEEE2atERSF_, symObjAddr: 0x2130, symBinAddr: 0x1000092E4, symSize: 0x68 }
  - { offsetInCU: 0x3A54E, offset: 0x519A2, size: 0x8, addend: 0x0, symName: __ZNKSt3__13setINS_4pairINS_12basic_stringIcNS_11char_traitsIcEENS_9allocatorIcEEEES7_EENS_4lessIS8_EENS5_IS8_EEE5beginB8ue170006Ev, symObjAddr: 0x2198, symBinAddr: 0x10000934C, symSize: 0x2C }
  - { offsetInCU: 0x3A574, offset: 0x519C8, size: 0x8, addend: 0x0, symName: __ZNKSt3__13setINS_4pairINS_12basic_stringIcNS_11char_traitsIcEENS_9allocatorIcEEEES7_EENS_4lessIS8_EENS5_IS8_EEE3endB8ue170006Ev, symObjAddr: 0x21C4, symBinAddr: 0x100009378, symSize: 0x2C }
  - { offsetInCU: 0x3A59A, offset: 0x519EE, size: 0x8, addend: 0x0, symName: __ZNKSt3__121__tree_const_iteratorINS_4pairINS_12basic_stringIcNS_11char_traitsIcEENS_9allocatorIcEEEES7_EEPNS_11__tree_nodeIS8_PvEElEdeB8ue170006Ev, symObjAddr: 0x2224, symBinAddr: 0x1000093D8, symSize: 0x28 }
  - { offsetInCU: 0x3A5C0, offset: 0x51A14, size: 0x8, addend: 0x0, symName: __ZNSt3__14pairINS_12basic_stringIcNS_11char_traitsIcEENS_9allocatorIcEEEES6_EC1B8ue170006ERKS7_, symObjAddr: 0x224C, symBinAddr: 0x100009400, symSize: 0x34 }
  - { offsetInCU: 0x3A5F5, offset: 0x51A49, size: 0x8, addend: 0x0, symName: __ZNSt3__121__tree_const_iteratorINS_4pairINS_12basic_stringIcNS_11char_traitsIcEENS_9allocatorIcEEEES7_EEPNS_11__tree_nodeIS8_PvEElEppB8ue170006Ev, symObjAddr: 0x2280, symBinAddr: 0x100009434, symSize: 0x38 }
  - { offsetInCU: 0x3A61B, offset: 0x51A6F, size: 0x8, addend: 0x0, symName: __ZNK7Network18ShortestPathLenghtENSt3__112basic_stringIcNS0_11char_traitsIcEENS0_9allocatorIcEEEES6_, symObjAddr: 0x22B8, symBinAddr: 0x10000946C, symSize: 0x388 }
  - { offsetInCU: 0x3A71D, offset: 0x51B71, size: 0x8, addend: 0x0, symName: __ZNSt3__15queueINS_4pairINS_12basic_stringIcNS_11char_traitsIcEENS_9allocatorIcEEEEiEENS_5dequeIS8_NS5_IS8_EEEEEC1B8ue170006Ev, symObjAddr: 0x2640, symBinAddr: 0x1000097F4, symSize: 0x2C }
  - { offsetInCU: 0x3A81E, offset: 0x51C72, size: 0x8, addend: 0x0, symName: __ZNSt3__113unordered_mapINS_12basic_stringIcNS_11char_traitsIcEENS_9allocatorIcEEEES6_NS_4hashIS6_EENS_8equal_toIS6_EENS4_INS_4pairIKS6_S6_EEEEEC1B8ue170006Ev, symObjAddr: 0x266C, symBinAddr: 0x100009820, symSize: 0x2C }
  - { offsetInCU: 0x3A848, offset: 0x51C9C, size: 0x8, addend: 0x0, symName: __ZNSt3__15queueINS_4pairINS_12basic_stringIcNS_11char_traitsIcEENS_9allocatorIcEEEEiEENS_5dequeIS8_NS5_IS8_EEEEE4pushB8ue170006EOS8_, symObjAddr: 0x2698, symBinAddr: 0x10000984C, symSize: 0x2C }
  - { offsetInCU: 0x3A882, offset: 0x51CD6, size: 0x8, addend: 0x0, symName: __ZNSt3__14pairINS_12basic_stringIcNS_11char_traitsIcEENS_9allocatorIcEEEEiEC1B8ue170006IRS6_iLPv0EEEOT_OT0_, symObjAddr: 0x26C4, symBinAddr: 0x100009878, symSize: 0x3C }
  - { offsetInCU: 0x3A8E1, offset: 0x51D35, size: 0x8, addend: 0x0, symName: __ZNSt3__14pairINS_12basic_stringIcNS_11char_traitsIcEENS_9allocatorIcEEEEiED1Ev, symObjAddr: 0x2700, symBinAddr: 0x1000098B4, symSize: 0x2C }
  - { offsetInCU: 0x3A90D, offset: 0x51D61, size: 0x8, addend: 0x0, symName: __ZNSt3__113unordered_mapINS_12basic_stringIcNS_11char_traitsIcEENS_9allocatorIcEEEES6_NS_4hashIS6_EENS_8equal_toIS6_EENS4_INS_4pairIKS6_S6_EEEEE6insertB8ue170006EOSD_, symObjAddr: 0x272C, symBinAddr: 0x1000098E0, symSize: 0x4C }
  - { offsetInCU: 0x3A942, offset: 0x51D96, size: 0x8, addend: 0x0, symName: __ZNKSt3__15queueINS_4pairINS_12basic_stringIcNS_11char_traitsIcEENS_9allocatorIcEEEEiEENS_5dequeIS8_NS5_IS8_EEEEE5emptyB8ue170006Ev, symObjAddr: 0x2778, symBinAddr: 0x10000992C, symSize: 0x28 }
  - { offsetInCU: 0x3A968, offset: 0x51DBC, size: 0x8, addend: 0x0, symName: __ZNSt3__15queueINS_4pairINS_12basic_stringIcNS_11char_traitsIcEENS_9allocatorIcEEEEiEENS_5dequeIS8_NS5_IS8_EEEEE5frontB8ue170006Ev, symObjAddr: 0x27A0, symBinAddr: 0x100009954, symSize: 0x24 }
  - { offsetInCU: 0x3A98E, offset: 0x51DE2, size: 0x8, addend: 0x0, symName: __ZNSt3__14pairINS_12basic_stringIcNS_11char_traitsIcEENS_9allocatorIcEEEEiEC1B8ue170006ERKS7_, symObjAddr: 0x27C4, symBinAddr: 0x100009978, symSize: 0x34 }
  - { offsetInCU: 0x3A9C3, offset: 0x51E17, size: 0x8, addend: 0x0, symName: __ZNKSt3__113unordered_mapINS_12basic_stringIcNS_11char_traitsIcEENS_9allocatorIcEEEES6_NS_4hashIS6_EENS_8equal_toIS6_EENS4_INS_4pairIKS6_S6_EEEEE5countB8ue170006ERSC_, symObjAddr: 0x27F8, symBinAddr: 0x1000099AC, symSize: 0x2C }
  - { offsetInCU: 0x3A9F8, offset: 0x51E4C, size: 0x8, addend: 0x0, symName: __ZNSt3__15queueINS_4pairINS_12basic_stringIcNS_11char_traitsIcEENS_9allocatorIcEEEEiEENS_5dequeIS8_NS5_IS8_EEEEE3popB8ue170006Ev, symObjAddr: 0x2824, symBinAddr: 0x1000099D8, symSize: 0x24 }
  - { offsetInCU: 0x3AA1E, offset: 0x51E72, size: 0x8, addend: 0x0, symName: __ZNSt3__113unordered_mapINS_12basic_stringIcNS_11char_traitsIcEENS_9allocatorIcEEEES6_NS_4hashIS6_EENS_8equal_toIS6_EENS4_INS_4pairIKS6_S6_EEEEED1B8ue170006Ev, symObjAddr: 0x2848, symBinAddr: 0x1000099FC, symSize: 0x2C }
  - { offsetInCU: 0x3AA48, offset: 0x51E9C, size: 0x8, addend: 0x0, symName: __ZNSt3__15queueINS_4pairINS_12basic_stringIcNS_11char_traitsIcEENS_9allocatorIcEEEEiEENS_5dequeIS8_NS5_IS8_EEEEED1Ev, symObjAddr: 0x2874, symBinAddr: 0x100009A28, symSize: 0x2C }
  - { offsetInCU: 0x3AA75, offset: 0x51EC9, size: 0x8, addend: 0x0, symName: __ZNK7Network26ShortestPathLenghtSpecificENSt3__112basic_stringIcNS0_11char_traitsIcEENS0_9allocatorIcEEEES6_RKS6_, symObjAddr: 0x28A0, symBinAddr: 0x100009A54, symSize: 0x3A4 }
  - { offsetInCU: 0x3AB49, offset: 0x51F9D, size: 0x8, addend: 0x0, symName: __ZNK7Network7GetPathENSt3__112basic_stringIcNS0_11char_traitsIcEENS0_9allocatorIcEEEEi, symObjAddr: 0x2C44, symBinAddr: 0x100009DF8, symSize: 0x470 }
  - { offsetInCU: 0x3AD50, offset: 0x521A4, size: 0x8, addend: 0x0, symName: __ZNSt3__14listINS_4pairINS_12basic_stringIcNS_11char_traitsIcEENS_9allocatorIcEEEEiEENS5_IS8_EEEC1B8ue170006Ev, symObjAddr: 0x30B4, symBinAddr: 0x10000A268, symSize: 0x2C }
  - { offsetInCU: 0x3AD7A, offset: 0x521CE, size: 0x8, addend: 0x0, symName: __ZNSt3__14listINS_4pairINS_12basic_stringIcNS_11char_traitsIcEENS_9allocatorIcEEEEiEENS5_IS8_EEE9push_backERKS8_, symObjAddr: 0x30E0, symBinAddr: 0x10000A294, symSize: 0xF4 }
  - { offsetInCU: 0x3ADCF, offset: 0x52223, size: 0x8, addend: 0x0, symName: __ZNSt3__14listINS_4pairINS_12basic_stringIcNS_11char_traitsIcEENS_9allocatorIcEEEEiEENS5_IS8_EEE5beginB8ue170006Ev, symObjAddr: 0x31D4, symBinAddr: 0x10000A388, symSize: 0x2C }
  - { offsetInCU: 0x3ADF5, offset: 0x52249, size: 0x8, addend: 0x0, symName: __ZNSt3__14listINS_4pairINS_12basic_stringIcNS_11char_traitsIcEENS_9allocatorIcEEEEiEENS5_IS8_EEE3endB8ue170006Ev, symObjAddr: 0x3200, symBinAddr: 0x10000A3B4, symSize: 0x2C }
  - { offsetInCU: 0x3AE1B, offset: 0x5226F, size: 0x8, addend: 0x0, symName: __ZNKSt3__115__list_iteratorINS_4pairINS_12basic_stringIcNS_11char_traitsIcEENS_9allocatorIcEEEEiEEPvEdeB8ue170006Ev, symObjAddr: 0x3260, symBinAddr: 0x10000A414, symSize: 0x2C }
  - { offsetInCU: 0x3AE41, offset: 0x52295, size: 0x8, addend: 0x0, symName: __ZNSt3__115__list_iteratorINS_4pairINS_12basic_stringIcNS_11char_traitsIcEENS_9allocatorIcEEEEiEEPvEppB8ue170006Ev, symObjAddr: 0x328C, symBinAddr: 0x10000A440, symSize: 0x20 }
  - { offsetInCU: 0x3AE67, offset: 0x522BB, size: 0x8, addend: 0x0, symName: __ZNSt3__14listINS_4pairINS_12basic_stringIcNS_11char_traitsIcEENS_9allocatorIcEEEEiEENS5_IS8_EEED1Ev, symObjAddr: 0x32AC, symBinAddr: 0x10000A460, symSize: 0x2C }
  - { offsetInCU: 0x3AE94, offset: 0x522E8, size: 0x8, addend: 0x0, symName: __ZNK7Network13CountTopologyEv, symObjAddr: 0x32D8, symBinAddr: 0x10000A48C, symSize: 0x470 }
  - { offsetInCU: 0x3AFA0, offset: 0x523F4, size: 0x8, addend: 0x0, symName: __ZNSt3__16vectorINS_12basic_stringIcNS_11char_traitsIcEENS_9allocatorIcEEEENS4_IS6_EEEC1ERKS8_, symObjAddr: 0x3748, symBinAddr: 0x10000A8FC, symSize: 0x34 }
  - { offsetInCU: 0x3AFDB, offset: 0x5242F, size: 0x8, addend: 0x0, symName: __ZNKSt3__16vectorINS_12basic_stringIcNS_11char_traitsIcEENS_9allocatorIcEEEENS4_IS6_EEE5emptyB8ue170006Ev, symObjAddr: 0x377C, symBinAddr: 0x10000A930, symSize: 0x28 }
  - { offsetInCU: 0x3B001, offset: 0x52455, size: 0x8, addend: 0x0, symName: __ZNSt3__16vectorINS_12basic_stringIcNS_11char_traitsIcEENS_9allocatorIcEEEENS4_IS6_EEE2atEm, symObjAddr: 0x37CC, symBinAddr: 0x10000A958, symSize: 0x68 }
  - { offsetInCU: 0x3B04E, offset: 0x524A2, size: 0x8, addend: 0x0, symName: __ZNSt3__14pairIKNS_12basic_stringIcNS_11char_traitsIcEENS_9allocatorIcEEEES6_EC1B8ue170006IRS6_RA9_KcLPv0EEEOT_OT0_, symObjAddr: 0x3834, symBinAddr: 0x10000A9C0, symSize: 0x3C }
  - { offsetInCU: 0x3B0AD, offset: 0x52501, size: 0x8, addend: 0x0, symName: __ZNSt3__13mapINS_12basic_stringIcNS_11char_traitsIcEENS_9allocatorIcEEEES6_NS_4lessIS6_EENS4_INS_4pairIKS6_S6_EEEEEixERSA_, symObjAddr: 0x38CC, symBinAddr: 0x10000AA58, symSize: 0x80 }
  - { offsetInCU: 0x3B0E4, offset: 0x52538, size: 0x8, addend: 0x0, symName: __ZNSt3__112basic_stringIcNS_11char_traitsIcEENS_9allocatorIcEEEaSB8ue170006EPKc, symObjAddr: 0x394C, symBinAddr: 0x10000AAD8, symSize: 0x2C }
  - { offsetInCU: 0x3B119, offset: 0x5256D, size: 0x8, addend: 0x0, symName: __ZNK7Network13CountTopologyERKNSt3__112basic_stringIcNS0_11char_traitsIcEENS0_9allocatorIcEEEE, symObjAddr: 0x3978, symBinAddr: 0x10000AB04, symSize: 0x48C }
  - { offsetInCU: 0x3B233, offset: 0x52687, size: 0x8, addend: 0x0, symName: __ZNK7Network21CountTopologySpecificERKNSt3__16vectorINS0_12basic_stringIcNS0_11char_traitsIcEENS0_9allocatorIcEEEENS5_IS7_EEEE, symObjAddr: 0x3E04, symBinAddr: 0x10000AF90, symSize: 0x574 }
  - { offsetInCU: 0x3B4BE, offset: 0x52912, size: 0x8, addend: 0x0, symName: __ZNSt3__13setINS_12basic_stringIcNS_11char_traitsIcEENS_9allocatorIcEEEENS_4lessIS6_EENS4_IS6_EEEC1B8ue170006Ev, symObjAddr: 0x4378, symBinAddr: 0x10000B504, symSize: 0x2C }
  - { offsetInCU: 0x3B4E8, offset: 0x5293C, size: 0x8, addend: 0x0, symName: __ZNKSt3__16vectorINS_12basic_stringIcNS_11char_traitsIcEENS_9allocatorIcEEEENS4_IS6_EEE5beginB8ue170006Ev, symObjAddr: 0x43A4, symBinAddr: 0x10000B530, symSize: 0x30 }
  - { offsetInCU: 0x3B510, offset: 0x52964, size: 0x8, addend: 0x0, symName: __ZNKSt3__16vectorINS_12basic_stringIcNS_11char_traitsIcEENS_9allocatorIcEEEENS4_IS6_EEE3endB8ue170006Ev, symObjAddr: 0x43D4, symBinAddr: 0x10000B560, symSize: 0x30 }
  - { offsetInCU: 0x3B538, offset: 0x5298C, size: 0x8, addend: 0x0, symName: __ZNKSt3__111__wrap_iterIPKNS_12basic_stringIcNS_11char_traitsIcEENS_9allocatorIcEEEEEdeB8ue170006Ev, symObjAddr: 0x4438, symBinAddr: 0x10000B5C4, symSize: 0x18 }
  - { offsetInCU: 0x3B55E, offset: 0x529B2, size: 0x8, addend: 0x0, symName: __ZNSt3__13setINS_12basic_stringIcNS_11char_traitsIcEENS_9allocatorIcEEEENS_4lessIS6_EENS4_IS6_EEE6insertB8ue170006ERKS6_, symObjAddr: 0x4450, symBinAddr: 0x10000B5DC, symSize: 0x4C }
  - { offsetInCU: 0x3B593, offset: 0x529E7, size: 0x8, addend: 0x0, symName: __ZNSt3__111__wrap_iterIPKNS_12basic_stringIcNS_11char_traitsIcEENS_9allocatorIcEEEEEppB8ue170006Ev, symObjAddr: 0x449C, symBinAddr: 0x10000B628, symSize: 0x20 }
  - { offsetInCU: 0x3B5B9, offset: 0x52A0D, size: 0x8, addend: 0x0, symName: __ZNKSt3__13setINS_12basic_stringIcNS_11char_traitsIcEENS_9allocatorIcEEEENS_4lessIS6_EENS4_IS6_EEE5countB8ue170006ERKS6_, symObjAddr: 0x44BC, symBinAddr: 0x10000B648, symSize: 0x2C }
  - { offsetInCU: 0x3B5EE, offset: 0x52A42, size: 0x8, addend: 0x0, symName: __ZNSt3__13setINS_12basic_stringIcNS_11char_traitsIcEENS_9allocatorIcEEEENS_4lessIS6_EENS4_IS6_EEED1B8ue170006Ev, symObjAddr: 0x44E8, symBinAddr: 0x10000B674, symSize: 0x2C }
  - { offsetInCU: 0x3B618, offset: 0x52A6C, size: 0x8, addend: 0x0, symName: __ZNSt3__16vectorIiNS_9allocatorIiEEEC2B8ue170006Ev, symObjAddr: 0x4514, symBinAddr: 0x10000B6A0, symSize: 0x4C }
  - { offsetInCU: 0x3B64C, offset: 0x52AA0, size: 0x8, addend: 0x0, symName: __ZNSt3__117__compressed_pairIPiNS_9allocatorIiEEEC1B8ue170006IDnNS_18__default_init_tagEEEOT_OT0_, symObjAddr: 0x4560, symBinAddr: 0x10000B6EC, symSize: 0x3C }
  - { offsetInCU: 0x3B6A4, offset: 0x52AF8, size: 0x8, addend: 0x0, symName: __ZNSt3__117__compressed_pairIPiNS_9allocatorIiEEEC2B8ue170006IDnNS_18__default_init_tagEEEOT_OT0_, symObjAddr: 0x45A8, symBinAddr: 0x10000B728, symSize: 0x40 }
  - { offsetInCU: 0x3B6FC, offset: 0x52B50, size: 0x8, addend: 0x0, symName: __ZNSt3__122__compressed_pair_elemIPiLi0ELb0EEC2B8ue170006IDnvEEOT_, symObjAddr: 0x45E8, symBinAddr: 0x10000B768, symSize: 0x1C }
  - { offsetInCU: 0x3B73E, offset: 0x52B92, size: 0x8, addend: 0x0, symName: __ZNSt3__122__compressed_pair_elemINS_9allocatorIiEELi1ELb1EEC2B8ue170006ENS_18__default_init_tagE, symObjAddr: 0x4604, symBinAddr: 0x10000B784, symSize: 0x2C }
  - { offsetInCU: 0x3B773, offset: 0x52BC7, size: 0x8, addend: 0x0, symName: __ZNSt3__19allocatorIiEC2B8ue170006Ev, symObjAddr: 0x4630, symBinAddr: 0x10000B7B0, symSize: 0x2C }
  - { offsetInCU: 0x3B79D, offset: 0x52BF1, size: 0x8, addend: 0x0, symName: __ZNSt3__116__non_trivial_ifILb1ENS_9allocatorIiEEEC2B8ue170006Ev, symObjAddr: 0x465C, symBinAddr: 0x10000B7DC, symSize: 0x14 }
  - { offsetInCU: 0x3B7C7, offset: 0x52C1B, size: 0x8, addend: 0x0, symName: __ZNSt3__110__get_pairILm0EE3getB8ue170006IKiNS_3setINS_4pairIiNS_12basic_stringIcNS_11char_traitsIcEENS_9allocatorIcEEEEEENS_4lessISC_EENS9_ISC_EEEEEERKT_RKNS5_ISH_T0_EE, symObjAddr: 0x4670, symBinAddr: 0x10000B7F0, symSize: 0x14 }
  - { offsetInCU: 0x3B7FD, offset: 0x52C51, size: 0x8, addend: 0x0, symName: __ZNSt3__110__get_pairILm1EE3getB8ue170006IKiNS_3setINS_4pairIiNS_12basic_stringIcNS_11char_traitsIcEENS_9allocatorIcEEEEEENS_4lessISC_EENS9_ISC_EEEEEERKT0_RKNS5_IT_SH_EE, symObjAddr: 0x4684, symBinAddr: 0x10000B804, symSize: 0x18 }
  - { offsetInCU: 0x3B833, offset: 0x52C87, size: 0x8, addend: 0x0, symName: __ZNKSt3__112basic_stringIcNS_11char_traitsIcEENS_9allocatorIcEEE4sizeB8ue170006Ev, symObjAddr: 0x469C, symBinAddr: 0x10000B81C, symSize: 0x54 }
  - { offsetInCU: 0x3B859, offset: 0x52CAD, size: 0x8, addend: 0x0, symName: __ZNKSt3__112basic_stringIcNS_11char_traitsIcEENS_9allocatorIcEEE4dataB8ue170006Ev, symObjAddr: 0x46F0, symBinAddr: 0x10000B870, symSize: 0x28 }
  - { offsetInCU: 0x3B87F, offset: 0x52CD3, size: 0x8, addend: 0x0, symName: __ZNSt3__111char_traitsIcE7compareB8ue170006EPKcS3_m, symObjAddr: 0x4750, symBinAddr: 0x10000B898, symSize: 0x34 }
  - { offsetInCU: 0x3B8BE, offset: 0x52D12, size: 0x8, addend: 0x0, symName: __ZNKSt3__112basic_stringIcNS_11char_traitsIcEENS_9allocatorIcEEE15__get_long_sizeB8ue170006Ev, symObjAddr: 0x4784, symBinAddr: 0x10000B8CC, symSize: 0x28 }
  - { offsetInCU: 0x3B8E4, offset: 0x52D38, size: 0x8, addend: 0x0, symName: __ZNKSt3__112basic_stringIcNS_11char_traitsIcEENS_9allocatorIcEEE16__get_short_sizeB8ue170006Ev, symObjAddr: 0x47AC, symBinAddr: 0x10000B8F4, symSize: 0x34 }
  - { offsetInCU: 0x3B90A, offset: 0x52D5E, size: 0x8, addend: 0x0, symName: __ZNKSt3__112basic_stringIcNS_11char_traitsIcEENS_9allocatorIcEEE13__get_pointerB8ue170006Ev, symObjAddr: 0x482C, symBinAddr: 0x10000B93C, symSize: 0x54 }
  - { offsetInCU: 0x3B930, offset: 0x52D84, size: 0x8, addend: 0x0, symName: __ZNKSt3__112basic_stringIcNS_11char_traitsIcEENS_9allocatorIcEEE18__get_long_pointerB8ue170006Ev, symObjAddr: 0x4880, symBinAddr: 0x10000B990, symSize: 0x28 }
  - { offsetInCU: 0x3B956, offset: 0x52DAA, size: 0x8, addend: 0x0, symName: __ZNKSt3__112basic_stringIcNS_11char_traitsIcEENS_9allocatorIcEEE19__get_short_pointerB8ue170006Ev, symObjAddr: 0x48A8, symBinAddr: 0x10000B9B8, symSize: 0x28 }
  - { offsetInCU: 0x3B97C, offset: 0x52DD0, size: 0x8, addend: 0x0, symName: __ZNSt3__114pointer_traitsIPKcE10pointer_toB8ue170006ERS1_, symObjAddr: 0x48D0, symBinAddr: 0x10000B9E0, symSize: 0x14 }
  - { offsetInCU: 0x3B99F, offset: 0x52DF3, size: 0x8, addend: 0x0, symName: __ZNSt3__16vectorIiNS_9allocatorIiEEE9__end_capB8ue170006Ev, symObjAddr: 0x48E4, symBinAddr: 0x10000B9F4, symSize: 0x28 }
  - { offsetInCU: 0x3B9C5, offset: 0x52E19, size: 0x8, addend: 0x0, symName: __ZNSt3__16vectorIiNS_9allocatorIiEEE22__construct_one_at_endB8ue170006IJRKiEEEvDpOT_, symObjAddr: 0x490C, symBinAddr: 0x10000BA1C, symSize: 0x90 }
  - { offsetInCU: 0x3BA14, offset: 0x52E68, size: 0x8, addend: 0x0, symName: __ZNSt3__16vectorIiNS_9allocatorIiEEE21__push_back_slow_pathIRKiEEvOT_, symObjAddr: 0x499C, symBinAddr: 0x10000BAAC, symSize: 0xD8 }
  - { offsetInCU: 0x3BA72, offset: 0x52EC6, size: 0x8, addend: 0x0, symName: __ZNSt3__117__compressed_pairIPiNS_9allocatorIiEEE5firstB8ue170006Ev, symObjAddr: 0x4A74, symBinAddr: 0x10000BB84, symSize: 0x24 }
  - { offsetInCU: 0x3BA98, offset: 0x52EEC, size: 0x8, addend: 0x0, symName: __ZNSt3__122__compressed_pair_elemIPiLi0ELb0EE5__getB8ue170006Ev, symObjAddr: 0x4A98, symBinAddr: 0x10000BBA8, symSize: 0x14 }
  - { offsetInCU: 0x3BAD7, offset: 0x52F2B, size: 0x8, addend: 0x0, symName: __ZNSt3__16vectorIiNS_9allocatorIiEEE21_ConstructTransactionC1B8ue170006ERS3_m, symObjAddr: 0x4AAC, symBinAddr: 0x10000BBBC, symSize: 0x3C }
  - { offsetInCU: 0x3BB1F, offset: 0x52F73, size: 0x8, addend: 0x0, symName: __ZNSt3__116allocator_traitsINS_9allocatorIiEEE9constructB8ue170006IiJRKiEvvEEvRS2_PT_DpOT0_, symObjAddr: 0x4AE8, symBinAddr: 0x10000BBF8, symSize: 0x30 }
  - { offsetInCU: 0x3BB74, offset: 0x52FC8, size: 0x8, addend: 0x0, symName: __ZNSt3__16vectorIiNS_9allocatorIiEEE21_ConstructTransactionD1B8ue170006Ev, symObjAddr: 0x4B54, symBinAddr: 0x10000BC28, symSize: 0x2C }
  - { offsetInCU: 0x3BB9E, offset: 0x52FF2, size: 0x8, addend: 0x0, symName: __ZNSt3__16vectorIiNS_9allocatorIiEEE21_ConstructTransactionC2B8ue170006ERS3_m, symObjAddr: 0x4B80, symBinAddr: 0x10000BC54, symSize: 0x44 }
  - { offsetInCU: 0x3BBE6, offset: 0x5303A, size: 0x8, addend: 0x0, symName: __ZNSt3__16vectorIiNS_9allocatorIiEEE21_ConstructTransactionD2B8ue170006Ev, symObjAddr: 0x4C28, symBinAddr: 0x10000BCC4, symSize: 0x20 }
  - { offsetInCU: 0x3BC10, offset: 0x53064, size: 0x8, addend: 0x0, symName: __ZNKSt3__16vectorIiNS_9allocatorIiEEE11__recommendB8ue170006Em, symObjAddr: 0x4C48, symBinAddr: 0x10000BCE4, symSize: 0xB4 }
  - { offsetInCU: 0x3BC65, offset: 0x530B9, size: 0x8, addend: 0x0, symName: __ZNSt3__114__split_bufferIiRNS_9allocatorIiEEEC1EmmS3_, symObjAddr: 0x4D24, symBinAddr: 0x10000BD98, symSize: 0x44 }
  - { offsetInCU: 0x3BCBB, offset: 0x5310F, size: 0x8, addend: 0x0, symName: __ZNSt3__114__split_bufferIiRNS_9allocatorIiEEED1Ev, symObjAddr: 0x4E78, symBinAddr: 0x10000BEEC, symSize: 0x2C }
  - { offsetInCU: 0x3BCE7, offset: 0x5313B, size: 0x8, addend: 0x0, symName: __ZNKSt3__16vectorIiNS_9allocatorIiEEE8max_sizeEv, symObjAddr: 0x4EA4, symBinAddr: 0x10000BF18, symSize: 0x60 }
  - { offsetInCU: 0x3BD0F, offset: 0x53163, size: 0x8, addend: 0x0, symName: __ZNKSt3__16vectorIiNS_9allocatorIiEEE20__throw_length_errorB8ue170006Ev, symObjAddr: 0x4F04, symBinAddr: 0x10000BF78, symSize: 0x1C }
  - { offsetInCU: 0x3BD3F, offset: 0x53193, size: 0x8, addend: 0x0, symName: __ZNSt3__116allocator_traitsINS_9allocatorIiEEE8max_sizeB8ue170006IS2_vvEEmRKS2_, symObjAddr: 0x4FB8, symBinAddr: 0x10000BFEC, symSize: 0x28 }
  - { offsetInCU: 0x3BD6B, offset: 0x531BF, size: 0x8, addend: 0x0, symName: __ZNKSt3__16vectorIiNS_9allocatorIiEEE7__allocB8ue170006Ev, symObjAddr: 0x4FE0, symBinAddr: 0x10000C014, symSize: 0x28 }
  - { offsetInCU: 0x3BD91, offset: 0x531E5, size: 0x8, addend: 0x0, symName: __ZNSt3__114numeric_limitsIlE3maxB8ue170006Ev, symObjAddr: 0x5008, symBinAddr: 0x10000C03C, symSize: 0x14 }
  - { offsetInCU: 0x3BDAF, offset: 0x53203, size: 0x8, addend: 0x0, symName: __ZNKSt3__16__lessIvvEclB8ue170006ImmEEbRKT_RKT0_, symObjAddr: 0x5070, symBinAddr: 0x10000C0A4, symSize: 0x34 }
  - { offsetInCU: 0x3BE03, offset: 0x53257, size: 0x8, addend: 0x0, symName: __ZNSt3__114numeric_limitsImE3maxB8ue170006Ev, symObjAddr: 0x50A4, symBinAddr: 0x10000C0D8, symSize: 0x14 }
  - { offsetInCU: 0x3BE17, offset: 0x5326B, size: 0x8, addend: 0x0, symName: __ZNSt3__123__libcpp_numeric_limitsImLb1EE3maxB8ue170006Ev, symObjAddr: 0x50B8, symBinAddr: 0x10000C0EC, symSize: 0x8 }
  - { offsetInCU: 0x3BE2B, offset: 0x5327F, size: 0x8, addend: 0x0, symName: __ZNKSt3__117__compressed_pairIPiNS_9allocatorIiEEE6secondB8ue170006Ev, symObjAddr: 0x50C0, symBinAddr: 0x10000C0F4, symSize: 0x24 }
  - { offsetInCU: 0x3BE51, offset: 0x532A5, size: 0x8, addend: 0x0, symName: __ZNKSt3__122__compressed_pair_elemINS_9allocatorIiEELi1ELb1EE5__getB8ue170006Ev, symObjAddr: 0x50E4, symBinAddr: 0x10000C118, symSize: 0x14 }
  - { offsetInCU: 0x3BE77, offset: 0x532CB, size: 0x8, addend: 0x0, symName: __ZNSt3__123__libcpp_numeric_limitsIlLb1EE3maxB8ue170006Ev, symObjAddr: 0x50F8, symBinAddr: 0x10000C12C, symSize: 0x8 }
  - { offsetInCU: 0x3BE8B, offset: 0x532DF, size: 0x8, addend: 0x0, symName: __ZNSt12length_errorC1B8ue170006EPKc, symObjAddr: 0x5164, symBinAddr: 0x10000C198, symSize: 0x34 }
  - { offsetInCU: 0x3BEC3, offset: 0x53317, size: 0x8, addend: 0x0, symName: __ZNSt12length_errorC2B8ue170006EPKc, symObjAddr: 0x5198, symBinAddr: 0x10000C1CC, symSize: 0x4C }
  - { offsetInCU: 0x3BEFB, offset: 0x5334F, size: 0x8, addend: 0x0, symName: __ZNSt3__114__split_bufferIiRNS_9allocatorIiEEEC2EmmS3_, symObjAddr: 0x5298, symBinAddr: 0x10000C26C, symSize: 0xD4 }
  - { offsetInCU: 0x3BF6E, offset: 0x533C2, size: 0x8, addend: 0x0, symName: __ZNSt3__117__compressed_pairIPiRNS_9allocatorIiEEEC1B8ue170006IDnS4_EEOT_OT0_, symObjAddr: 0x536C, symBinAddr: 0x10000C340, symSize: 0x3C }
  - { offsetInCU: 0x3BFC6, offset: 0x5341A, size: 0x8, addend: 0x0, symName: __ZNSt3__114__split_bufferIiRNS_9allocatorIiEEE7__allocB8ue170006Ev, symObjAddr: 0x53E8, symBinAddr: 0x10000C3BC, symSize: 0x28 }
  - { offsetInCU: 0x3BFEC, offset: 0x53440, size: 0x8, addend: 0x0, symName: __ZNSt3__114__split_bufferIiRNS_9allocatorIiEEE9__end_capB8ue170006Ev, symObjAddr: 0x5410, symBinAddr: 0x10000C3E4, symSize: 0x28 }
  - { offsetInCU: 0x3C012, offset: 0x53466, size: 0x8, addend: 0x0, symName: __ZNSt3__117__compressed_pairIPiRNS_9allocatorIiEEEC2B8ue170006IDnS4_EEOT_OT0_, symObjAddr: 0x5438, symBinAddr: 0x10000C40C, symSize: 0x48 }
  - { offsetInCU: 0x3C06A, offset: 0x534BE, size: 0x8, addend: 0x0, symName: __ZNSt3__122__compressed_pair_elemIRNS_9allocatorIiEELi1ELb0EEC2B8ue170006IS3_vEEOT_, symObjAddr: 0x5480, symBinAddr: 0x10000C454, symSize: 0x20 }
  - { offsetInCU: 0x3C0AC, offset: 0x53500, size: 0x8, addend: 0x0, symName: __ZNSt3__19allocatorIiE8allocateB8ue170006Em, symObjAddr: 0x54A0, symBinAddr: 0x10000C474, symSize: 0x58 }
  - { offsetInCU: 0x3C0E0, offset: 0x53534, size: 0x8, addend: 0x0, symName: __ZNSt3__117__compressed_pairIPiRNS_9allocatorIiEEE6secondB8ue170006Ev, symObjAddr: 0x55FC, symBinAddr: 0x10000C5B0, symSize: 0x28 }
  - { offsetInCU: 0x3C106, offset: 0x5355A, size: 0x8, addend: 0x0, symName: __ZNSt3__122__compressed_pair_elemIRNS_9allocatorIiEELi1ELb0EE5__getB8ue170006Ev, symObjAddr: 0x5624, symBinAddr: 0x10000C5D8, symSize: 0x18 }
  - { offsetInCU: 0x3C12C, offset: 0x53580, size: 0x8, addend: 0x0, symName: __ZNSt3__117__compressed_pairIPiRNS_9allocatorIiEEE5firstB8ue170006Ev, symObjAddr: 0x563C, symBinAddr: 0x10000C5F0, symSize: 0x24 }
  - { offsetInCU: 0x3C152, offset: 0x535A6, size: 0x8, addend: 0x0, symName: __ZNSt3__116reverse_iteratorIPiEC1B8ue170006ES1_, symObjAddr: 0x5790, symBinAddr: 0x10000C68C, symSize: 0x34 }
  - { offsetInCU: 0x3C18A, offset: 0x535DE, size: 0x8, addend: 0x0, symName: __ZNKSt3__116reverse_iteratorIPiE4baseB8ue170006Ev, symObjAddr: 0x57C4, symBinAddr: 0x10000C6C0, symSize: 0x18 }
  - { offsetInCU: 0x3C1B0, offset: 0x53604, size: 0x8, addend: 0x0, symName: __ZNKSt3__16vectorIiNS_9allocatorIiEEE14__annotate_newB8ue170006Em, symObjAddr: 0x5818, symBinAddr: 0x10000C714, symSize: 0xAC }
  - { offsetInCU: 0x3C208, offset: 0x5365C, size: 0x8, addend: 0x0, symName: __ZNKSt3__111__move_loopINS_17_ClassicAlgPolicyEEclB8ue170006INS_16reverse_iteratorIPiEES6_S6_EENS_4pairIT_T1_EES8_T0_S9_, symObjAddr: 0x5BC4, symBinAddr: 0x10000CA78, symSize: 0xA0 }
  - { offsetInCU: 0x3C273, offset: 0x536C7, size: 0x8, addend: 0x0, symName: __ZNSt3__119__unwrap_range_implINS_16reverse_iteratorIPiEES3_E8__unwrapB8ue170006ES3_S3_, symObjAddr: 0x5DB0, symBinAddr: 0x10000CC64, symSize: 0x84 }
  - { offsetInCU: 0x3C2A9, offset: 0x536FD, size: 0x8, addend: 0x0, symName: __ZNSt3__14pairINS_16reverse_iteratorIPiEES3_EC1B8ue170006IS3_S3_LPv0EEEOT_OT0_, symObjAddr: 0x5E34, symBinAddr: 0x10000CCE8, symSize: 0x3C }
  - { offsetInCU: 0x3C308, offset: 0x5375C, size: 0x8, addend: 0x0, symName: __ZNSt3__14pairINS_16reverse_iteratorIPiEES3_EC2B8ue170006IS3_S3_LPv0EEEOT_OT0_, symObjAddr: 0x5E70, symBinAddr: 0x10000CD24, symSize: 0x34 }
  - { offsetInCU: 0x3C367, offset: 0x537BB, size: 0x8, addend: 0x0, symName: __ZNSt3__18_IterOpsINS_17_ClassicAlgPolicyEE11__iter_moveB8ue170006IRNS_16reverse_iteratorIPiEEEENS_9enable_ifIXsr12is_referenceIDTdeclsr3stdE7declvalIRT_EEEEE5valueEDTclsr3stdE4movedeclsr3stdE7declvalISA_EEEEE4typeEOS9_, symObjAddr: 0x5EEC, symBinAddr: 0x10000CDA0, symSize: 0x28 }
  - { offsetInCU: 0x3C393, offset: 0x537E7, size: 0x8, addend: 0x0, symName: __ZNKSt3__116reverse_iteratorIPiEdeB8ue170006Ev, symObjAddr: 0x5F14, symBinAddr: 0x10000CDC8, symSize: 0x28 }
  - { offsetInCU: 0x3C3C7, offset: 0x5381B, size: 0x8, addend: 0x0, symName: __ZNSt3__116reverse_iteratorIPiEppB8ue170006Ev, symObjAddr: 0x5F3C, symBinAddr: 0x10000CDF0, symSize: 0x20 }
  - { offsetInCU: 0x3C3ED, offset: 0x53841, size: 0x8, addend: 0x0, symName: __ZNSt3__18_IterOpsINS_17_ClassicAlgPolicyEE25__validate_iter_referenceB8ue170006IRNS_16reverse_iteratorIPiEEEEvv, symObjAddr: 0x5F5C, symBinAddr: 0x10000CE10, symSize: 0x4 }
  - { offsetInCU: 0x3C40B, offset: 0x5385F, size: 0x8, addend: 0x0, symName: __ZNSt3__118__unwrap_iter_implINS_16reverse_iteratorIPiEELb0EE8__unwrapB8ue170006ES3_, symObjAddr: 0x5F60, symBinAddr: 0x10000CE14, symSize: 0x24 }
  - { offsetInCU: 0x3C42E, offset: 0x53882, size: 0x8, addend: 0x0, symName: __ZNSt3__119__unwrap_range_implINS_16reverse_iteratorIPiEES3_E8__rewrapB8ue170006ES3_S3_, symObjAddr: 0x5F84, symBinAddr: 0x10000CE38, symSize: 0x5C }
  - { offsetInCU: 0x3C45F, offset: 0x538B3, size: 0x8, addend: 0x0, symName: __ZNSt3__118__unwrap_iter_implINS_16reverse_iteratorIPiEELb0EE8__rewrapB8ue170006ES3_S3_, symObjAddr: 0x5FE0, symBinAddr: 0x10000CE94, symSize: 0x2C }
  - { offsetInCU: 0x3C48D, offset: 0x538E1, size: 0x8, addend: 0x0, symName: __ZNSt3__116reverse_iteratorIPiEC2B8ue170006ES1_, symObjAddr: 0x600C, symBinAddr: 0x10000CEC0, symSize: 0x28 }
  - { offsetInCU: 0x3C4C5, offset: 0x53919, size: 0x8, addend: 0x0, symName: __ZNSt3__114__split_bufferIiRNS_9allocatorIiEEED2Ev, symObjAddr: 0x6034, symBinAddr: 0x10000CEE8, symSize: 0x8C }
  - { offsetInCU: 0x3C4F1, offset: 0x53945, size: 0x8, addend: 0x0, symName: __ZNSt3__114__split_bufferIiRNS_9allocatorIiEEE5clearB8ue170006Ev, symObjAddr: 0x60C0, symBinAddr: 0x10000CF74, symSize: 0x28 }
  - { offsetInCU: 0x3C517, offset: 0x5396B, size: 0x8, addend: 0x0, symName: __ZNKSt3__114__split_bufferIiRNS_9allocatorIiEEE8capacityB8ue170006Ev, symObjAddr: 0x611C, symBinAddr: 0x10000CF9C, symSize: 0x40 }
  - { offsetInCU: 0x3C53D, offset: 0x53991, size: 0x8, addend: 0x0, symName: __ZNSt3__114__split_bufferIiRNS_9allocatorIiEEE17__destruct_at_endB8ue170006EPi, symObjAddr: 0x615C, symBinAddr: 0x10000CFDC, symSize: 0x2C }
  - { offsetInCU: 0x3C571, offset: 0x539C5, size: 0x8, addend: 0x0, symName: __ZNSt3__114__split_bufferIiRNS_9allocatorIiEEE17__destruct_at_endB8ue170006EPiNS_17integral_constantIbLb0EEE, symObjAddr: 0x6188, symBinAddr: 0x10000D008, symSize: 0x80 }
  - { offsetInCU: 0x3C5B2, offset: 0x53A06, size: 0x8, addend: 0x0, symName: __ZNKSt3__114__split_bufferIiRNS_9allocatorIiEEE9__end_capB8ue170006Ev, symObjAddr: 0x63AC, symBinAddr: 0x10000D088, symSize: 0x28 }
  - { offsetInCU: 0x3C5D8, offset: 0x53A2C, size: 0x8, addend: 0x0, symName: __ZNKSt3__117__compressed_pairIPiRNS_9allocatorIiEEE5firstB8ue170006Ev, symObjAddr: 0x63D4, symBinAddr: 0x10000D0B0, symSize: 0x24 }
  - { offsetInCU: 0x3C5FE, offset: 0x53A52, size: 0x8, addend: 0x0, symName: __ZNSt3__16vectorINS_12basic_stringIcNS_11char_traitsIcEENS_9allocatorIcEEEENS4_IS6_EEEC2B8ue170006Ev, symObjAddr: 0x65D4, symBinAddr: 0x10000D0D4, symSize: 0x4C }
  - { offsetInCU: 0x3C628, offset: 0x53A7C, size: 0x8, addend: 0x0, symName: __ZNSt3__117__compressed_pairIPNS_12basic_stringIcNS_11char_traitsIcEENS_9allocatorIcEEEENS4_IS6_EEEC1B8ue170006IDnNS_18__default_init_tagEEEOT_OT0_, symObjAddr: 0x6620, symBinAddr: 0x10000D120, symSize: 0x3C }
  - { offsetInCU: 0x3C680, offset: 0x53AD4, size: 0x8, addend: 0x0, symName: __ZNSt3__117__compressed_pairIPNS_12basic_stringIcNS_11char_traitsIcEENS_9allocatorIcEEEENS4_IS6_EEEC2B8ue170006IDnNS_18__default_init_tagEEEOT_OT0_, symObjAddr: 0x665C, symBinAddr: 0x10000D15C, symSize: 0x40 }
  - { offsetInCU: 0x3C6D8, offset: 0x53B2C, size: 0x8, addend: 0x0, symName: __ZNSt3__122__compressed_pair_elemIPNS_12basic_stringIcNS_11char_traitsIcEENS_9allocatorIcEEEELi0ELb0EEC2B8ue170006IDnvEEOT_, symObjAddr: 0x669C, symBinAddr: 0x10000D19C, symSize: 0x1C }
  - { offsetInCU: 0x3C71A, offset: 0x53B6E, size: 0x8, addend: 0x0, symName: __ZNSt3__122__compressed_pair_elemINS_9allocatorINS_12basic_stringIcNS_11char_traitsIcEENS1_IcEEEEEELi1ELb1EEC2B8ue170006ENS_18__default_init_tagE, symObjAddr: 0x66B8, symBinAddr: 0x10000D1B8, symSize: 0x2C }
  - { offsetInCU: 0x3C74F, offset: 0x53BA3, size: 0x8, addend: 0x0, symName: __ZNSt3__19allocatorINS_12basic_stringIcNS_11char_traitsIcEENS0_IcEEEEEC2B8ue170006Ev, symObjAddr: 0x66E4, symBinAddr: 0x10000D1E4, symSize: 0x2C }
  - { offsetInCU: 0x3C779, offset: 0x53BCD, size: 0x8, addend: 0x0, symName: __ZNSt3__116__non_trivial_ifILb1ENS_9allocatorINS_12basic_stringIcNS_11char_traitsIcEENS1_IcEEEEEEEC2B8ue170006Ev, symObjAddr: 0x6710, symBinAddr: 0x10000D210, symSize: 0x14 }
  - { offsetInCU: 0x3C7A3, offset: 0x53BF7, size: 0x8, addend: 0x0, symName: __ZNSt3__112basic_stringIcNS_11char_traitsIcEENS_9allocatorIcEEEC2B8ue170006Ev, symObjAddr: 0x6724, symBinAddr: 0x10000D224, symSize: 0x48 }
  - { offsetInCU: 0x3C7CD, offset: 0x53C21, size: 0x8, addend: 0x0, symName: __ZNSt3__112basic_stringIcNS_11char_traitsIcEENS_9allocatorIcEEE14__default_initB8ue170006Ev, symObjAddr: 0x67A8, symBinAddr: 0x10000D26C, symSize: 0x40 }
  - { offsetInCU: 0x3C7F3, offset: 0x53C47, size: 0x8, addend: 0x0, symName: __ZNSt3__14pairIKNS_12basic_stringIcNS_11char_traitsIcEENS_9allocatorIcEEEENS_4listIS6_NS4_IS6_EEEEEC2B8ue170006IRS6_SA_LPv0EEEOT_OT0_, symObjAddr: 0x68DC, symBinAddr: 0x10000D2AC, symSize: 0x48 }
  - { offsetInCU: 0x3C852, offset: 0x53CA6, size: 0x8, addend: 0x0, symName: __ZNSt3__14listINS_12basic_stringIcNS_11char_traitsIcEENS_9allocatorIcEEEENS4_IS6_EEEC1EOS8_, symObjAddr: 0x6924, symBinAddr: 0x10000D2F4, symSize: 0x34 }
  - { offsetInCU: 0x3C88D, offset: 0x53CE1, size: 0x8, addend: 0x0, symName: __ZNSt3__14listINS_12basic_stringIcNS_11char_traitsIcEENS_9allocatorIcEEEENS4_IS6_EEEC2EOS8_, symObjAddr: 0x6958, symBinAddr: 0x10000D328, symSize: 0x70 }
  - { offsetInCU: 0x3C8C8, offset: 0x53D1C, size: 0x8, addend: 0x0, symName: __ZNSt3__110__list_impINS_12basic_stringIcNS_11char_traitsIcEENS_9allocatorIcEEEENS4_IS6_EEEC2EONS4_INS_11__list_nodeIS6_PvEEEE, symObjAddr: 0x69F0, symBinAddr: 0x10000D398, symSize: 0x54 }
  - { offsetInCU: 0x3C903, offset: 0x53D57, size: 0x8, addend: 0x0, symName: __ZNSt3__14listINS_12basic_stringIcNS_11char_traitsIcEENS_9allocatorIcEEEENS4_IS6_EEE6spliceENS_21__list_const_iteratorIS6_PvEERS8_, symObjAddr: 0x6A44, symBinAddr: 0x10000D3EC, symSize: 0xAC }
  - { offsetInCU: 0x3C975, offset: 0x53DC9, size: 0x8, addend: 0x0, symName: __ZNSt3__14listINS_12basic_stringIcNS_11char_traitsIcEENS_9allocatorIcEEEENS4_IS6_EEE3endB8ue170006Ev, symObjAddr: 0x6AF0, symBinAddr: 0x10000D498, symSize: 0x2C }
  - { offsetInCU: 0x3C99B, offset: 0x53DEF, size: 0x8, addend: 0x0, symName: __ZNSt3__121__list_const_iteratorINS_12basic_stringIcNS_11char_traitsIcEENS_9allocatorIcEEEEPvEC1B8ue170006ERKNS_15__list_iteratorIS6_S7_EE, symObjAddr: 0x6B1C, symBinAddr: 0x10000D4C4, symSize: 0x34 }
  - { offsetInCU: 0x3C9D4, offset: 0x53E28, size: 0x8, addend: 0x0, symName: __ZNSt3__116__list_node_baseINS_12basic_stringIcNS_11char_traitsIcEENS_9allocatorIcEEEEPvEC1B8ue170006Ev, symObjAddr: 0x6B88, symBinAddr: 0x10000D4F8, symSize: 0x2C }
  - { offsetInCU: 0x3CA03, offset: 0x53E57, size: 0x8, addend: 0x0, symName: __ZNSt3__117__compressed_pairImNS_9allocatorINS_11__list_nodeINS_12basic_stringIcNS_11char_traitsIcEENS1_IcEEEEPvEEEEEC1B8ue170006IiSA_EEOT_OT0_, symObjAddr: 0x6BB4, symBinAddr: 0x10000D524, symSize: 0x3C }
  - { offsetInCU: 0x3CA5B, offset: 0x53EAF, size: 0x8, addend: 0x0, symName: __ZNSt3__116__list_node_baseINS_12basic_stringIcNS_11char_traitsIcEENS_9allocatorIcEEEEPvEC2B8ue170006Ev, symObjAddr: 0x6BF0, symBinAddr: 0x10000D560, symSize: 0x4C }
  - { offsetInCU: 0x3CA85, offset: 0x53ED9, size: 0x8, addend: 0x0, symName: __ZNSt3__117__compressed_pairImNS_9allocatorINS_11__list_nodeINS_12basic_stringIcNS_11char_traitsIcEENS1_IcEEEEPvEEEEEC2B8ue170006IiSA_EEOT_OT0_, symObjAddr: 0x6C88, symBinAddr: 0x10000D5AC, symSize: 0x44 }
  - { offsetInCU: 0x3CADD, offset: 0x53F31, size: 0x8, addend: 0x0, symName: __ZNSt3__122__compressed_pair_elemImLi0ELb0EEC2B8ue170006IivEEOT_, symObjAddr: 0x6CCC, symBinAddr: 0x10000D5F0, symSize: 0x24 }
  - { offsetInCU: 0x3CB1F, offset: 0x53F73, size: 0x8, addend: 0x0, symName: __ZNSt3__122__compressed_pair_elemINS_9allocatorINS_11__list_nodeINS_12basic_stringIcNS_11char_traitsIcEENS1_IcEEEEPvEEEELi1ELb1EEC2B8ue170006ISA_vEEOT_, symObjAddr: 0x6CF0, symBinAddr: 0x10000D614, symSize: 0x18 }
  - { offsetInCU: 0x3CB61, offset: 0x53FB5, size: 0x8, addend: 0x0, symName: __ZNKSt3__14listINS_12basic_stringIcNS_11char_traitsIcEENS_9allocatorIcEEEENS4_IS6_EEE5emptyB8ue170006Ev, symObjAddr: 0x6D08, symBinAddr: 0x10000D62C, symSize: 0x28 }
  - { offsetInCU: 0x3CB87, offset: 0x53FDB, size: 0x8, addend: 0x0, symName: __ZNSt3__14listINS_12basic_stringIcNS_11char_traitsIcEENS_9allocatorIcEEEENS4_IS6_EEE12__link_nodesEPNS_16__list_node_baseIS6_PvEESC_SC_, symObjAddr: 0x6D6C, symBinAddr: 0x10000D654, symSize: 0x50 }
  - { offsetInCU: 0x3CBCB, offset: 0x5401F, size: 0x8, addend: 0x0, symName: __ZNSt3__110__list_impINS_12basic_stringIcNS_11char_traitsIcEENS_9allocatorIcEEEENS4_IS6_EEE3endB8ue170006Ev, symObjAddr: 0x6EB0, symBinAddr: 0x10000D6A4, symSize: 0x34 }
  - { offsetInCU: 0x3CBF1, offset: 0x54045, size: 0x8, addend: 0x0, symName: __ZNSt3__115__list_iteratorINS_12basic_stringIcNS_11char_traitsIcEENS_9allocatorIcEEEEPvEC1B8ue170006EPNS_16__list_node_baseIS6_S7_EE, symObjAddr: 0x6F0C, symBinAddr: 0x10000D6D8, symSize: 0x34 }
  - { offsetInCU: 0x3CC2A, offset: 0x5407E, size: 0x8, addend: 0x0, symName: __ZNSt3__115__list_iteratorINS_12basic_stringIcNS_11char_traitsIcEENS_9allocatorIcEEEEPvEC2B8ue170006EPNS_16__list_node_baseIS6_S7_EE, symObjAddr: 0x6F40, symBinAddr: 0x10000D70C, symSize: 0x20 }
  - { offsetInCU: 0x3CC63, offset: 0x540B7, size: 0x8, addend: 0x0, symName: __ZNSt3__121__list_const_iteratorINS_12basic_stringIcNS_11char_traitsIcEENS_9allocatorIcEEEEPvEC2B8ue170006ERKNS_15__list_iteratorIS6_S7_EE, symObjAddr: 0x6F60, symBinAddr: 0x10000D72C, symSize: 0x24 }
  - { offsetInCU: 0x3CC9C, offset: 0x540F0, size: 0x8, addend: 0x0, symName: __ZNSt3__14pairIKNS_12basic_stringIcNS_11char_traitsIcEENS_9allocatorIcEEEENS_3setINS0_IS6_S6_EENS_4lessIS9_EENS4_IS9_EEEEEC2B8ue170006IRS6_SD_LPv0EEEOT_OT0_, symObjAddr: 0x7200, symBinAddr: 0x10000D750, symSize: 0x48 }
  - { offsetInCU: 0x3CCFB, offset: 0x5414F, size: 0x8, addend: 0x0, symName: __ZNSt3__13setINS_4pairINS_12basic_stringIcNS_11char_traitsIcEENS_9allocatorIcEEEES7_EENS_4lessIS8_EENS5_IS8_EEEC1B8ue170006EOSC_, symObjAddr: 0x7248, symBinAddr: 0x10000D798, symSize: 0x34 }
  - { offsetInCU: 0x3CD34, offset: 0x54188, size: 0x8, addend: 0x0, symName: __ZNSt3__13setINS_4pairINS_12basic_stringIcNS_11char_traitsIcEENS_9allocatorIcEEEES7_EENS_4lessIS8_EENS5_IS8_EEEC2B8ue170006EOSC_, symObjAddr: 0x727C, symBinAddr: 0x10000D7CC, symSize: 0x34 }
  - { offsetInCU: 0x3CD6D, offset: 0x541C1, size: 0x8, addend: 0x0, symName: __ZNSt3__16__treeINS_4pairINS_12basic_stringIcNS_11char_traitsIcEENS_9allocatorIcEEEES7_EENS_4lessIS8_EENS5_IS8_EEEC1EOSC_, symObjAddr: 0x72B0, symBinAddr: 0x10000D800, symSize: 0x34 }
  - { offsetInCU: 0x3CDA8, offset: 0x541FC, size: 0x8, addend: 0x0, symName: __ZNSt3__16__treeINS_4pairINS_12basic_stringIcNS_11char_traitsIcEENS_9allocatorIcEEEES7_EENS_4lessIS8_EENS5_IS8_EEEC2EOSC_, symObjAddr: 0x72E4, symBinAddr: 0x10000D834, symSize: 0xFC }
  - { offsetInCU: 0x3CDE3, offset: 0x54237, size: 0x8, addend: 0x0, symName: __ZNSt3__16__treeINS_4pairINS_12basic_stringIcNS_11char_traitsIcEENS_9allocatorIcEEEES7_EENS_4lessIS8_EENS5_IS8_EEE4sizeB8ue170006Ev, symObjAddr: 0x73E0, symBinAddr: 0x10000D930, symSize: 0x28 }
  - { offsetInCU: 0x3CE09, offset: 0x5425D, size: 0x8, addend: 0x0, symName: __ZNSt3__16__treeINS_4pairINS_12basic_stringIcNS_11char_traitsIcEENS_9allocatorIcEEEES7_EENS_4lessIS8_EENS5_IS8_EEE10__end_nodeB8ue170006Ev, symObjAddr: 0x7408, symBinAddr: 0x10000D958, symSize: 0x2C }
  - { offsetInCU: 0x3CE2F, offset: 0x54283, size: 0x8, addend: 0x0, symName: __ZNSt3__16__treeINS_4pairINS_12basic_stringIcNS_11char_traitsIcEENS_9allocatorIcEEEES7_EENS_4lessIS8_EENS5_IS8_EEE12__begin_nodeB8ue170006Ev, symObjAddr: 0x7434, symBinAddr: 0x10000D984, symSize: 0x14 }
  - { offsetInCU: 0x3CE55, offset: 0x542A9, size: 0x8, addend: 0x0, symName: __ZNSt3__117__compressed_pairImNS_4lessINS_4pairINS_12basic_stringIcNS_11char_traitsIcEENS_9allocatorIcEEEES8_EEEEE5firstB8ue170006Ev, symObjAddr: 0x7448, symBinAddr: 0x10000D998, symSize: 0x24 }
  - { offsetInCU: 0x3CE7B, offset: 0x542CF, size: 0x8, addend: 0x0, symName: __ZNSt3__117__compressed_pairINS_15__tree_end_nodeIPNS_16__tree_node_baseIPvEEEENS_9allocatorINS_11__tree_nodeINS_4pairINS_12basic_stringIcNS_11char_traitsIcEENS7_IcEEEESE_EES3_EEEEE5firstB8ue170006Ev, symObjAddr: 0x7480, symBinAddr: 0x10000D9BC, symSize: 0x24 }
  - { offsetInCU: 0x3CEA1, offset: 0x542F5, size: 0x8, addend: 0x0, symName: __ZNSt3__122__compressed_pair_elemINS_15__tree_end_nodeIPNS_16__tree_node_baseIPvEEEELi0ELb0EE5__getB8ue170006Ev, symObjAddr: 0x74A4, symBinAddr: 0x10000D9E0, symSize: 0x14 }
  - { offsetInCU: 0x3CEC7, offset: 0x5431B, size: 0x8, addend: 0x0, symName: __ZNSt3__16vectorINS_12basic_stringIcNS_11char_traitsIcEENS_9allocatorIcEEEENS4_IS6_EEE9__end_capB8ue170006Ev, symObjAddr: 0x74F0, symBinAddr: 0x10000D9F4, symSize: 0x28 }
  - { offsetInCU: 0x3CEED, offset: 0x54341, size: 0x8, addend: 0x0, symName: __ZNSt3__16vectorINS_12basic_stringIcNS_11char_traitsIcEENS_9allocatorIcEEEENS4_IS6_EEE22__construct_one_at_endB8ue170006IJRKS6_EEEvDpOT_, symObjAddr: 0x7518, symBinAddr: 0x10000DA1C, symSize: 0x90 }
  - { offsetInCU: 0x3CF3C, offset: 0x54390, size: 0x8, addend: 0x0, symName: __ZNSt3__16vectorINS_12basic_stringIcNS_11char_traitsIcEENS_9allocatorIcEEEENS4_IS6_EEE21__push_back_slow_pathIRKS6_EEvOT_, symObjAddr: 0x75A8, symBinAddr: 0x10000DAAC, symSize: 0xD8 }
  - { offsetInCU: 0x3CF9A, offset: 0x543EE, size: 0x8, addend: 0x0, symName: __ZNSt3__117__compressed_pairIPNS_12basic_stringIcNS_11char_traitsIcEENS_9allocatorIcEEEENS4_IS6_EEE5firstB8ue170006Ev, symObjAddr: 0x7680, symBinAddr: 0x10000DB84, symSize: 0x24 }
  - { offsetInCU: 0x3CFC0, offset: 0x54414, size: 0x8, addend: 0x0, symName: __ZNSt3__122__compressed_pair_elemIPNS_12basic_stringIcNS_11char_traitsIcEENS_9allocatorIcEEEELi0ELb0EE5__getB8ue170006Ev, symObjAddr: 0x76A4, symBinAddr: 0x10000DBA8, symSize: 0x14 }
  - { offsetInCU: 0x3CFFF, offset: 0x54453, size: 0x8, addend: 0x0, symName: __ZNSt3__16vectorINS_12basic_stringIcNS_11char_traitsIcEENS_9allocatorIcEEEENS4_IS6_EEE21_ConstructTransactionC1B8ue170006ERS8_m, symObjAddr: 0x76B8, symBinAddr: 0x10000DBBC, symSize: 0x3C }
  - { offsetInCU: 0x3D047, offset: 0x5449B, size: 0x8, addend: 0x0, symName: __ZNSt3__116allocator_traitsINS_9allocatorINS_12basic_stringIcNS_11char_traitsIcEENS1_IcEEEEEEE9constructB8ue170006IS6_JRKS6_EvvEEvRS7_PT_DpOT0_, symObjAddr: 0x76F4, symBinAddr: 0x10000DBF8, symSize: 0x30 }
  - { offsetInCU: 0x3D09C, offset: 0x544F0, size: 0x8, addend: 0x0, symName: __ZNSt3__16vectorINS_12basic_stringIcNS_11char_traitsIcEENS_9allocatorIcEEEENS4_IS6_EEE21_ConstructTransactionD1B8ue170006Ev, symObjAddr: 0x7760, symBinAddr: 0x10000DC28, symSize: 0x2C }
  - { offsetInCU: 0x3D0C6, offset: 0x5451A, size: 0x8, addend: 0x0, symName: __ZNSt3__16vectorINS_12basic_stringIcNS_11char_traitsIcEENS_9allocatorIcEEEENS4_IS6_EEE21_ConstructTransactionC2B8ue170006ERS8_m, symObjAddr: 0x778C, symBinAddr: 0x10000DC54, symSize: 0x4C }
  - { offsetInCU: 0x3D10E, offset: 0x54562, size: 0x8, addend: 0x0, symName: __ZNSt3__16vectorINS_12basic_stringIcNS_11char_traitsIcEENS_9allocatorIcEEEENS4_IS6_EEE21_ConstructTransactionD2B8ue170006Ev, symObjAddr: 0x784C, symBinAddr: 0x10000DCDC, symSize: 0x20 }
  - { offsetInCU: 0x3D138, offset: 0x5458C, size: 0x8, addend: 0x0, symName: __ZNKSt3__16vectorINS_12basic_stringIcNS_11char_traitsIcEENS_9allocatorIcEEEENS4_IS6_EEE11__recommendB8ue170006Em, symObjAddr: 0x786C, symBinAddr: 0x10000DCFC, symSize: 0xB4 }
  - { offsetInCU: 0x3D18D, offset: 0x545E1, size: 0x8, addend: 0x0, symName: __ZNSt3__114__split_bufferINS_12basic_stringIcNS_11char_traitsIcEENS_9allocatorIcEEEERNS4_IS6_EEEC1EmmS8_, symObjAddr: 0x7920, symBinAddr: 0x10000DDB0, symSize: 0x44 }
  - { offsetInCU: 0x3D1E3, offset: 0x54637, size: 0x8, addend: 0x0, symName: __ZNSt3__114__split_bufferINS_12basic_stringIcNS_11char_traitsIcEENS_9allocatorIcEEEERNS4_IS6_EEED1Ev, symObjAddr: 0x7A74, symBinAddr: 0x10000DF04, symSize: 0x2C }
  - { offsetInCU: 0x3D20F, offset: 0x54663, size: 0x8, addend: 0x0, symName: __ZNKSt3__16vectorINS_12basic_stringIcNS_11char_traitsIcEENS_9allocatorIcEEEENS4_IS6_EEE8max_sizeEv, symObjAddr: 0x7AA0, symBinAddr: 0x10000DF30, symSize: 0x60 }
  - { offsetInCU: 0x3D237, offset: 0x5468B, size: 0x8, addend: 0x0, symName: __ZNKSt3__16vectorINS_12basic_stringIcNS_11char_traitsIcEENS_9allocatorIcEEEENS4_IS6_EEE20__throw_length_errorB8ue170006Ev, symObjAddr: 0x7B00, symBinAddr: 0x10000DF90, symSize: 0x1C }
  - { offsetInCU: 0x3D267, offset: 0x546BB, size: 0x8, addend: 0x0, symName: __ZNSt3__116allocator_traitsINS_9allocatorINS_12basic_stringIcNS_11char_traitsIcEENS1_IcEEEEEEE8max_sizeB8ue170006IS7_vvEEmRKS7_, symObjAddr: 0x7B5C, symBinAddr: 0x10000DFAC, symSize: 0x28 }
  - { offsetInCU: 0x3D293, offset: 0x546E7, size: 0x8, addend: 0x0, symName: __ZNKSt3__16vectorINS_12basic_stringIcNS_11char_traitsIcEENS_9allocatorIcEEEENS4_IS6_EEE7__allocB8ue170006Ev, symObjAddr: 0x7B84, symBinAddr: 0x10000DFD4, symSize: 0x28 }
  - { offsetInCU: 0x3D2B9, offset: 0x5470D, size: 0x8, addend: 0x0, symName: __ZNKSt3__117__compressed_pairIPNS_12basic_stringIcNS_11char_traitsIcEENS_9allocatorIcEEEENS4_IS6_EEE6secondB8ue170006Ev, symObjAddr: 0x7BAC, symBinAddr: 0x10000DFFC, symSize: 0x24 }
  - { offsetInCU: 0x3D2DF, offset: 0x54733, size: 0x8, addend: 0x0, symName: __ZNKSt3__122__compressed_pair_elemINS_9allocatorINS_12basic_stringIcNS_11char_traitsIcEENS1_IcEEEEEELi1ELb1EE5__getB8ue170006Ev, symObjAddr: 0x7BD0, symBinAddr: 0x10000E020, symSize: 0x14 }
  - { offsetInCU: 0x3D305, offset: 0x54759, size: 0x8, addend: 0x0, symName: __ZNSt3__114__split_bufferINS_12basic_stringIcNS_11char_traitsIcEENS_9allocatorIcEEEERNS4_IS6_EEEC2EmmS8_, symObjAddr: 0x7C44, symBinAddr: 0x10000E034, symSize: 0xE0 }
  - { offsetInCU: 0x3D378, offset: 0x547CC, size: 0x8, addend: 0x0, symName: __ZNSt3__117__compressed_pairIPNS_12basic_stringIcNS_11char_traitsIcEENS_9allocatorIcEEEERNS4_IS6_EEEC1B8ue170006IDnS9_EEOT_OT0_, symObjAddr: 0x7D24, symBinAddr: 0x10000E114, symSize: 0x3C }
  - { offsetInCU: 0x3D3D0, offset: 0x54824, size: 0x8, addend: 0x0, symName: __ZNSt3__114__split_bufferINS_12basic_stringIcNS_11char_traitsIcEENS_9allocatorIcEEEERNS4_IS6_EEE7__allocB8ue170006Ev, symObjAddr: 0x7DA0, symBinAddr: 0x10000E190, symSize: 0x28 }
  - { offsetInCU: 0x3D3F6, offset: 0x5484A, size: 0x8, addend: 0x0, symName: __ZNSt3__114__split_bufferINS_12basic_stringIcNS_11char_traitsIcEENS_9allocatorIcEEEERNS4_IS6_EEE9__end_capB8ue170006Ev, symObjAddr: 0x7DC8, symBinAddr: 0x10000E1B8, symSize: 0x28 }
  - { offsetInCU: 0x3D41C, offset: 0x54870, size: 0x8, addend: 0x0, symName: __ZNSt3__117__compressed_pairIPNS_12basic_stringIcNS_11char_traitsIcEENS_9allocatorIcEEEERNS4_IS6_EEEC2B8ue170006IDnS9_EEOT_OT0_, symObjAddr: 0x7DF0, symBinAddr: 0x10000E1E0, symSize: 0x48 }
  - { offsetInCU: 0x3D474, offset: 0x548C8, size: 0x8, addend: 0x0, symName: __ZNSt3__122__compressed_pair_elemIRNS_9allocatorINS_12basic_stringIcNS_11char_traitsIcEENS1_IcEEEEEELi1ELb0EEC2B8ue170006IS8_vEEOT_, symObjAddr: 0x7E38, symBinAddr: 0x10000E228, symSize: 0x20 }
  - { offsetInCU: 0x3D4B6, offset: 0x5490A, size: 0x8, addend: 0x0, symName: __ZNSt3__19allocatorINS_12basic_stringIcNS_11char_traitsIcEENS0_IcEEEEE8allocateB8ue170006Em, symObjAddr: 0x7E58, symBinAddr: 0x10000E248, symSize: 0x5C }
  - { offsetInCU: 0x3D4EA, offset: 0x5493E, size: 0x8, addend: 0x0, symName: __ZNSt3__117__compressed_pairIPNS_12basic_stringIcNS_11char_traitsIcEENS_9allocatorIcEEEERNS4_IS6_EEE6secondB8ue170006Ev, symObjAddr: 0x7EB4, symBinAddr: 0x10000E2A4, symSize: 0x28 }
  - { offsetInCU: 0x3D510, offset: 0x54964, size: 0x8, addend: 0x0, symName: __ZNSt3__122__compressed_pair_elemIRNS_9allocatorINS_12basic_stringIcNS_11char_traitsIcEENS1_IcEEEEEELi1ELb0EE5__getB8ue170006Ev, symObjAddr: 0x7EDC, symBinAddr: 0x10000E2CC, symSize: 0x18 }
  - { offsetInCU: 0x3D536, offset: 0x5498A, size: 0x8, addend: 0x0, symName: __ZNSt3__117__compressed_pairIPNS_12basic_stringIcNS_11char_traitsIcEENS_9allocatorIcEEEERNS4_IS6_EEE5firstB8ue170006Ev, symObjAddr: 0x7EF4, symBinAddr: 0x10000E2E4, symSize: 0x24 }
  - { offsetInCU: 0x3D55C, offset: 0x549B0, size: 0x8, addend: 0x0, symName: __ZNSt3__116reverse_iteratorIPNS_12basic_stringIcNS_11char_traitsIcEENS_9allocatorIcEEEEEC1B8ue170006ES7_, symObjAddr: 0x8118, symBinAddr: 0x10000E434, symSize: 0x34 }
  - { offsetInCU: 0x3D594, offset: 0x549E8, size: 0x8, addend: 0x0, symName: __ZNKSt3__116reverse_iteratorIPNS_12basic_stringIcNS_11char_traitsIcEENS_9allocatorIcEEEEE4baseB8ue170006Ev, symObjAddr: 0x814C, symBinAddr: 0x10000E468, symSize: 0x18 }
  - { offsetInCU: 0x3D5BA, offset: 0x54A0E, size: 0x8, addend: 0x0, symName: __ZNKSt3__16vectorINS_12basic_stringIcNS_11char_traitsIcEENS_9allocatorIcEEEENS4_IS6_EEE14__annotate_newB8ue170006Em, symObjAddr: 0x81A0, symBinAddr: 0x10000E4BC, symSize: 0xC8 }
  - { offsetInCU: 0x3D5EF, offset: 0x54A43, size: 0x8, addend: 0x0, symName: __ZNSt3__129_AllocatorDestroyRangeReverseINS_9allocatorINS_12basic_stringIcNS_11char_traitsIcEENS1_IcEEEEEENS_16reverse_iteratorIPS6_EEEC1B8ue170006ERS7_RSA_SD_, symObjAddr: 0x82FC, symBinAddr: 0x10000E5D0, symSize: 0x44 }
  - { offsetInCU: 0x3D64B, offset: 0x54A9F, size: 0x8, addend: 0x0, symName: __ZNSt3__116allocator_traitsINS_9allocatorINS_12basic_stringIcNS_11char_traitsIcEENS1_IcEEEEEEE9constructB8ue170006IS6_JS6_EvvEEvRS7_PT_DpOT0_, symObjAddr: 0x8388, symBinAddr: 0x10000E65C, symSize: 0x30 }
  - { offsetInCU: 0x3D6A0, offset: 0x54AF4, size: 0x8, addend: 0x0, symName: __ZNKSt3__116reverse_iteratorIPNS_12basic_stringIcNS_11char_traitsIcEENS_9allocatorIcEEEEEdeB8ue170006Ev, symObjAddr: 0x83DC, symBinAddr: 0x10000E6B0, symSize: 0x28 }
  - { offsetInCU: 0x3D6D4, offset: 0x54B28, size: 0x8, addend: 0x0, symName: __ZNSt3__116reverse_iteratorIPNS_12basic_stringIcNS_11char_traitsIcEENS_9allocatorIcEEEEEppB8ue170006Ev, symObjAddr: 0x8404, symBinAddr: 0x10000E6D8, symSize: 0x20 }
  - { offsetInCU: 0x3D6FA, offset: 0x54B4E, size: 0x8, addend: 0x0, symName: __ZNSt3__128__exception_guard_exceptionsINS_29_AllocatorDestroyRangeReverseINS_9allocatorINS_12basic_stringIcNS_11char_traitsIcEENS2_IcEEEEEENS_16reverse_iteratorIPS7_EEEEE10__completeB8ue170006Ev, symObjAddr: 0x8424, symBinAddr: 0x10000E6F8, symSize: 0x1C }
  - { offsetInCU: 0x3D720, offset: 0x54B74, size: 0x8, addend: 0x0, symName: __ZNSt3__128__exception_guard_exceptionsINS_29_AllocatorDestroyRangeReverseINS_9allocatorINS_12basic_stringIcNS_11char_traitsIcEENS2_IcEEEEEENS_16reverse_iteratorIPS7_EEEEED1B8ue170006Ev, symObjAddr: 0x8440, symBinAddr: 0x10000E714, symSize: 0x2C }
  - { offsetInCU: 0x3D74A, offset: 0x54B9E, size: 0x8, addend: 0x0, symName: __ZNSt3__128__exception_guard_exceptionsINS_29_AllocatorDestroyRangeReverseINS_9allocatorINS_12basic_stringIcNS_11char_traitsIcEENS2_IcEEEEEENS_16reverse_iteratorIPS7_EEEEEC1B8ue170006ESC_, symObjAddr: 0x846C, symBinAddr: 0x10000E740, symSize: 0x34 }
  - { offsetInCU: 0x3D783, offset: 0x54BD7, size: 0x8, addend: 0x0, symName: __ZNSt3__128__exception_guard_exceptionsINS_29_AllocatorDestroyRangeReverseINS_9allocatorINS_12basic_stringIcNS_11char_traitsIcEENS2_IcEEEEEENS_16reverse_iteratorIPS7_EEEEEC2B8ue170006ESC_, symObjAddr: 0x84A0, symBinAddr: 0x10000E774, symSize: 0x30 }
  - { offsetInCU: 0x3D7BC, offset: 0x54C10, size: 0x8, addend: 0x0, symName: __ZNSt3__129_AllocatorDestroyRangeReverseINS_9allocatorINS_12basic_stringIcNS_11char_traitsIcEENS1_IcEEEEEENS_16reverse_iteratorIPS6_EEEC2B8ue170006ERS7_RSA_SD_, symObjAddr: 0x84D0, symBinAddr: 0x10000E7A4, symSize: 0x38 }
  - { offsetInCU: 0x3D813, offset: 0x54C67, size: 0x8, addend: 0x0, symName: __ZNSt3__112basic_stringIcNS_11char_traitsIcEENS_9allocatorIcEEEC1B8ue170006EOS5_, symObjAddr: 0x8544, symBinAddr: 0x10000E818, symSize: 0x34 }
  - { offsetInCU: 0x3D84C, offset: 0x54CA0, size: 0x8, addend: 0x0, symName: __ZNSt3__112basic_stringIcNS_11char_traitsIcEENS_9allocatorIcEEEC2B8ue170006EOS5_, symObjAddr: 0x8578, symBinAddr: 0x10000E84C, symSize: 0x48 }
  - { offsetInCU: 0x3D88A, offset: 0x54CDE, size: 0x8, addend: 0x0, symName: __ZNSt3__119__to_address_helperINS_16reverse_iteratorIPNS_12basic_stringIcNS_11char_traitsIcEENS_9allocatorIcEEEEEEvE6__callB8ue170006ERKS9_, symObjAddr: 0x85C0, symBinAddr: 0x10000E894, symSize: 0x38 }
  - { offsetInCU: 0x3D8AD, offset: 0x54D01, size: 0x8, addend: 0x0, symName: __ZNKSt3__116reverse_iteratorIPNS_12basic_stringIcNS_11char_traitsIcEENS_9allocatorIcEEEEEptB8ue170006Ev, symObjAddr: 0x85F8, symBinAddr: 0x10000E8CC, symSize: 0x2C }
  - { offsetInCU: 0x3D8D3, offset: 0x54D27, size: 0x8, addend: 0x0, symName: __ZNSt3__128__exception_guard_exceptionsINS_29_AllocatorDestroyRangeReverseINS_9allocatorINS_12basic_stringIcNS_11char_traitsIcEENS2_IcEEEEEENS_16reverse_iteratorIPS7_EEEEED2B8ue170006Ev, symObjAddr: 0x86DC, symBinAddr: 0x10000E9B0, symSize: 0x50 }
  - { offsetInCU: 0x3D8FD, offset: 0x54D51, size: 0x8, addend: 0x0, symName: __ZNKSt3__129_AllocatorDestroyRangeReverseINS_9allocatorINS_12basic_stringIcNS_11char_traitsIcEENS1_IcEEEEEENS_16reverse_iteratorIPS6_EEEclB8ue170006Ev, symObjAddr: 0x872C, symBinAddr: 0x10000EA00, symSize: 0xB4 }
  - { offsetInCU: 0x3D924, offset: 0x54D78, size: 0x8, addend: 0x0, symName: __ZNSt3__116reverse_iteratorINS0_IPNS_12basic_stringIcNS_11char_traitsIcEENS_9allocatorIcEEEEEEEC1B8ue170006ES8_, symObjAddr: 0x8850, symBinAddr: 0x10000EB24, symSize: 0x3C }
  - { offsetInCU: 0x3D95C, offset: 0x54DB0, size: 0x8, addend: 0x0, symName: __ZNSt3__116reverse_iteratorINS0_IPNS_12basic_stringIcNS_11char_traitsIcEENS_9allocatorIcEEEEEEEppB8ue170006Ev, symObjAddr: 0x8938, symBinAddr: 0x10000EBE4, symSize: 0x30 }
  - { offsetInCU: 0x3D982, offset: 0x54DD6, size: 0x8, addend: 0x0, symName: __ZNKSt3__116reverse_iteratorINS0_IPNS_12basic_stringIcNS_11char_traitsIcEENS_9allocatorIcEEEEEEE4baseB8ue170006Ev, symObjAddr: 0x8968, symBinAddr: 0x10000EC14, symSize: 0x24 }
  - { offsetInCU: 0x3D9AD, offset: 0x54E01, size: 0x8, addend: 0x0, symName: __ZNSt3__119__to_address_helperINS_16reverse_iteratorINS1_IPNS_12basic_stringIcNS_11char_traitsIcEENS_9allocatorIcEEEEEEEEvE6__callB8ue170006ERKSA_, symObjAddr: 0x898C, symBinAddr: 0x10000EC38, symSize: 0x38 }
  - { offsetInCU: 0x3D9D0, offset: 0x54E24, size: 0x8, addend: 0x0, symName: __ZNKSt3__116reverse_iteratorINS0_IPNS_12basic_stringIcNS_11char_traitsIcEENS_9allocatorIcEEEEEEEptB8ue170006Ev, symObjAddr: 0x89C4, symBinAddr: 0x10000EC70, symSize: 0x4C }
  - { offsetInCU: 0x3D9F6, offset: 0x54E4A, size: 0x8, addend: 0x0, symName: __ZNSt3__116reverse_iteratorIPNS_12basic_stringIcNS_11char_traitsIcEENS_9allocatorIcEEEEEpLB8ue170006El, symObjAddr: 0x8AC0, symBinAddr: 0x10000ED6C, symSize: 0x30 }
  - { offsetInCU: 0x3DA2A, offset: 0x54E7E, size: 0x8, addend: 0x0, symName: __ZNSt3__116reverse_iteratorIPNS_12basic_stringIcNS_11char_traitsIcEENS_9allocatorIcEEEEEmmB8ue170006Ev, symObjAddr: 0x8AF0, symBinAddr: 0x10000ED9C, symSize: 0x20 }
  - { offsetInCU: 0x3DA50, offset: 0x54EA4, size: 0x8, addend: 0x0, symName: __ZNSt3__116reverse_iteratorINS0_IPNS_12basic_stringIcNS_11char_traitsIcEENS_9allocatorIcEEEEEEEC2B8ue170006ES8_, symObjAddr: 0x8B10, symBinAddr: 0x10000EDBC, symSize: 0x2C }
  - { offsetInCU: 0x3DA88, offset: 0x54EDC, size: 0x8, addend: 0x0, symName: __ZNSt3__116reverse_iteratorIPNS_12basic_stringIcNS_11char_traitsIcEENS_9allocatorIcEEEEEC2B8ue170006ES7_, symObjAddr: 0x8B3C, symBinAddr: 0x10000EDE8, symSize: 0x28 }
  - { offsetInCU: 0x3DAC0, offset: 0x54F14, size: 0x8, addend: 0x0, symName: __ZNSt3__114__split_bufferINS_12basic_stringIcNS_11char_traitsIcEENS_9allocatorIcEEEERNS4_IS6_EEED2Ev, symObjAddr: 0x8B64, symBinAddr: 0x10000EE10, symSize: 0x8C }
  - { offsetInCU: 0x3DAEC, offset: 0x54F40, size: 0x8, addend: 0x0, symName: __ZNSt3__114__split_bufferINS_12basic_stringIcNS_11char_traitsIcEENS_9allocatorIcEEEERNS4_IS6_EEE5clearB8ue170006Ev, symObjAddr: 0x8BF0, symBinAddr: 0x10000EE9C, symSize: 0x28 }
  - { offsetInCU: 0x3DB12, offset: 0x54F66, size: 0x8, addend: 0x0, symName: __ZNKSt3__114__split_bufferINS_12basic_stringIcNS_11char_traitsIcEENS_9allocatorIcEEEERNS4_IS6_EEE8capacityB8ue170006Ev, symObjAddr: 0x8C4C, symBinAddr: 0x10000EEC4, symSize: 0x40 }
  - { offsetInCU: 0x3DB38, offset: 0x54F8C, size: 0x8, addend: 0x0, symName: __ZNSt3__114__split_bufferINS_12basic_stringIcNS_11char_traitsIcEENS_9allocatorIcEEEERNS4_IS6_EEE17__destruct_at_endB8ue170006EPS6_, symObjAddr: 0x8C8C, symBinAddr: 0x10000EF04, symSize: 0x2C }
  - { offsetInCU: 0x3DB6C, offset: 0x54FC0, size: 0x8, addend: 0x0, symName: __ZNSt3__114__split_bufferINS_12basic_stringIcNS_11char_traitsIcEENS_9allocatorIcEEEERNS4_IS6_EEE17__destruct_at_endB8ue170006EPS6_NS_17integral_constantIbLb0EEE, symObjAddr: 0x8CB8, symBinAddr: 0x10000EF30, symSize: 0x80 }
  - { offsetInCU: 0x3DBAD, offset: 0x55001, size: 0x8, addend: 0x0, symName: __ZNKSt3__114__split_bufferINS_12basic_stringIcNS_11char_traitsIcEENS_9allocatorIcEEEERNS4_IS6_EEE9__end_capB8ue170006Ev, symObjAddr: 0x8D7C, symBinAddr: 0x10000EFB0, symSize: 0x28 }
  - { offsetInCU: 0x3DBD3, offset: 0x55027, size: 0x8, addend: 0x0, symName: __ZNKSt3__117__compressed_pairIPNS_12basic_stringIcNS_11char_traitsIcEENS_9allocatorIcEEEERNS4_IS6_EEE5firstB8ue170006Ev, symObjAddr: 0x8DA4, symBinAddr: 0x10000EFD8, symSize: 0x24 }
  - { offsetInCU: 0x3DBF9, offset: 0x5504D, size: 0x8, addend: 0x0, symName: __ZNSt3__14pairINS_12basic_stringIcNS_11char_traitsIcEENS_9allocatorIcEEEES6_EC1B8ue170006IRS6_S9_LPv0EEEOT_OT0_, symObjAddr: 0x8DC8, symBinAddr: 0x10000EFFC, symSize: 0x3C }
  - { offsetInCU: 0x3DC58, offset: 0x550AC, size: 0x8, addend: 0x0, symName: __ZNSt3__14pairINS_12basic_stringIcNS_11char_traitsIcEENS_9allocatorIcEEEES6_EC2B8ue170006IRS6_S9_LPv0EEEOT_OT0_, symObjAddr: 0x8E04, symBinAddr: 0x10000F038, symSize: 0x70 }
  - { offsetInCU: 0x3DCB7, offset: 0x5510B, size: 0x8, addend: 0x0, symName: __ZNSt3__114basic_ifstreamIcNS_11char_traitsIcEEED2Ev, symObjAddr: 0x8EAC, symBinAddr: 0x10000F0A8, symSize: 0x64 }
  - { offsetInCU: 0x3DCF1, offset: 0x55145, size: 0x8, addend: 0x0, symName: __ZTv0_n24_NSt3__114basic_ifstreamIcNS_11char_traitsIcEEED1Ev, symObjAddr: 0x8F10, symBinAddr: 0x10000F10C, symSize: 0x28 }
  - { offsetInCU: 0x3DD08, offset: 0x5515C, size: 0x8, addend: 0x0, symName: __ZNSt3__14pairIKNS_12basic_stringIcNS_11char_traitsIcEENS_9allocatorIcEEEES6_EC2B8ue170006IRS6_SA_LPv0EEEOT_OT0_, symObjAddr: 0x9114, symBinAddr: 0x10000F134, symSize: 0x70 }
  - { offsetInCU: 0x3DD67, offset: 0x551BB, size: 0x8, addend: 0x0, symName: __ZNSt3__14pairIKNS_12basic_stringIcNS_11char_traitsIcEENS_9allocatorIcEEEES6_ED2Ev, symObjAddr: 0x9184, symBinAddr: 0x10000F1A4, symSize: 0x38 }
  - { offsetInCU: 0x3DD93, offset: 0x551E7, size: 0x8, addend: 0x0, symName: __ZNSt3__15queueINS_12basic_stringIcNS_11char_traitsIcEENS_9allocatorIcEEEENS_5dequeIS6_NS4_IS6_EEEEED2Ev, symObjAddr: 0x91BC, symBinAddr: 0x10000F1DC, symSize: 0x2C }
  - { offsetInCU: 0x3DDC0, offset: 0x55214, size: 0x8, addend: 0x0, symName: __ZNSt3__15dequeINS_12basic_stringIcNS_11char_traitsIcEENS_9allocatorIcEEEENS4_IS6_EEED1B8ue170006Ev, symObjAddr: 0x91E8, symBinAddr: 0x10000F208, symSize: 0x2C }
  - { offsetInCU: 0x3DDEA, offset: 0x5523E, size: 0x8, addend: 0x0, symName: __ZNSt3__15dequeINS_12basic_stringIcNS_11char_traitsIcEENS_9allocatorIcEEEENS4_IS6_EEED2B8ue170006Ev, symObjAddr: 0x9214, symBinAddr: 0x10000F234, symSize: 0xA4 }
  - { offsetInCU: 0x3DE40, offset: 0x55294, size: 0x8, addend: 0x0, symName: __ZNSt3__15dequeINS_12basic_stringIcNS_11char_traitsIcEENS_9allocatorIcEEEENS4_IS6_EEE5clearEv, symObjAddr: 0x92B8, symBinAddr: 0x10000F2D8, symSize: 0x194 }
  - { offsetInCU: 0x3DE9B, offset: 0x552EF, size: 0x8, addend: 0x0, symName: __ZNKSt3__15dequeINS_12basic_stringIcNS_11char_traitsIcEENS_9allocatorIcEEEENS4_IS6_EEE17__annotate_deleteB8ue170006Ev, symObjAddr: 0x944C, symBinAddr: 0x10000F46C, symSize: 0xEC }
  - { offsetInCU: 0x3DEDE, offset: 0x55332, size: 0x8, addend: 0x0, symName: __ZNSt3__114__split_bufferIPNS_12basic_stringIcNS_11char_traitsIcEENS_9allocatorIcEEEENS4_IS7_EEE5beginB8ue170006Ev, symObjAddr: 0x9538, symBinAddr: 0x10000F558, symSize: 0x18 }
  - { offsetInCU: 0x3DF04, offset: 0x55358, size: 0x8, addend: 0x0, symName: __ZNSt3__114__split_bufferIPNS_12basic_stringIcNS_11char_traitsIcEENS_9allocatorIcEEEENS4_IS7_EEE3endB8ue170006Ev, symObjAddr: 0x9550, symBinAddr: 0x10000F570, symSize: 0x18 }
  - { offsetInCU: 0x3DF2A, offset: 0x5537E, size: 0x8, addend: 0x0, symName: __ZNSt3__15dequeINS_12basic_stringIcNS_11char_traitsIcEENS_9allocatorIcEEEENS4_IS6_EEE7__allocB8ue170006Ev, symObjAddr: 0x9568, symBinAddr: 0x10000F588, symSize: 0x28 }
  - { offsetInCU: 0x3DF50, offset: 0x553A4, size: 0x8, addend: 0x0, symName: __ZNSt3__114__split_bufferIPNS_12basic_stringIcNS_11char_traitsIcEENS_9allocatorIcEEEENS4_IS7_EEED1Ev, symObjAddr: 0x9590, symBinAddr: 0x10000F5B0, symSize: 0x2C }
  - { offsetInCU: 0x3DF7C, offset: 0x553D0, size: 0x8, addend: 0x0, symName: __ZNSt3__15dequeINS_12basic_stringIcNS_11char_traitsIcEENS_9allocatorIcEEEENS4_IS6_EEE5beginB8ue170006Ev, symObjAddr: 0x95BC, symBinAddr: 0x10000F5DC, symSize: 0xC0 }
  - { offsetInCU: 0x3DFB1, offset: 0x55405, size: 0x8, addend: 0x0, symName: __ZNSt3__15dequeINS_12basic_stringIcNS_11char_traitsIcEENS_9allocatorIcEEEENS4_IS6_EEE3endB8ue170006Ev, symObjAddr: 0x967C, symBinAddr: 0x10000F69C, symSize: 0xC4 }
  - { offsetInCU: 0x3DFF5, offset: 0x55449, size: 0x8, addend: 0x0, symName: __ZNKSt3__116__deque_iteratorINS_12basic_stringIcNS_11char_traitsIcEENS_9allocatorIcEEEEPS6_RS6_PS7_lLl170EEdeB8ue170006Ev, symObjAddr: 0x9774, symBinAddr: 0x10000F794, symSize: 0x18 }
  - { offsetInCU: 0x3E01B, offset: 0x5546F, size: 0x8, addend: 0x0, symName: __ZNSt3__116__deque_iteratorINS_12basic_stringIcNS_11char_traitsIcEENS_9allocatorIcEEEEPS6_RS6_PS7_lLl170EEppB8ue170006Ev, symObjAddr: 0x978C, symBinAddr: 0x10000F7AC, symSize: 0x70 }
  - { offsetInCU: 0x3E041, offset: 0x55495, size: 0x8, addend: 0x0, symName: __ZNSt3__15dequeINS_12basic_stringIcNS_11char_traitsIcEENS_9allocatorIcEEEENS4_IS6_EEE6__sizeB8ue170006Ev, symObjAddr: 0x97FC, symBinAddr: 0x10000F81C, symSize: 0x28 }
  - { offsetInCU: 0x3E067, offset: 0x554BB, size: 0x8, addend: 0x0, symName: __ZNKSt3__114__split_bufferIPNS_12basic_stringIcNS_11char_traitsIcEENS_9allocatorIcEEEENS4_IS7_EEE4sizeB8ue170006Ev, symObjAddr: 0x9824, symBinAddr: 0x10000F844, symSize: 0x28 }
  - { offsetInCU: 0x3E08D, offset: 0x554E1, size: 0x8, addend: 0x0, symName: __ZNSt3__114__split_bufferIPNS_12basic_stringIcNS_11char_traitsIcEENS_9allocatorIcEEEENS4_IS7_EEE5frontB8ue170006Ev, symObjAddr: 0x984C, symBinAddr: 0x10000F86C, symSize: 0x18 }
  - { offsetInCU: 0x3E0B3, offset: 0x55507, size: 0x8, addend: 0x0, symName: __ZNSt3__114__split_bufferIPNS_12basic_stringIcNS_11char_traitsIcEENS_9allocatorIcEEEENS4_IS7_EEE9pop_frontB8ue170006Ev, symObjAddr: 0x9864, symBinAddr: 0x10000F884, symSize: 0x2C }
  - { offsetInCU: 0x3E0D9, offset: 0x5552D, size: 0x8, addend: 0x0, symName: __ZNKSt3__15dequeINS_12basic_stringIcNS_11char_traitsIcEENS_9allocatorIcEEEENS4_IS6_EEE14__annotate_newB8ue170006Em, symObjAddr: 0x9890, symBinAddr: 0x10000F8B0, symSize: 0xC0 }
  - { offsetInCU: 0x3E10E, offset: 0x55562, size: 0x8, addend: 0x0, symName: __ZNKSt3__114__split_bufferIPNS_12basic_stringIcNS_11char_traitsIcEENS_9allocatorIcEEEENS4_IS7_EEE5emptyB8ue170006Ev, symObjAddr: 0x9950, symBinAddr: 0x10000F970, symSize: 0x28 }
  - { offsetInCU: 0x3E134, offset: 0x55588, size: 0x8, addend: 0x0, symName: __ZNSt3__116__deque_iteratorINS_12basic_stringIcNS_11char_traitsIcEENS_9allocatorIcEEEEPS6_RS6_PS7_lLl170EEC1B8ue170006ES9_S7_, symObjAddr: 0x9978, symBinAddr: 0x10000F998, symSize: 0x3C }
  - { offsetInCU: 0x3E17C, offset: 0x555D0, size: 0x8, addend: 0x0, symName: __ZNSt3__116__deque_iteratorINS_12basic_stringIcNS_11char_traitsIcEENS_9allocatorIcEEEEPS6_RS6_PS7_lLl170EEC2B8ue170006ES9_S7_, symObjAddr: 0x99B4, symBinAddr: 0x10000F9D4, symSize: 0x2C }
  - { offsetInCU: 0x3E1C4, offset: 0x55618, size: 0x8, addend: 0x0, symName: __ZNKSt3__15dequeINS_12basic_stringIcNS_11char_traitsIcEENS_9allocatorIcEEEENS4_IS6_EEE4sizeB8ue170006Ev, symObjAddr: 0x99E0, symBinAddr: 0x10000FA00, symSize: 0x28 }
  - { offsetInCU: 0x3E1EA, offset: 0x5563E, size: 0x8, addend: 0x0, symName: __ZNKSt3__15dequeINS_12basic_stringIcNS_11char_traitsIcEENS_9allocatorIcEEEENS4_IS6_EEE6__sizeB8ue170006Ev, symObjAddr: 0x9A08, symBinAddr: 0x10000FA28, symSize: 0x28 }
  - { offsetInCU: 0x3E210, offset: 0x55664, size: 0x8, addend: 0x0, symName: __ZNKSt3__117__compressed_pairImNS_9allocatorINS_12basic_stringIcNS_11char_traitsIcEENS1_IcEEEEEEE5firstB8ue170006Ev, symObjAddr: 0x9A30, symBinAddr: 0x10000FA50, symSize: 0x24 }
  - { offsetInCU: 0x3E236, offset: 0x5568A, size: 0x8, addend: 0x0, symName: __ZNSt3__117__compressed_pairImNS_9allocatorINS_12basic_stringIcNS_11char_traitsIcEENS1_IcEEEEEEE5firstB8ue170006Ev, symObjAddr: 0x9A84, symBinAddr: 0x10000FAA4, symSize: 0x24 }
  - { offsetInCU: 0x3E25C, offset: 0x556B0, size: 0x8, addend: 0x0, symName: __ZNSt3__114__split_bufferIPNS_12basic_stringIcNS_11char_traitsIcEENS_9allocatorIcEEEENS4_IS7_EEE19__destruct_at_beginB8ue170006EPS7_, symObjAddr: 0x9AA8, symBinAddr: 0x10000FAC8, symSize: 0x2C }
  - { offsetInCU: 0x3E290, offset: 0x556E4, size: 0x8, addend: 0x0, symName: __ZNSt3__114__split_bufferIPNS_12basic_stringIcNS_11char_traitsIcEENS_9allocatorIcEEEENS4_IS7_EEE19__destruct_at_beginEPS7_NS_17integral_constantIbLb1EEE, symObjAddr: 0x9AD4, symBinAddr: 0x10000FAF4, symSize: 0x20 }
  - { offsetInCU: 0x3E2D1, offset: 0x55725, size: 0x8, addend: 0x0, symName: __ZNKSt3__15dequeINS_12basic_stringIcNS_11char_traitsIcEENS_9allocatorIcEEEENS4_IS6_EEE18__annotate_from_toB8ue170006EmmNS8_22__asan_annotation_typeENS8_23__asan_annotation_placeE, symObjAddr: 0x9AF4, symBinAddr: 0x10000FB14, symSize: 0x598 }
  - { offsetInCU: 0x3E48D, offset: 0x558E1, size: 0x8, addend: 0x0, symName: __ZNKSt3__114__split_bufferIPNS_12basic_stringIcNS_11char_traitsIcEENS_9allocatorIcEEEENS4_IS7_EEE5beginB8ue170006Ev, symObjAddr: 0xA08C, symBinAddr: 0x1000100AC, symSize: 0x18 }
  - { offsetInCU: 0x3E4B3, offset: 0x55907, size: 0x8, addend: 0x0, symName: __ZNKSt3__15dequeINS_12basic_stringIcNS_11char_traitsIcEENS_9allocatorIcEEEENS4_IS6_EEE5emptyB8ue170006Ev, symObjAddr: 0xA0A4, symBinAddr: 0x1000100C4, symSize: 0x30 }
  - { offsetInCU: 0x3E4D9, offset: 0x5592D, size: 0x8, addend: 0x0, symName: __ZNKSt3__15dequeINS_12basic_stringIcNS_11char_traitsIcEENS_9allocatorIcEEEENS4_IS6_EEE44__annotate_double_ended_contiguous_containerB8ue170006EPKvSA_SA_SA_SA_SA_, symObjAddr: 0xA0D4, symBinAddr: 0x1000100F4, symSize: 0x28 }
  - { offsetInCU: 0x3E547, offset: 0x5599B, size: 0x8, addend: 0x0, symName: __ZNKSt3__15dequeINS_12basic_stringIcNS_11char_traitsIcEENS_9allocatorIcEEEENS4_IS6_EEE22__annotate_whole_blockB8ue170006EmNS8_22__asan_annotation_typeE, symObjAddr: 0xA0FC, symBinAddr: 0x10001011C, symSize: 0xAC }
  - { offsetInCU: 0x3E5B8, offset: 0x55A0C, size: 0x8, addend: 0x0, symName: __ZNKSt3__15dequeINS_12basic_stringIcNS_11char_traitsIcEENS_9allocatorIcEEEENS4_IS6_EEE23__annotate_poison_blockB8ue170006EPKvSA_, symObjAddr: 0xA1A8, symBinAddr: 0x1000101C8, symSize: 0x44 }
  - { offsetInCU: 0x3E5FC, offset: 0x55A50, size: 0x8, addend: 0x0, symName: __ZNSt3__117__compressed_pairImNS_9allocatorINS_12basic_stringIcNS_11char_traitsIcEENS1_IcEEEEEEE6secondB8ue170006Ev, symObjAddr: 0xA1EC, symBinAddr: 0x10001020C, symSize: 0x24 }
  - { offsetInCU: 0x3E622, offset: 0x55A76, size: 0x8, addend: 0x0, symName: __ZNSt3__114__split_bufferIPNS_12basic_stringIcNS_11char_traitsIcEENS_9allocatorIcEEEENS4_IS7_EEED2Ev, symObjAddr: 0xA210, symBinAddr: 0x100010230, symSize: 0x8C }
  - { offsetInCU: 0x3E64E, offset: 0x55AA2, size: 0x8, addend: 0x0, symName: __ZNSt3__114__split_bufferIPNS_12basic_stringIcNS_11char_traitsIcEENS_9allocatorIcEEEENS4_IS7_EEE5clearB8ue170006Ev, symObjAddr: 0xA29C, symBinAddr: 0x1000102BC, symSize: 0x28 }
  - { offsetInCU: 0x3E674, offset: 0x55AC8, size: 0x8, addend: 0x0, symName: __ZNSt3__116allocator_traitsINS_9allocatorIPNS_12basic_stringIcNS_11char_traitsIcEENS1_IcEEEEEEE10deallocateB8ue170006ERS8_PS7_m, symObjAddr: 0xA2C4, symBinAddr: 0x1000102E4, symSize: 0x34 }
  - { offsetInCU: 0x3E6B6, offset: 0x55B0A, size: 0x8, addend: 0x0, symName: __ZNSt3__114__split_bufferIPNS_12basic_stringIcNS_11char_traitsIcEENS_9allocatorIcEEEENS4_IS7_EEE7__allocB8ue170006Ev, symObjAddr: 0xA2F8, symBinAddr: 0x100010318, symSize: 0x28 }
  - { offsetInCU: 0x3E6DC, offset: 0x55B30, size: 0x8, addend: 0x0, symName: __ZNKSt3__114__split_bufferIPNS_12basic_stringIcNS_11char_traitsIcEENS_9allocatorIcEEEENS4_IS7_EEE8capacityB8ue170006Ev, symObjAddr: 0xA320, symBinAddr: 0x100010340, symSize: 0x40 }
  - { offsetInCU: 0x3E702, offset: 0x55B56, size: 0x8, addend: 0x0, symName: __ZNSt3__114__split_bufferIPNS_12basic_stringIcNS_11char_traitsIcEENS_9allocatorIcEEEENS4_IS7_EEE17__destruct_at_endB8ue170006EPS7_, symObjAddr: 0xA360, symBinAddr: 0x100010380, symSize: 0x2C }
  - { offsetInCU: 0x3E736, offset: 0x55B8A, size: 0x8, addend: 0x0, symName: __ZNSt3__114__split_bufferIPNS_12basic_stringIcNS_11char_traitsIcEENS_9allocatorIcEEEENS4_IS7_EEE17__destruct_at_endB8ue170006EPS7_NS_17integral_constantIbLb0EEE, symObjAddr: 0xA38C, symBinAddr: 0x1000103AC, symSize: 0x80 }
  - { offsetInCU: 0x3E77C, offset: 0x55BD0, size: 0x8, addend: 0x0, symName: __ZNSt3__116allocator_traitsINS_9allocatorIPNS_12basic_stringIcNS_11char_traitsIcEENS1_IcEEEEEEE7destroyB8ue170006IS7_vvEEvRS8_PT_, symObjAddr: 0xA40C, symBinAddr: 0x10001042C, symSize: 0x28 }
  - { offsetInCU: 0x3E7B7, offset: 0x55C0B, size: 0x8, addend: 0x0, symName: __ZNSt3__19allocatorIPNS_12basic_stringIcNS_11char_traitsIcEENS0_IcEEEEE10deallocateB8ue170006EPS6_m, symObjAddr: 0xA47C, symBinAddr: 0x10001049C, symSize: 0x40 }
  - { offsetInCU: 0x3E7F9, offset: 0x55C4D, size: 0x8, addend: 0x0, symName: __ZNSt3__117__compressed_pairIPPNS_12basic_stringIcNS_11char_traitsIcEENS_9allocatorIcEEEENS4_IS7_EEE6secondB8ue170006Ev, symObjAddr: 0xA4BC, symBinAddr: 0x1000104DC, symSize: 0x24 }
  - { offsetInCU: 0x3E81F, offset: 0x55C73, size: 0x8, addend: 0x0, symName: __ZNSt3__122__compressed_pair_elemINS_9allocatorIPNS_12basic_stringIcNS_11char_traitsIcEENS1_IcEEEEEELi1ELb1EE5__getB8ue170006Ev, symObjAddr: 0xA4E0, symBinAddr: 0x100010500, symSize: 0x14 }
  - { offsetInCU: 0x3E845, offset: 0x55C99, size: 0x8, addend: 0x0, symName: __ZNKSt3__114__split_bufferIPNS_12basic_stringIcNS_11char_traitsIcEENS_9allocatorIcEEEENS4_IS7_EEE9__end_capB8ue170006Ev, symObjAddr: 0xA4F4, symBinAddr: 0x100010514, symSize: 0x28 }
  - { offsetInCU: 0x3E86B, offset: 0x55CBF, size: 0x8, addend: 0x0, symName: __ZNKSt3__117__compressed_pairIPPNS_12basic_stringIcNS_11char_traitsIcEENS_9allocatorIcEEEENS4_IS7_EEE5firstB8ue170006Ev, symObjAddr: 0xA51C, symBinAddr: 0x10001053C, symSize: 0x24 }
  - { offsetInCU: 0x3E891, offset: 0x55CE5, size: 0x8, addend: 0x0, symName: __ZNKSt3__122__compressed_pair_elemIPPNS_12basic_stringIcNS_11char_traitsIcEENS_9allocatorIcEEEELi0ELb0EE5__getB8ue170006Ev, symObjAddr: 0xA540, symBinAddr: 0x100010560, symSize: 0x14 }
  - { offsetInCU: 0x3E8B7, offset: 0x55D0B, size: 0x8, addend: 0x0, symName: __ZNSt3__14pairINS_12basic_stringIcNS_11char_traitsIcEENS_9allocatorIcEEEES6_EC2B8ue170006ERKS7_, symObjAddr: 0xA554, symBinAddr: 0x100010574, symSize: 0x70 }
  - { offsetInCU: 0x3E8EC, offset: 0x55D40, size: 0x8, addend: 0x0, symName: __ZNSt3__14pairINS_12basic_stringIcNS_11char_traitsIcEENS_9allocatorIcEEEEiEC2B8ue170006IRS6_iLPv0EEEOT_OT0_, symObjAddr: 0xA5C4, symBinAddr: 0x1000105E4, symSize: 0x44 }
  - { offsetInCU: 0x3E94B, offset: 0x55D9F, size: 0x8, addend: 0x0, symName: __ZNSt3__14pairINS_12basic_stringIcNS_11char_traitsIcEENS_9allocatorIcEEEEiED2Ev, symObjAddr: 0xA608, symBinAddr: 0x100010628, symSize: 0x2C }
  - { offsetInCU: 0x3E977, offset: 0x55DCB, size: 0x8, addend: 0x0, symName: __ZNSt3__14pairINS_12basic_stringIcNS_11char_traitsIcEENS_9allocatorIcEEEEiEC2B8ue170006ERKS7_, symObjAddr: 0xA634, symBinAddr: 0x100010654, symSize: 0x40 }
  - { offsetInCU: 0x3E9AC, offset: 0x55E00, size: 0x8, addend: 0x0, symName: __ZNSt3__15queueINS_4pairINS_12basic_stringIcNS_11char_traitsIcEENS_9allocatorIcEEEEiEENS_5dequeIS8_NS5_IS8_EEEEED2Ev, symObjAddr: 0xA674, symBinAddr: 0x100010694, symSize: 0x2C }
  - { offsetInCU: 0x3E9D9, offset: 0x55E2D, size: 0x8, addend: 0x0, symName: __ZNSt3__15dequeINS_4pairINS_12basic_stringIcNS_11char_traitsIcEENS_9allocatorIcEEEEiEENS5_IS8_EEED1B8ue170006Ev, symObjAddr: 0xA6A0, symBinAddr: 0x1000106C0, symSize: 0x2C }
  - { offsetInCU: 0x3EA03, offset: 0x55E57, size: 0x8, addend: 0x0, symName: __ZNSt3__15dequeINS_4pairINS_12basic_stringIcNS_11char_traitsIcEENS_9allocatorIcEEEEiEENS5_IS8_EEED2B8ue170006Ev, symObjAddr: 0xA6CC, symBinAddr: 0x1000106EC, symSize: 0xA4 }
  - { offsetInCU: 0x3EA59, offset: 0x55EAD, size: 0x8, addend: 0x0, symName: __ZNSt3__15dequeINS_4pairINS_12basic_stringIcNS_11char_traitsIcEENS_9allocatorIcEEEEiEENS5_IS8_EEE5clearEv, symObjAddr: 0xA770, symBinAddr: 0x100010790, symSize: 0x194 }
  - { offsetInCU: 0x3EAB4, offset: 0x55F08, size: 0x8, addend: 0x0, symName: __ZNKSt3__15dequeINS_4pairINS_12basic_stringIcNS_11char_traitsIcEENS_9allocatorIcEEEEiEENS5_IS8_EEE17__annotate_deleteB8ue170006Ev, symObjAddr: 0xA904, symBinAddr: 0x100010924, symSize: 0xE8 }
  - { offsetInCU: 0x3EAF7, offset: 0x55F4B, size: 0x8, addend: 0x0, symName: __ZNSt3__114__split_bufferIPNS_4pairINS_12basic_stringIcNS_11char_traitsIcEENS_9allocatorIcEEEEiEENS5_IS9_EEE5beginB8ue170006Ev, symObjAddr: 0xA9EC, symBinAddr: 0x100010A0C, symSize: 0x18 }
  - { offsetInCU: 0x3EB1D, offset: 0x55F71, size: 0x8, addend: 0x0, symName: __ZNSt3__114__split_bufferIPNS_4pairINS_12basic_stringIcNS_11char_traitsIcEENS_9allocatorIcEEEEiEENS5_IS9_EEE3endB8ue170006Ev, symObjAddr: 0xAA04, symBinAddr: 0x100010A24, symSize: 0x18 }
  - { offsetInCU: 0x3EB43, offset: 0x55F97, size: 0x8, addend: 0x0, symName: __ZNSt3__116allocator_traitsINS_9allocatorINS_4pairINS_12basic_stringIcNS_11char_traitsIcEENS1_IcEEEEiEEEEE10deallocateB8ue170006ERS9_PS8_m, symObjAddr: 0xAA1C, symBinAddr: 0x100010A3C, symSize: 0x34 }
  - { offsetInCU: 0x3EB85, offset: 0x55FD9, size: 0x8, addend: 0x0, symName: __ZNSt3__15dequeINS_4pairINS_12basic_stringIcNS_11char_traitsIcEENS_9allocatorIcEEEEiEENS5_IS8_EEE7__allocB8ue170006Ev, symObjAddr: 0xAA50, symBinAddr: 0x100010A70, symSize: 0x28 }
  - { offsetInCU: 0x3EBAB, offset: 0x55FFF, size: 0x8, addend: 0x0, symName: __ZNSt3__114__split_bufferIPNS_4pairINS_12basic_stringIcNS_11char_traitsIcEENS_9allocatorIcEEEEiEENS5_IS9_EEED1Ev, symObjAddr: 0xAA78, symBinAddr: 0x100010A98, symSize: 0x2C }
  - { offsetInCU: 0x3EBD7, offset: 0x5602B, size: 0x8, addend: 0x0, symName: __ZNSt3__15dequeINS_4pairINS_12basic_stringIcNS_11char_traitsIcEENS_9allocatorIcEEEEiEENS5_IS8_EEE5beginB8ue170006Ev, symObjAddr: 0xAAA4, symBinAddr: 0x100010AC4, symSize: 0xB8 }
  - { offsetInCU: 0x3EC0C, offset: 0x56060, size: 0x8, addend: 0x0, symName: __ZNSt3__15dequeINS_4pairINS_12basic_stringIcNS_11char_traitsIcEENS_9allocatorIcEEEEiEENS5_IS8_EEE3endB8ue170006Ev, symObjAddr: 0xAB5C, symBinAddr: 0x100010B7C, symSize: 0xBC }
  - { offsetInCU: 0x3EC50, offset: 0x560A4, size: 0x8, addend: 0x0, symName: __ZNSt3__116allocator_traitsINS_9allocatorINS_4pairINS_12basic_stringIcNS_11char_traitsIcEENS1_IcEEEEiEEEEE7destroyB8ue170006IS8_vvEEvRS9_PT_, symObjAddr: 0xAC4C, symBinAddr: 0x100010C6C, symSize: 0x28 }
  - { offsetInCU: 0x3EC8B, offset: 0x560DF, size: 0x8, addend: 0x0, symName: __ZNKSt3__116__deque_iteratorINS_4pairINS_12basic_stringIcNS_11char_traitsIcEENS_9allocatorIcEEEEiEEPS8_RS8_PS9_lLl128EEdeB8ue170006Ev, symObjAddr: 0xAC74, symBinAddr: 0x100010C94, symSize: 0x18 }
  - { offsetInCU: 0x3ECB1, offset: 0x56105, size: 0x8, addend: 0x0, symName: __ZNSt3__116__deque_iteratorINS_4pairINS_12basic_stringIcNS_11char_traitsIcEENS_9allocatorIcEEEEiEEPS8_RS8_PS9_lLl128EEppB8ue170006Ev, symObjAddr: 0xAC8C, symBinAddr: 0x100010CAC, symSize: 0x70 }
  - { offsetInCU: 0x3ECD7, offset: 0x5612B, size: 0x8, addend: 0x0, symName: __ZNSt3__15dequeINS_4pairINS_12basic_stringIcNS_11char_traitsIcEENS_9allocatorIcEEEEiEENS5_IS8_EEE6__sizeB8ue170006Ev, symObjAddr: 0xACFC, symBinAddr: 0x100010D1C, symSize: 0x28 }
  - { offsetInCU: 0x3ECFD, offset: 0x56151, size: 0x8, addend: 0x0, symName: __ZNKSt3__114__split_bufferIPNS_4pairINS_12basic_stringIcNS_11char_traitsIcEENS_9allocatorIcEEEEiEENS5_IS9_EEE4sizeB8ue170006Ev, symObjAddr: 0xAD24, symBinAddr: 0x100010D44, symSize: 0x28 }
  - { offsetInCU: 0x3ED23, offset: 0x56177, size: 0x8, addend: 0x0, symName: __ZNSt3__114__split_bufferIPNS_4pairINS_12basic_stringIcNS_11char_traitsIcEENS_9allocatorIcEEEEiEENS5_IS9_EEE5frontB8ue170006Ev, symObjAddr: 0xAD4C, symBinAddr: 0x100010D6C, symSize: 0x18 }
  - { offsetInCU: 0x3ED49, offset: 0x5619D, size: 0x8, addend: 0x0, symName: __ZNSt3__114__split_bufferIPNS_4pairINS_12basic_stringIcNS_11char_traitsIcEENS_9allocatorIcEEEEiEENS5_IS9_EEE9pop_frontB8ue170006Ev, symObjAddr: 0xAD64, symBinAddr: 0x100010D84, symSize: 0x2C }
  - { offsetInCU: 0x3ED6F, offset: 0x561C3, size: 0x8, addend: 0x0, symName: __ZNKSt3__15dequeINS_4pairINS_12basic_stringIcNS_11char_traitsIcEENS_9allocatorIcEEEEiEENS5_IS8_EEE14__annotate_newB8ue170006Em, symObjAddr: 0xAD90, symBinAddr: 0x100010DB0, symSize: 0xB8 }
  - { offsetInCU: 0x3EDA4, offset: 0x561F8, size: 0x8, addend: 0x0, symName: __ZNKSt3__114__split_bufferIPNS_4pairINS_12basic_stringIcNS_11char_traitsIcEENS_9allocatorIcEEEEiEENS5_IS9_EEE5emptyB8ue170006Ev, symObjAddr: 0xAE48, symBinAddr: 0x100010E68, symSize: 0x28 }
  - { offsetInCU: 0x3EDCA, offset: 0x5621E, size: 0x8, addend: 0x0, symName: __ZNSt3__116__deque_iteratorINS_4pairINS_12basic_stringIcNS_11char_traitsIcEENS_9allocatorIcEEEEiEEPS8_RS8_PS9_lLl128EEC1B8ue170006ESB_S9_, symObjAddr: 0xAE70, symBinAddr: 0x100010E90, symSize: 0x3C }
  - { offsetInCU: 0x3EE12, offset: 0x56266, size: 0x8, addend: 0x0, symName: __ZNSt3__116__deque_iteratorINS_4pairINS_12basic_stringIcNS_11char_traitsIcEENS_9allocatorIcEEEEiEEPS8_RS8_PS9_lLl128EEC2B8ue170006ESB_S9_, symObjAddr: 0xAEAC, symBinAddr: 0x100010ECC, symSize: 0x2C }
  - { offsetInCU: 0x3EE5A, offset: 0x562AE, size: 0x8, addend: 0x0, symName: __ZNKSt3__15dequeINS_4pairINS_12basic_stringIcNS_11char_traitsIcEENS_9allocatorIcEEEEiEENS5_IS8_EEE4sizeB8ue170006Ev, symObjAddr: 0xAED8, symBinAddr: 0x100010EF8, symSize: 0x28 }
  - { offsetInCU: 0x3EE80, offset: 0x562D4, size: 0x8, addend: 0x0, symName: __ZNKSt3__15dequeINS_4pairINS_12basic_stringIcNS_11char_traitsIcEENS_9allocatorIcEEEEiEENS5_IS8_EEE6__sizeB8ue170006Ev, symObjAddr: 0xAF00, symBinAddr: 0x100010F20, symSize: 0x28 }
  - { offsetInCU: 0x3EEA6, offset: 0x562FA, size: 0x8, addend: 0x0, symName: __ZNKSt3__117__compressed_pairImNS_9allocatorINS_4pairINS_12basic_stringIcNS_11char_traitsIcEENS1_IcEEEEiEEEEE5firstB8ue170006Ev, symObjAddr: 0xAF28, symBinAddr: 0x100010F48, symSize: 0x24 }
  - { offsetInCU: 0x3EECC, offset: 0x56320, size: 0x8, addend: 0x0, symName: __ZNSt3__117__compressed_pairImNS_9allocatorINS_4pairINS_12basic_stringIcNS_11char_traitsIcEENS1_IcEEEEiEEEEE5firstB8ue170006Ev, symObjAddr: 0xAFC4, symBinAddr: 0x100010FE4, symSize: 0x24 }
  - { offsetInCU: 0x3EEF2, offset: 0x56346, size: 0x8, addend: 0x0, symName: __ZNSt3__114__split_bufferIPNS_4pairINS_12basic_stringIcNS_11char_traitsIcEENS_9allocatorIcEEEEiEENS5_IS9_EEE19__destruct_at_beginB8ue170006EPS9_, symObjAddr: 0xAFE8, symBinAddr: 0x100011008, symSize: 0x2C }
  - { offsetInCU: 0x3EF26, offset: 0x5637A, size: 0x8, addend: 0x0, symName: __ZNSt3__114__split_bufferIPNS_4pairINS_12basic_stringIcNS_11char_traitsIcEENS_9allocatorIcEEEEiEENS5_IS9_EEE19__destruct_at_beginEPS9_NS_17integral_constantIbLb1EEE, symObjAddr: 0xB014, symBinAddr: 0x100011034, symSize: 0x20 }
  - { offsetInCU: 0x3EF67, offset: 0x563BB, size: 0x8, addend: 0x0, symName: __ZNKSt3__15dequeINS_4pairINS_12basic_stringIcNS_11char_traitsIcEENS_9allocatorIcEEEEiEENS5_IS8_EEE18__annotate_from_toB8ue170006EmmNSA_22__asan_annotation_typeENSA_23__asan_annotation_placeE, symObjAddr: 0xB034, symBinAddr: 0x100011054, symSize: 0x580 }
  - { offsetInCU: 0x3F123, offset: 0x56577, size: 0x8, addend: 0x0, symName: __ZNKSt3__114__split_bufferIPNS_4pairINS_12basic_stringIcNS_11char_traitsIcEENS_9allocatorIcEEEEiEENS5_IS9_EEE5beginB8ue170006Ev, symObjAddr: 0xB5B4, symBinAddr: 0x1000115D4, symSize: 0x18 }
  - { offsetInCU: 0x3F149, offset: 0x5659D, size: 0x8, addend: 0x0, symName: __ZNKSt3__15dequeINS_4pairINS_12basic_stringIcNS_11char_traitsIcEENS_9allocatorIcEEEEiEENS5_IS8_EEE5emptyB8ue170006Ev, symObjAddr: 0xB5CC, symBinAddr: 0x1000115EC, symSize: 0x30 }
  - { offsetInCU: 0x3F16F, offset: 0x565C3, size: 0x8, addend: 0x0, symName: __ZNKSt3__15dequeINS_4pairINS_12basic_stringIcNS_11char_traitsIcEENS_9allocatorIcEEEEiEENS5_IS8_EEE44__annotate_double_ended_contiguous_containerB8ue170006EPKvSC_SC_SC_SC_SC_, symObjAddr: 0xB610, symBinAddr: 0x100011630, symSize: 0x28 }
  - { offsetInCU: 0x3F1DD, offset: 0x56631, size: 0x8, addend: 0x0, symName: __ZNKSt3__15dequeINS_4pairINS_12basic_stringIcNS_11char_traitsIcEENS_9allocatorIcEEEEiEENS5_IS8_EEE22__annotate_whole_blockB8ue170006EmNSA_22__asan_annotation_typeE, symObjAddr: 0xB638, symBinAddr: 0x100011658, symSize: 0xAC }
  - { offsetInCU: 0x3F24E, offset: 0x566A2, size: 0x8, addend: 0x0, symName: __ZNKSt3__15dequeINS_4pairINS_12basic_stringIcNS_11char_traitsIcEENS_9allocatorIcEEEEiEENS5_IS8_EEE23__annotate_poison_blockB8ue170006EPKvSC_, symObjAddr: 0xB6E4, symBinAddr: 0x100011704, symSize: 0x44 }
  - { offsetInCU: 0x3F292, offset: 0x566E6, size: 0x8, addend: 0x0, symName: __ZNSt3__19allocatorINS_4pairINS_12basic_stringIcNS_11char_traitsIcEENS0_IcEEEEiEEE10deallocateB8ue170006EPS7_m, symObjAddr: 0xB728, symBinAddr: 0x100011748, symSize: 0x40 }
  - { offsetInCU: 0x3F2D4, offset: 0x56728, size: 0x8, addend: 0x0, symName: __ZNSt3__117__compressed_pairImNS_9allocatorINS_4pairINS_12basic_stringIcNS_11char_traitsIcEENS1_IcEEEEiEEEEE6secondB8ue170006Ev, symObjAddr: 0xB768, symBinAddr: 0x100011788, symSize: 0x24 }
  - { offsetInCU: 0x3F2FA, offset: 0x5674E, size: 0x8, addend: 0x0, symName: __ZNSt3__122__compressed_pair_elemINS_9allocatorINS_4pairINS_12basic_stringIcNS_11char_traitsIcEENS1_IcEEEEiEEEELi1ELb1EE5__getB8ue170006Ev, symObjAddr: 0xB78C, symBinAddr: 0x1000117AC, symSize: 0x14 }
  - { offsetInCU: 0x3F320, offset: 0x56774, size: 0x8, addend: 0x0, symName: __ZNSt3__114__split_bufferIPNS_4pairINS_12basic_stringIcNS_11char_traitsIcEENS_9allocatorIcEEEEiEENS5_IS9_EEED2Ev, symObjAddr: 0xB7A0, symBinAddr: 0x1000117C0, symSize: 0x8C }
  - { offsetInCU: 0x3F34C, offset: 0x567A0, size: 0x8, addend: 0x0, symName: __ZNSt3__114__split_bufferIPNS_4pairINS_12basic_stringIcNS_11char_traitsIcEENS_9allocatorIcEEEEiEENS5_IS9_EEE5clearB8ue170006Ev, symObjAddr: 0xB82C, symBinAddr: 0x10001184C, symSize: 0x28 }
  - { offsetInCU: 0x3F372, offset: 0x567C6, size: 0x8, addend: 0x0, symName: __ZNSt3__116allocator_traitsINS_9allocatorIPNS_4pairINS_12basic_stringIcNS_11char_traitsIcEENS1_IcEEEEiEEEEE10deallocateB8ue170006ERSA_PS9_m, symObjAddr: 0xB854, symBinAddr: 0x100011874, symSize: 0x34 }
  - { offsetInCU: 0x3F3B4, offset: 0x56808, size: 0x8, addend: 0x0, symName: __ZNSt3__114__split_bufferIPNS_4pairINS_12basic_stringIcNS_11char_traitsIcEENS_9allocatorIcEEEEiEENS5_IS9_EEE7__allocB8ue170006Ev, symObjAddr: 0xB888, symBinAddr: 0x1000118A8, symSize: 0x28 }
  - { offsetInCU: 0x3F3DA, offset: 0x5682E, size: 0x8, addend: 0x0, symName: __ZNKSt3__114__split_bufferIPNS_4pairINS_12basic_stringIcNS_11char_traitsIcEENS_9allocatorIcEEEEiEENS5_IS9_EEE8capacityB8ue170006Ev, symObjAddr: 0xB8B0, symBinAddr: 0x1000118D0, symSize: 0x40 }
  - { offsetInCU: 0x3F400, offset: 0x56854, size: 0x8, addend: 0x0, symName: __ZNSt3__114__split_bufferIPNS_4pairINS_12basic_stringIcNS_11char_traitsIcEENS_9allocatorIcEEEEiEENS5_IS9_EEE17__destruct_at_endB8ue170006EPS9_, symObjAddr: 0xB8F0, symBinAddr: 0x100011910, symSize: 0x2C }
  - { offsetInCU: 0x3F434, offset: 0x56888, size: 0x8, addend: 0x0, symName: __ZNSt3__114__split_bufferIPNS_4pairINS_12basic_stringIcNS_11char_traitsIcEENS_9allocatorIcEEEEiEENS5_IS9_EEE17__destruct_at_endB8ue170006EPS9_NS_17integral_constantIbLb0EEE, symObjAddr: 0xB91C, symBinAddr: 0x10001193C, symSize: 0x80 }
  - { offsetInCU: 0x3F475, offset: 0x568C9, size: 0x8, addend: 0x0, symName: __ZNSt3__116allocator_traitsINS_9allocatorIPNS_4pairINS_12basic_stringIcNS_11char_traitsIcEENS1_IcEEEEiEEEEE7destroyB8ue170006IS9_vvEEvRSA_PT_, symObjAddr: 0xB99C, symBinAddr: 0x1000119BC, symSize: 0x28 }
  - { offsetInCU: 0x3F4B0, offset: 0x56904, size: 0x8, addend: 0x0, symName: __ZNSt3__19allocatorIPNS_4pairINS_12basic_stringIcNS_11char_traitsIcEENS0_IcEEEEiEEE10deallocateB8ue170006EPS8_m, symObjAddr: 0xBA0C, symBinAddr: 0x100011A2C, symSize: 0x40 }
  - { offsetInCU: 0x3F4F2, offset: 0x56946, size: 0x8, addend: 0x0, symName: __ZNSt3__117__compressed_pairIPPNS_4pairINS_12basic_stringIcNS_11char_traitsIcEENS_9allocatorIcEEEEiEENS5_IS9_EEE6secondB8ue170006Ev, symObjAddr: 0xBA4C, symBinAddr: 0x100011A6C, symSize: 0x24 }
  - { offsetInCU: 0x3F518, offset: 0x5696C, size: 0x8, addend: 0x0, symName: __ZNSt3__122__compressed_pair_elemINS_9allocatorIPNS_4pairINS_12basic_stringIcNS_11char_traitsIcEENS1_IcEEEEiEEEELi1ELb1EE5__getB8ue170006Ev, symObjAddr: 0xBA70, symBinAddr: 0x100011A90, symSize: 0x14 }
  - { offsetInCU: 0x3F53E, offset: 0x56992, size: 0x8, addend: 0x0, symName: __ZNKSt3__114__split_bufferIPNS_4pairINS_12basic_stringIcNS_11char_traitsIcEENS_9allocatorIcEEEEiEENS5_IS9_EEE9__end_capB8ue170006Ev, symObjAddr: 0xBA84, symBinAddr: 0x100011AA4, symSize: 0x28 }
  - { offsetInCU: 0x3F564, offset: 0x569B8, size: 0x8, addend: 0x0, symName: __ZNKSt3__117__compressed_pairIPPNS_4pairINS_12basic_stringIcNS_11char_traitsIcEENS_9allocatorIcEEEEiEENS5_IS9_EEE5firstB8ue170006Ev, symObjAddr: 0xBAAC, symBinAddr: 0x100011ACC, symSize: 0x24 }
  - { offsetInCU: 0x3F58A, offset: 0x569DE, size: 0x8, addend: 0x0, symName: __ZNKSt3__122__compressed_pair_elemIPPNS_4pairINS_12basic_stringIcNS_11char_traitsIcEENS_9allocatorIcEEEEiEELi0ELb0EE5__getB8ue170006Ev, symObjAddr: 0xBAD0, symBinAddr: 0x100011AF0, symSize: 0x14 }
  - { offsetInCU: 0x3F5B0, offset: 0x56A04, size: 0x8, addend: 0x0, symName: __ZNSt3__14listINS_4pairINS_12basic_stringIcNS_11char_traitsIcEENS_9allocatorIcEEEEiEENS5_IS8_EEED2Ev, symObjAddr: 0xBAE4, symBinAddr: 0x100011B04, symSize: 0x2C }
  - { offsetInCU: 0x3F5DD, offset: 0x56A31, size: 0x8, addend: 0x0, symName: __ZNSt3__110__list_impINS_4pairINS_12basic_stringIcNS_11char_traitsIcEENS_9allocatorIcEEEEiEENS5_IS8_EEED2Ev, symObjAddr: 0xBB10, symBinAddr: 0x100011B30, symSize: 0x2C }
  - { offsetInCU: 0x3F609, offset: 0x56A5D, size: 0x8, addend: 0x0, symName: __ZNSt3__110__list_impINS_4pairINS_12basic_stringIcNS_11char_traitsIcEENS_9allocatorIcEEEEiEENS5_IS8_EEE5clearEv, symObjAddr: 0xBB3C, symBinAddr: 0x100011B5C, symSize: 0xE0 }
  - { offsetInCU: 0x3F679, offset: 0x56ACD, size: 0x8, addend: 0x0, symName: __ZNKSt3__110__list_impINS_4pairINS_12basic_stringIcNS_11char_traitsIcEENS_9allocatorIcEEEEiEENS5_IS8_EEE5emptyB8ue170006Ev, symObjAddr: 0xBC1C, symBinAddr: 0x100011C3C, symSize: 0x34 }
  - { offsetInCU: 0x3F69F, offset: 0x56AF3, size: 0x8, addend: 0x0, symName: __ZNSt3__110__list_impINS_4pairINS_12basic_stringIcNS_11char_traitsIcEENS_9allocatorIcEEEEiEENS5_IS8_EEE12__node_allocB8ue170006Ev, symObjAddr: 0xBC50, symBinAddr: 0x100011C70, symSize: 0x28 }
  - { offsetInCU: 0x3F6C5, offset: 0x56B19, size: 0x8, addend: 0x0, symName: __ZNKSt3__110__list_impINS_4pairINS_12basic_stringIcNS_11char_traitsIcEENS_9allocatorIcEEEEiEENS5_IS8_EEE13__end_as_linkB8ue170006Ev, symObjAddr: 0xBC78, symBinAddr: 0x100011C98, symSize: 0x44 }
  - { offsetInCU: 0x3F6EB, offset: 0x56B3F, size: 0x8, addend: 0x0, symName: __ZNSt3__110__list_impINS_4pairINS_12basic_stringIcNS_11char_traitsIcEENS_9allocatorIcEEEEiEENS5_IS8_EEE14__unlink_nodesEPNS_16__list_node_baseIS8_PvEESE_, symObjAddr: 0xBCBC, symBinAddr: 0x100011CDC, symSize: 0x3C }
  - { offsetInCU: 0x3F720, offset: 0x56B74, size: 0x8, addend: 0x0, symName: __ZNSt3__110__list_impINS_4pairINS_12basic_stringIcNS_11char_traitsIcEENS_9allocatorIcEEEEiEENS5_IS8_EEE4__szB8ue170006Ev, symObjAddr: 0xBCF8, symBinAddr: 0x100011D18, symSize: 0x28 }
  - { offsetInCU: 0x3F746, offset: 0x56B9A, size: 0x8, addend: 0x0, symName: __ZNSt3__116__list_node_baseINS_4pairINS_12basic_stringIcNS_11char_traitsIcEENS_9allocatorIcEEEEiEEPvE9__as_nodeB8ue170006Ev, symObjAddr: 0xBD20, symBinAddr: 0x100011D40, symSize: 0x24 }
  - { offsetInCU: 0x3F76C, offset: 0x56BC0, size: 0x8, addend: 0x0, symName: __ZNSt3__116allocator_traitsINS_9allocatorINS_11__list_nodeINS_4pairINS_12basic_stringIcNS_11char_traitsIcEENS1_IcEEEEiEEPvEEEEE7destroyB8ue170006IS9_vvEEvRSC_PT_, symObjAddr: 0xBD44, symBinAddr: 0x100011D64, symSize: 0x28 }
  - { offsetInCU: 0x3F7A7, offset: 0x56BFB, size: 0x8, addend: 0x0, symName: __ZNSt3__116allocator_traitsINS_9allocatorINS_11__list_nodeINS_4pairINS_12basic_stringIcNS_11char_traitsIcEENS1_IcEEEEiEEPvEEEEE10deallocateB8ue170006ERSC_PSB_m, symObjAddr: 0xBD6C, symBinAddr: 0x100011D8C, symSize: 0x34 }
  - { offsetInCU: 0x3F7E9, offset: 0x56C3D, size: 0x8, addend: 0x0, symName: __ZNKSt3__110__list_impINS_4pairINS_12basic_stringIcNS_11char_traitsIcEENS_9allocatorIcEEEEiEENS5_IS8_EEE4__szB8ue170006Ev, symObjAddr: 0xBDA0, symBinAddr: 0x100011DC0, symSize: 0x28 }
  - { offsetInCU: 0x3F80F, offset: 0x56C63, size: 0x8, addend: 0x0, symName: __ZNKSt3__117__compressed_pairImNS_9allocatorINS_11__list_nodeINS_4pairINS_12basic_stringIcNS_11char_traitsIcEENS1_IcEEEEiEEPvEEEEE5firstB8ue170006Ev, symObjAddr: 0xBDC8, symBinAddr: 0x100011DE8, symSize: 0x24 }
  - { offsetInCU: 0x3F835, offset: 0x56C89, size: 0x8, addend: 0x0, symName: __ZNSt3__117__compressed_pairImNS_9allocatorINS_11__list_nodeINS_4pairINS_12basic_stringIcNS_11char_traitsIcEENS1_IcEEEEiEEPvEEEEE6secondB8ue170006Ev, symObjAddr: 0xBDEC, symBinAddr: 0x100011E0C, symSize: 0x24 }
  - { offsetInCU: 0x3F85B, offset: 0x56CAF, size: 0x8, addend: 0x0, symName: __ZNSt3__122__compressed_pair_elemINS_9allocatorINS_11__list_nodeINS_4pairINS_12basic_stringIcNS_11char_traitsIcEENS1_IcEEEEiEEPvEEEELi1ELb1EE5__getB8ue170006Ev, symObjAddr: 0xBE10, symBinAddr: 0x100011E30, symSize: 0x14 }
  - { offsetInCU: 0x3F881, offset: 0x56CD5, size: 0x8, addend: 0x0, symName: __ZNSt3__126__list_node_pointer_traitsINS_4pairINS_12basic_stringIcNS_11char_traitsIcEENS_9allocatorIcEEEEiEEPvE26__unsafe_link_pointer_castB8ue170006EPNS_16__list_node_baseIS8_S9_EE, symObjAddr: 0xBE24, symBinAddr: 0x100011E44, symSize: 0x14 }
  - { offsetInCU: 0x3F8A5, offset: 0x56CF9, size: 0x8, addend: 0x0, symName: __ZNSt3__116__list_node_baseINS_4pairINS_12basic_stringIcNS_11char_traitsIcEENS_9allocatorIcEEEEiEEPvE6__selfB8ue170006Ev, symObjAddr: 0xBE38, symBinAddr: 0x100011E58, symSize: 0x24 }
  - { offsetInCU: 0x3F8D0, offset: 0x56D24, size: 0x8, addend: 0x0, symName: __ZNSt3__114pointer_traitsIPNS_16__list_node_baseINS_4pairINS_12basic_stringIcNS_11char_traitsIcEENS_9allocatorIcEEEEiEEPvEEE10pointer_toB8ue170006ERSB_, symObjAddr: 0xBE5C, symBinAddr: 0x100011E7C, symSize: 0x14 }
  - { offsetInCU: 0x3F8F3, offset: 0x56D47, size: 0x8, addend: 0x0, symName: __ZNSt3__117__compressed_pairImNS_9allocatorINS_11__list_nodeINS_4pairINS_12basic_stringIcNS_11char_traitsIcEENS1_IcEEEEiEEPvEEEEE5firstB8ue170006Ev, symObjAddr: 0xBE70, symBinAddr: 0x100011E90, symSize: 0x24 }
  - { offsetInCU: 0x3F919, offset: 0x56D6D, size: 0x8, addend: 0x0, symName: __ZNSt3__19allocatorINS_11__list_nodeINS_4pairINS_12basic_stringIcNS_11char_traitsIcEENS0_IcEEEEiEEPvEEE10deallocateB8ue170006EPSA_m, symObjAddr: 0xBE94, symBinAddr: 0x100011EB4, symSize: 0x44 }
  - { offsetInCU: 0x3F95B, offset: 0x56DAF, size: 0x8, addend: 0x0, symName: __ZNSt3__16vectorINS_12basic_stringIcNS_11char_traitsIcEENS_9allocatorIcEEEENS4_IS6_EEEC2ERKS8_, symObjAddr: 0xBED8, symBinAddr: 0x100011EF8, symSize: 0x94 }
  - { offsetInCU: 0x3F996, offset: 0x56DEA, size: 0x8, addend: 0x0, symName: __ZNSt3__116allocator_traitsINS_9allocatorINS_12basic_stringIcNS_11char_traitsIcEENS1_IcEEEEEEE37select_on_container_copy_constructionB8ue170006IS7_vvEES7_RKS7_, symObjAddr: 0xBF6C, symBinAddr: 0x100011F8C, symSize: 0x10 }
  - { offsetInCU: 0x3F9CA, offset: 0x56E1E, size: 0x8, addend: 0x0, symName: __ZNSt3__117__compressed_pairIPNS_12basic_stringIcNS_11char_traitsIcEENS_9allocatorIcEEEENS4_IS6_EEEC1B8ue170006IDnS8_EEOT_OT0_, symObjAddr: 0xBF7C, symBinAddr: 0x100011F9C, symSize: 0x3C }
  - { offsetInCU: 0x3FA22, offset: 0x56E76, size: 0x8, addend: 0x0, symName: __ZNSt3__16vectorINS_12basic_stringIcNS_11char_traitsIcEENS_9allocatorIcEEEENS4_IS6_EEE16__init_with_sizeB8ue170006IPS6_SA_EEvT_T0_m, symObjAddr: 0xBFB8, symBinAddr: 0x100011FD8, symSize: 0xB8 }
  - { offsetInCU: 0x3FA96, offset: 0x56EEA, size: 0x8, addend: 0x0, symName: __ZNSt3__117__compressed_pairIPNS_12basic_stringIcNS_11char_traitsIcEENS_9allocatorIcEEEENS4_IS6_EEEC2B8ue170006IDnS8_EEOT_OT0_, symObjAddr: 0xC070, symBinAddr: 0x100012090, symSize: 0x44 }
  - { offsetInCU: 0x3FAEE, offset: 0x56F42, size: 0x8, addend: 0x0, symName: __ZNSt3__122__compressed_pair_elemINS_9allocatorINS_12basic_stringIcNS_11char_traitsIcEENS1_IcEEEEEELi1ELb1EEC2B8ue170006IS7_vEEOT_, symObjAddr: 0xC0B4, symBinAddr: 0x1000120D4, symSize: 0x18 }
  - { offsetInCU: 0x3FB30, offset: 0x56F84, size: 0x8, addend: 0x0, symName: __ZNSt3__16vectorINS_12basic_stringIcNS_11char_traitsIcEENS_9allocatorIcEEEENS4_IS6_EEE11__vallocateB8ue170006Em, symObjAddr: 0xC10C, symBinAddr: 0x10001212C, symSize: 0xB4 }
  - { offsetInCU: 0x3FB74, offset: 0x56FC8, size: 0x8, addend: 0x0, symName: __ZNSt3__16vectorINS_12basic_stringIcNS_11char_traitsIcEENS_9allocatorIcEEEENS4_IS6_EEE18__construct_at_endIPS6_SA_EEvT_T0_m, symObjAddr: 0xC1C0, symBinAddr: 0x1000121E0, symSize: 0x8C }
  - { offsetInCU: 0x3FBEA, offset: 0x5703E, size: 0x8, addend: 0x0, symName: __ZNSt3__128__exception_guard_exceptionsINS_6vectorINS_12basic_stringIcNS_11char_traitsIcEENS_9allocatorIcEEEENS5_IS7_EEE16__destroy_vectorEE10__completeB8ue170006Ev, symObjAddr: 0xC24C, symBinAddr: 0x10001226C, symSize: 0x1C }
  - { offsetInCU: 0x3FC10, offset: 0x57064, size: 0x8, addend: 0x0, symName: __ZNSt3__128__exception_guard_exceptionsINS_6vectorINS_12basic_stringIcNS_11char_traitsIcEENS_9allocatorIcEEEENS5_IS7_EEE16__destroy_vectorEED1B8ue170006Ev, symObjAddr: 0xC268, symBinAddr: 0x100012288, symSize: 0x2C }
  - { offsetInCU: 0x3FC3A, offset: 0x5708E, size: 0x8, addend: 0x0, symName: __ZNSt3__128__exception_guard_exceptionsINS_6vectorINS_12basic_stringIcNS_11char_traitsIcEENS_9allocatorIcEEEENS5_IS7_EEE16__destroy_vectorEEC1B8ue170006ESA_, symObjAddr: 0xC294, symBinAddr: 0x1000122B4, symSize: 0x34 }
  - { offsetInCU: 0x3FC72, offset: 0x570C6, size: 0x8, addend: 0x0, symName: __ZNSt3__128__exception_guard_exceptionsINS_6vectorINS_12basic_stringIcNS_11char_traitsIcEENS_9allocatorIcEEEENS5_IS7_EEE16__destroy_vectorEEC2B8ue170006ESA_, symObjAddr: 0xC2C8, symBinAddr: 0x1000122E8, symSize: 0x24 }
  - { offsetInCU: 0x3FCC3, offset: 0x57117, size: 0x8, addend: 0x0, symName: __ZNSt3__119__unwrap_range_implIPNS_12basic_stringIcNS_11char_traitsIcEENS_9allocatorIcEEEES7_E8__unwrapB8ue170006ES7_S7_, symObjAddr: 0xC4FC, symBinAddr: 0x10001251C, symSize: 0x58 }
  - { offsetInCU: 0x3FCF9, offset: 0x5714D, size: 0x8, addend: 0x0, symName: __ZNSt3__14pairIPNS_12basic_stringIcNS_11char_traitsIcEENS_9allocatorIcEEEES7_EC1B8ue170006IS7_S7_LPv0EEEOT_OT0_, symObjAddr: 0xC554, symBinAddr: 0x100012574, symSize: 0x3C }
  - { offsetInCU: 0x3FD58, offset: 0x571AC, size: 0x8, addend: 0x0, symName: __ZNSt3__14pairIPNS_12basic_stringIcNS_11char_traitsIcEENS_9allocatorIcEEEES7_EC2B8ue170006IS7_S7_LPv0EEEOT_OT0_, symObjAddr: 0xC590, symBinAddr: 0x1000125B0, symSize: 0x34 }
  - { offsetInCU: 0x3FDB7, offset: 0x5720B, size: 0x8, addend: 0x0, symName: __ZNSt3__129_AllocatorDestroyRangeReverseINS_9allocatorINS_12basic_stringIcNS_11char_traitsIcEENS1_IcEEEEEEPS6_EC1B8ue170006ERS7_RS8_SB_, symObjAddr: 0xC610, symBinAddr: 0x100012630, symSize: 0x44 }
  - { offsetInCU: 0x3FE0E, offset: 0x57262, size: 0x8, addend: 0x0, symName: __ZNSt3__116allocator_traitsINS_9allocatorINS_12basic_stringIcNS_11char_traitsIcEENS1_IcEEEEEEE9constructB8ue170006IS6_JRS6_EvvEEvRS7_PT_DpOT0_, symObjAddr: 0xC654, symBinAddr: 0x100012674, symSize: 0x30 }
  - { offsetInCU: 0x3FE63, offset: 0x572B7, size: 0x8, addend: 0x0, symName: __ZNSt3__128__exception_guard_exceptionsINS_29_AllocatorDestroyRangeReverseINS_9allocatorINS_12basic_stringIcNS_11char_traitsIcEENS2_IcEEEEEEPS7_EEE10__completeB8ue170006Ev, symObjAddr: 0xC684, symBinAddr: 0x1000126A4, symSize: 0x1C }
  - { offsetInCU: 0x3FE89, offset: 0x572DD, size: 0x8, addend: 0x0, symName: __ZNSt3__128__exception_guard_exceptionsINS_29_AllocatorDestroyRangeReverseINS_9allocatorINS_12basic_stringIcNS_11char_traitsIcEENS2_IcEEEEEEPS7_EEED1B8ue170006Ev, symObjAddr: 0xC6A0, symBinAddr: 0x1000126C0, symSize: 0x2C }
  - { offsetInCU: 0x3FEB3, offset: 0x57307, size: 0x8, addend: 0x0, symName: __ZNSt3__128__exception_guard_exceptionsINS_29_AllocatorDestroyRangeReverseINS_9allocatorINS_12basic_stringIcNS_11char_traitsIcEENS2_IcEEEEEEPS7_EEEC1B8ue170006ESA_, symObjAddr: 0xC6CC, symBinAddr: 0x1000126EC, symSize: 0x34 }
  - { offsetInCU: 0x3FEEC, offset: 0x57340, size: 0x8, addend: 0x0, symName: __ZNSt3__128__exception_guard_exceptionsINS_29_AllocatorDestroyRangeReverseINS_9allocatorINS_12basic_stringIcNS_11char_traitsIcEENS2_IcEEEEEEPS7_EEEC2B8ue170006ESA_, symObjAddr: 0xC700, symBinAddr: 0x100012720, symSize: 0x30 }
  - { offsetInCU: 0x3FF25, offset: 0x57379, size: 0x8, addend: 0x0, symName: __ZNSt3__129_AllocatorDestroyRangeReverseINS_9allocatorINS_12basic_stringIcNS_11char_traitsIcEENS1_IcEEEEEEPS6_EC2B8ue170006ERS7_RS8_SB_, symObjAddr: 0xC730, symBinAddr: 0x100012750, symSize: 0x38 }
  - { offsetInCU: 0x3FF7C, offset: 0x573D0, size: 0x8, addend: 0x0, symName: __ZNSt3__128__exception_guard_exceptionsINS_29_AllocatorDestroyRangeReverseINS_9allocatorINS_12basic_stringIcNS_11char_traitsIcEENS2_IcEEEEEEPS7_EEED2B8ue170006Ev, symObjAddr: 0xC7A4, symBinAddr: 0x1000127C4, symSize: 0x50 }
  - { offsetInCU: 0x3FFA6, offset: 0x573FA, size: 0x8, addend: 0x0, symName: __ZNKSt3__129_AllocatorDestroyRangeReverseINS_9allocatorINS_12basic_stringIcNS_11char_traitsIcEENS1_IcEEEEEEPS6_EclB8ue170006Ev, symObjAddr: 0xC7F4, symBinAddr: 0x100012814, symSize: 0x68 }
  - { offsetInCU: 0x3FFCC, offset: 0x57420, size: 0x8, addend: 0x0, symName: __ZNSt3__118__unwrap_iter_implIPNS_12basic_stringIcNS_11char_traitsIcEENS_9allocatorIcEEEELb1EE8__unwrapB8ue170006ES7_, symObjAddr: 0xC8CC, symBinAddr: 0x1000128EC, symSize: 0x24 }
  - { offsetInCU: 0x3FFEF, offset: 0x57443, size: 0x8, addend: 0x0, symName: __ZNSt3__118__unwrap_iter_implIPNS_12basic_stringIcNS_11char_traitsIcEENS_9allocatorIcEEEELb1EE8__rewrapB8ue170006ES7_S7_, symObjAddr: 0xC8F0, symBinAddr: 0x100012910, symSize: 0x58 }
  - { offsetInCU: 0x40020, offset: 0x57474, size: 0x8, addend: 0x0, symName: __ZNSt3__128__exception_guard_exceptionsINS_6vectorINS_12basic_stringIcNS_11char_traitsIcEENS_9allocatorIcEEEENS5_IS7_EEE16__destroy_vectorEED2B8ue170006Ev, symObjAddr: 0xC948, symBinAddr: 0x100012968, symSize: 0x48 }
  - { offsetInCU: 0x4004A, offset: 0x5749E, size: 0x8, addend: 0x0, symName: __ZNKSt3__16vectorINS_12basic_stringIcNS_11char_traitsIcEENS_9allocatorIcEEEENS4_IS6_EEE20__throw_out_of_rangeB8ue170006Ev, symObjAddr: 0xC990, symBinAddr: 0x1000129B0, symSize: 0x1C }
  - { offsetInCU: 0x40070, offset: 0x574C4, size: 0x8, addend: 0x0, symName: __ZNSt12out_of_rangeC1B8ue170006EPKc, symObjAddr: 0xCA10, symBinAddr: 0x100012A30, symSize: 0x34 }
  - { offsetInCU: 0x400A8, offset: 0x574FC, size: 0x8, addend: 0x0, symName: __ZNSt12out_of_rangeC2B8ue170006EPKc, symObjAddr: 0xCA44, symBinAddr: 0x100012A64, symSize: 0x4C }
  - { offsetInCU: 0x400E0, offset: 0x57534, size: 0x8, addend: 0x0, symName: __ZNSt3__14pairIKNS_12basic_stringIcNS_11char_traitsIcEENS_9allocatorIcEEEES6_EC2B8ue170006IRS6_RA9_KcLPv0EEEOT_OT0_, symObjAddr: 0xCA90, symBinAddr: 0x100012AB0, symSize: 0x70 }
  - { offsetInCU: 0x40144, offset: 0x57598, size: 0x8, addend: 0x0, symName: __ZNKSt3__112basic_stringIcNS_11char_traitsIcEENS_9allocatorIcEEEcvNS_17basic_string_viewIcS2_EEB8ue170006Ev, symObjAddr: 0xCC94, symBinAddr: 0x100012BD0, symSize: 0x50 }
  - { offsetInCU: 0x4016A, offset: 0x575BE, size: 0x8, addend: 0x0, symName: __ZNSt3__117basic_string_viewIcNS_11char_traitsIcEEEC1B8ue170006EPKc, symObjAddr: 0xCCE4, symBinAddr: 0x100012C20, symSize: 0x34 }
  - { offsetInCU: 0x401A3, offset: 0x575F7, size: 0x8, addend: 0x0, symName: __ZNKSt3__117basic_string_viewIcNS_11char_traitsIcEEE4sizeB8ue170006Ev, symObjAddr: 0xCD18, symBinAddr: 0x100012C54, symSize: 0x18 }
  - { offsetInCU: 0x401C9, offset: 0x5761D, size: 0x8, addend: 0x0, symName: __ZNKSt3__117basic_string_viewIcNS_11char_traitsIcEEE7compareES3_, symObjAddr: 0xCD30, symBinAddr: 0x100012C6C, symSize: 0x13C }
  - { offsetInCU: 0x4021C, offset: 0x57670, size: 0x8, addend: 0x0, symName: __ZNKSt3__117basic_string_viewIcNS_11char_traitsIcEEE4dataB8ue170006Ev, symObjAddr: 0xCE6C, symBinAddr: 0x100012DA8, symSize: 0x18 }
  - { offsetInCU: 0x40242, offset: 0x57696, size: 0x8, addend: 0x0, symName: __ZNSt3__117basic_string_viewIcNS_11char_traitsIcEEEC1B8ue170006EPKcm, symObjAddr: 0xCE84, symBinAddr: 0x100012DC0, symSize: 0x3C }
  - { offsetInCU: 0x4028A, offset: 0x576DE, size: 0x8, addend: 0x0, symName: __ZNSt3__117basic_string_viewIcNS_11char_traitsIcEEEC2B8ue170006EPKcm, symObjAddr: 0xCEC0, symBinAddr: 0x100012DFC, symSize: 0x2C }
  - { offsetInCU: 0x402D2, offset: 0x57726, size: 0x8, addend: 0x0, symName: __ZNSt3__117basic_string_viewIcNS_11char_traitsIcEEEC2B8ue170006EPKc, symObjAddr: 0xCEEC, symBinAddr: 0x100012E28, symSize: 0x44 }
  - { offsetInCU: 0x4030B, offset: 0x5775F, size: 0x8, addend: 0x0, symName: __ZNKSt3__16vectorINS_12basic_stringIcNS_11char_traitsIcEENS_9allocatorIcEEEENS4_IS6_EEE11__make_iterB8ue170006EPKS6_, symObjAddr: 0xCF54, symBinAddr: 0x100012E90, symSize: 0x30 }
  - { offsetInCU: 0x40340, offset: 0x57794, size: 0x8, addend: 0x0, symName: __ZNSt3__111__wrap_iterIPKNS_12basic_stringIcNS_11char_traitsIcEENS_9allocatorIcEEEEEC1B8ue170006ES8_, symObjAddr: 0xCF84, symBinAddr: 0x100012EC0, symSize: 0x34 }
  - { offsetInCU: 0x40378, offset: 0x577CC, size: 0x8, addend: 0x0, symName: __ZNSt3__111__wrap_iterIPKNS_12basic_stringIcNS_11char_traitsIcEENS_9allocatorIcEEEEEC2B8ue170006ES8_, symObjAddr: 0xCFB8, symBinAddr: 0x100012EF4, symSize: 0x20 }
  - { offsetInCU: 0x403B0, offset: 0x57804, size: 0x8, addend: 0x0, symName: __ZNKSt3__111__wrap_iterIPKNS_12basic_stringIcNS_11char_traitsIcEENS_9allocatorIcEEEEE4baseB8ue170006Ev, symObjAddr: 0xD020, symBinAddr: 0x100012F5C, symSize: 0x18 }
  - { offsetInCU: 0x403D6, offset: 0x5782A, size: 0x8, addend: 0x0, symName: __ZNKSt3__16__treeINS_12__value_typeIiNS_3setINS_4pairIiNS_12basic_stringIcNS_11char_traitsIcEENS_9allocatorIcEEEEEENS_4lessISA_EENS7_ISA_EEEEEENS_19__map_value_compareIiSF_NSB_IiEELb1EEENS7_ISF_EEE5beginB8ue170006Ev, symObjAddr: 0xD038, symBinAddr: 0x100012F74, symSize: 0x34 }
  - { offsetInCU: 0x403FC, offset: 0x57850, size: 0x8, addend: 0x0, symName: __ZNSt3__120__map_const_iteratorINS_21__tree_const_iteratorINS_12__value_typeIiNS_3setINS_4pairIiNS_12basic_stringIcNS_11char_traitsIcEENS_9allocatorIcEEEEEENS_4lessISB_EENS8_ISB_EEEEEEPNS_11__tree_nodeISG_PvEElEEEC1B8ue170006ESL_, symObjAddr: 0xD06C, symBinAddr: 0x100012FA8, symSize: 0x34 }
  - { offsetInCU: 0x40435, offset: 0x57889, size: 0x8, addend: 0x0, symName: __ZNKSt3__16__treeINS_12__value_typeIiNS_3setINS_4pairIiNS_12basic_stringIcNS_11char_traitsIcEENS_9allocatorIcEEEEEENS_4lessISA_EENS7_ISA_EEEEEENS_19__map_value_compareIiSF_NSB_IiEELb1EEENS7_ISF_EEE12__begin_nodeB8ue170006Ev, symObjAddr: 0xD0A0, symBinAddr: 0x100012FDC, symSize: 0x14 }
  - { offsetInCU: 0x4045B, offset: 0x578AF, size: 0x8, addend: 0x0, symName: __ZNSt3__121__tree_const_iteratorINS_12__value_typeIiNS_3setINS_4pairIiNS_12basic_stringIcNS_11char_traitsIcEENS_9allocatorIcEEEEEENS_4lessISA_EENS7_ISA_EEEEEEPNS_11__tree_nodeISF_PvEElEC1B8ue170006EPNS_15__tree_end_nodeIPNS_16__tree_node_baseISH_EEEE, symObjAddr: 0xD0B4, symBinAddr: 0x100012FF0, symSize: 0x34 }
  - { offsetInCU: 0x40494, offset: 0x578E8, size: 0x8, addend: 0x0, symName: __ZNSt3__121__tree_const_iteratorINS_12__value_typeIiNS_3setINS_4pairIiNS_12basic_stringIcNS_11char_traitsIcEENS_9allocatorIcEEEEEENS_4lessISA_EENS7_ISA_EEEEEEPNS_11__tree_nodeISF_PvEElEC2B8ue170006EPNS_15__tree_end_nodeIPNS_16__tree_node_baseISH_EEEE, symObjAddr: 0xD0E8, symBinAddr: 0x100013024, symSize: 0x20 }
  - { offsetInCU: 0x404CD, offset: 0x57921, size: 0x8, addend: 0x0, symName: __ZNSt3__120__map_const_iteratorINS_21__tree_const_iteratorINS_12__value_typeIiNS_3setINS_4pairIiNS_12basic_stringIcNS_11char_traitsIcEENS_9allocatorIcEEEEEENS_4lessISB_EENS8_ISB_EEEEEEPNS_11__tree_nodeISG_PvEElEEEC2B8ue170006ESL_, symObjAddr: 0xD108, symBinAddr: 0x100013044, symSize: 0x20 }
  - { offsetInCU: 0x40506, offset: 0x5795A, size: 0x8, addend: 0x0, symName: __ZNKSt3__16__treeINS_12__value_typeIiNS_3setINS_4pairIiNS_12basic_stringIcNS_11char_traitsIcEENS_9allocatorIcEEEEEENS_4lessISA_EENS7_ISA_EEEEEENS_19__map_value_compareIiSF_NSB_IiEELb1EEENS7_ISF_EEE3endB8ue170006Ev, symObjAddr: 0xD128, symBinAddr: 0x100013064, symSize: 0x34 }
  - { offsetInCU: 0x4052C, offset: 0x57980, size: 0x8, addend: 0x0, symName: __ZNKSt3__16__treeINS_12__value_typeIiNS_3setINS_4pairIiNS_12basic_stringIcNS_11char_traitsIcEENS_9allocatorIcEEEEEENS_4lessISA_EENS7_ISA_EEEEEENS_19__map_value_compareIiSF_NSB_IiEELb1EEENS7_ISF_EEE10__end_nodeB8ue170006Ev, symObjAddr: 0xD15C, symBinAddr: 0x100013098, symSize: 0x2C }
  - { offsetInCU: 0x40552, offset: 0x579A6, size: 0x8, addend: 0x0, symName: __ZNKSt3__117__compressed_pairINS_15__tree_end_nodeIPNS_16__tree_node_baseIPvEEEENS_9allocatorINS_11__tree_nodeINS_12__value_typeIiNS_3setINS_4pairIiNS_12basic_stringIcNS_11char_traitsIcEENS7_IcEEEEEENS_4lessISH_EENS7_ISH_EEEEEES3_EEEEE5firstB8ue170006Ev, symObjAddr: 0xD188, symBinAddr: 0x1000130C4, symSize: 0x24 }
  - { offsetInCU: 0x40578, offset: 0x579CC, size: 0x8, addend: 0x0, symName: __ZNSt3__121__tree_const_iteratorINS_12__value_typeIiNS_3setINS_4pairIiNS_12basic_stringIcNS_11char_traitsIcEENS_9allocatorIcEEEEEENS_4lessISA_EENS7_ISA_EEEEEEPNS_11__tree_nodeISF_PvEElEppB8ue170006Ev, symObjAddr: 0xD224, symBinAddr: 0x10001314C, symSize: 0x38 }
  - { offsetInCU: 0x4059E, offset: 0x579F2, size: 0x8, addend: 0x0, symName: __ZNKSt3__116__tree_node_baseIPvE15__parent_unsafeB8ue170006Ev, symObjAddr: 0xD358, symBinAddr: 0x100013280, symSize: 0x18 }
  - { offsetInCU: 0x405C4, offset: 0x57A18, size: 0x8, addend: 0x0, symName: __ZNKSt3__121__tree_const_iteratorINS_12__value_typeIiNS_3setINS_4pairIiNS_12basic_stringIcNS_11char_traitsIcEENS_9allocatorIcEEEEEENS_4lessISA_EENS7_ISA_EEEEEEPNS_11__tree_nodeISF_PvEElEptB8ue170006Ev, symObjAddr: 0xD370, symBinAddr: 0x100013298, symSize: 0x2C }
  - { offsetInCU: 0x405EA, offset: 0x57A3E, size: 0x8, addend: 0x0, symName: __ZNKSt3__112__value_typeIiNS_3setINS_4pairIiNS_12basic_stringIcNS_11char_traitsIcEENS_9allocatorIcEEEEEENS_4lessIS9_EENS6_IS9_EEEEE11__get_valueB8ue170006Ev, symObjAddr: 0xD39C, symBinAddr: 0x1000132C4, symSize: 0x24 }
  - { offsetInCU: 0x40610, offset: 0x57A64, size: 0x8, addend: 0x0, symName: __ZNSt3__114pointer_traitsIPKNS_12__value_typeIiNS_3setINS_4pairIiNS_12basic_stringIcNS_11char_traitsIcEENS_9allocatorIcEEEEEENS_4lessISA_EENS7_ISA_EEEEEEE10pointer_toB8ue170006ERSG_, symObjAddr: 0xD3C0, symBinAddr: 0x1000132E8, symSize: 0x14 }
  - { offsetInCU: 0x40633, offset: 0x57A87, size: 0x8, addend: 0x0, symName: __ZNKSt3__121__tree_const_iteratorINS_12__value_typeIiNS_3setINS_4pairIiNS_12basic_stringIcNS_11char_traitsIcEENS_9allocatorIcEEEEEENS_4lessISA_EENS7_ISA_EEEEEEPNS_11__tree_nodeISF_PvEElE8__get_npB8ue170006Ev, symObjAddr: 0xD3D4, symBinAddr: 0x1000132FC, symSize: 0x18 }
  - { offsetInCU: 0x40659, offset: 0x57AAD, size: 0x8, addend: 0x0, symName: __ZNKSt3__16__treeINS_4pairIiNS_12basic_stringIcNS_11char_traitsIcEENS_9allocatorIcEEEEEENS_4lessIS8_EENS5_IS8_EEE5beginB8ue170006Ev, symObjAddr: 0xD424, symBinAddr: 0x10001334C, symSize: 0x34 }
  - { offsetInCU: 0x4067F, offset: 0x57AD3, size: 0x8, addend: 0x0, symName: __ZNKSt3__16__treeINS_4pairIiNS_12basic_stringIcNS_11char_traitsIcEENS_9allocatorIcEEEEEENS_4lessIS8_EENS5_IS8_EEE12__begin_nodeB8ue170006Ev, symObjAddr: 0xD458, symBinAddr: 0x100013380, symSize: 0x14 }
  - { offsetInCU: 0x406A5, offset: 0x57AF9, size: 0x8, addend: 0x0, symName: __ZNSt3__121__tree_const_iteratorINS_4pairIiNS_12basic_stringIcNS_11char_traitsIcEENS_9allocatorIcEEEEEEPNS_11__tree_nodeIS8_PvEElEC1B8ue170006EPNS_15__tree_end_nodeIPNS_16__tree_node_baseISA_EEEE, symObjAddr: 0xD46C, symBinAddr: 0x100013394, symSize: 0x34 }
  - { offsetInCU: 0x406DE, offset: 0x57B32, size: 0x8, addend: 0x0, symName: __ZNSt3__121__tree_const_iteratorINS_4pairIiNS_12basic_stringIcNS_11char_traitsIcEENS_9allocatorIcEEEEEEPNS_11__tree_nodeIS8_PvEElEC2B8ue170006EPNS_15__tree_end_nodeIPNS_16__tree_node_baseISA_EEEE, symObjAddr: 0xD4A0, symBinAddr: 0x1000133C8, symSize: 0x20 }
  - { offsetInCU: 0x40717, offset: 0x57B6B, size: 0x8, addend: 0x0, symName: __ZNKSt3__16__treeINS_4pairIiNS_12basic_stringIcNS_11char_traitsIcEENS_9allocatorIcEEEEEENS_4lessIS8_EENS5_IS8_EEE3endB8ue170006Ev, symObjAddr: 0xD4C0, symBinAddr: 0x1000133E8, symSize: 0x34 }
  - { offsetInCU: 0x4073D, offset: 0x57B91, size: 0x8, addend: 0x0, symName: __ZNKSt3__16__treeINS_4pairIiNS_12basic_stringIcNS_11char_traitsIcEENS_9allocatorIcEEEEEENS_4lessIS8_EENS5_IS8_EEE10__end_nodeB8ue170006Ev, symObjAddr: 0xD4F4, symBinAddr: 0x10001341C, symSize: 0x2C }
  - { offsetInCU: 0x40763, offset: 0x57BB7, size: 0x8, addend: 0x0, symName: __ZNKSt3__117__compressed_pairINS_15__tree_end_nodeIPNS_16__tree_node_baseIPvEEEENS_9allocatorINS_11__tree_nodeINS_4pairIiNS_12basic_stringIcNS_11char_traitsIcEENS7_IcEEEEEES3_EEEEE5firstB8ue170006Ev, symObjAddr: 0xD520, symBinAddr: 0x100013448, symSize: 0x24 }
  - { offsetInCU: 0x40789, offset: 0x57BDD, size: 0x8, addend: 0x0, symName: __ZNKSt3__121__tree_const_iteratorINS_4pairIiNS_12basic_stringIcNS_11char_traitsIcEENS_9allocatorIcEEEEEEPNS_11__tree_nodeIS8_PvEElE8__get_npB8ue170006Ev, symObjAddr: 0xD574, symBinAddr: 0x10001349C, symSize: 0x18 }
  - { offsetInCU: 0x407AF, offset: 0x57C03, size: 0x8, addend: 0x0, symName: __ZNSt3__13mapINS_12basic_stringIcNS_11char_traitsIcEENS_9allocatorIcEEEENS_6vectorIiNS4_IiEEEENS_4lessIS6_EENS4_INS_4pairIKS6_S9_EEEEEC2B8ue170006Ev, symObjAddr: 0xD58C, symBinAddr: 0x1000134B4, symSize: 0x40 }
  - { offsetInCU: 0x407D9, offset: 0x57C2D, size: 0x8, addend: 0x0, symName: __ZNSt3__119__map_value_compareINS_12basic_stringIcNS_11char_traitsIcEENS_9allocatorIcEEEENS_12__value_typeIS6_NS_6vectorIiNS4_IiEEEEEENS_4lessIS6_EELb1EEC1B8ue170006ESD_, symObjAddr: 0xD5CC, symBinAddr: 0x1000134F4, symSize: 0x2C }
  - { offsetInCU: 0x40812, offset: 0x57C66, size: 0x8, addend: 0x0, symName: __ZNSt3__16__treeINS_12__value_typeINS_12basic_stringIcNS_11char_traitsIcEENS_9allocatorIcEEEENS_6vectorIiNS5_IiEEEEEENS_19__map_value_compareIS7_SB_NS_4lessIS7_EELb1EEENS5_ISB_EEEC1ERKSF_, symObjAddr: 0xD5F8, symBinAddr: 0x100013520, symSize: 0x34 }
  - { offsetInCU: 0x4084D, offset: 0x57CA1, size: 0x8, addend: 0x0, symName: __ZNSt3__119__map_value_compareINS_12basic_stringIcNS_11char_traitsIcEENS_9allocatorIcEEEENS_12__value_typeIS6_NS_6vectorIiNS4_IiEEEEEENS_4lessIS6_EELb1EEC2B8ue170006ESD_, symObjAddr: 0xD62C, symBinAddr: 0x100013554, symSize: 0x14 }
  - { offsetInCU: 0x40886, offset: 0x57CDA, size: 0x8, addend: 0x0, symName: __ZNSt3__16__treeINS_12__value_typeINS_12basic_stringIcNS_11char_traitsIcEENS_9allocatorIcEEEENS_6vectorIiNS5_IiEEEEEENS_19__map_value_compareIS7_SB_NS_4lessIS7_EELb1EEENS5_ISB_EEEC2ERKSF_, symObjAddr: 0xD640, symBinAddr: 0x100013568, symSize: 0x7C }
  - { offsetInCU: 0x408C1, offset: 0x57D15, size: 0x8, addend: 0x0, symName: __ZNSt3__117__compressed_pairINS_15__tree_end_nodeIPNS_16__tree_node_baseIPvEEEENS_9allocatorINS_11__tree_nodeINS_12__value_typeINS_12basic_stringIcNS_11char_traitsIcEENS7_IcEEEENS_6vectorIiNS7_IiEEEEEES3_EEEEEC1B8ue170006ILb1EvEEv, symObjAddr: 0xD6BC, symBinAddr: 0x1000135E4, symSize: 0x2C }
  - { offsetInCU: 0x408F6, offset: 0x57D4A, size: 0x8, addend: 0x0, symName: __ZNSt3__117__compressed_pairImNS_19__map_value_compareINS_12basic_stringIcNS_11char_traitsIcEENS_9allocatorIcEEEENS_12__value_typeIS7_NS_6vectorIiNS5_IiEEEEEENS_4lessIS7_EELb1EEEEC1B8ue170006IiRKSF_EEOT_OT0_, symObjAddr: 0xD6E8, symBinAddr: 0x100013610, symSize: 0x3C }
  - { offsetInCU: 0x4094E, offset: 0x57DA2, size: 0x8, addend: 0x0, symName: __ZNSt3__16__treeINS_12__value_typeINS_12basic_stringIcNS_11char_traitsIcEENS_9allocatorIcEEEENS_6vectorIiNS5_IiEEEEEENS_19__map_value_compareIS7_SB_NS_4lessIS7_EELb1EEENS5_ISB_EEE10__end_nodeB8ue170006Ev, symObjAddr: 0xD724, symBinAddr: 0x10001364C, symSize: 0x2C }
  - { offsetInCU: 0x40974, offset: 0x57DC8, size: 0x8, addend: 0x0, symName: __ZNSt3__16__treeINS_12__value_typeINS_12basic_stringIcNS_11char_traitsIcEENS_9allocatorIcEEEENS_6vectorIiNS5_IiEEEEEENS_19__map_value_compareIS7_SB_NS_4lessIS7_EELb1EEENS5_ISB_EEE12__begin_nodeB8ue170006Ev, symObjAddr: 0xD750, symBinAddr: 0x100013678, symSize: 0x14 }
  - { offsetInCU: 0x4099A, offset: 0x57DEE, size: 0x8, addend: 0x0, symName: __ZNSt3__117__compressed_pairINS_15__tree_end_nodeIPNS_16__tree_node_baseIPvEEEENS_9allocatorINS_11__tree_nodeINS_12__value_typeINS_12basic_stringIcNS_11char_traitsIcEENS7_IcEEEENS_6vectorIiNS7_IiEEEEEES3_EEEEEC2B8ue170006ILb1EvEEv, symObjAddr: 0xD764, symBinAddr: 0x10001368C, symSize: 0x34 }
  - { offsetInCU: 0x409CF, offset: 0x57E23, size: 0x8, addend: 0x0, symName: __ZNSt3__122__compressed_pair_elemINS_15__tree_end_nodeIPNS_16__tree_node_baseIPvEEEELi0ELb0EEC2B8ue170006ENS_16__value_init_tagE, symObjAddr: 0xD798, symBinAddr: 0x1000136C0, symSize: 0x2C }
  - { offsetInCU: 0x40A04, offset: 0x57E58, size: 0x8, addend: 0x0, symName: __ZNSt3__122__compressed_pair_elemINS_9allocatorINS_11__tree_nodeINS_12__value_typeINS_12basic_stringIcNS_11char_traitsIcEENS1_IcEEEENS_6vectorIiNS1_IiEEEEEEPvEEEELi1ELb1EEC2B8ue170006ENS_16__value_init_tagE, symObjAddr: 0xD7C4, symBinAddr: 0x1000136EC, symSize: 0x2C }
  - { offsetInCU: 0x40A39, offset: 0x57E8D, size: 0x8, addend: 0x0, symName: __ZNSt3__115__tree_end_nodeIPNS_16__tree_node_baseIPvEEEC1B8ue170006Ev, symObjAddr: 0xD7F0, symBinAddr: 0x100013718, symSize: 0x2C }
  - { offsetInCU: 0x40A63, offset: 0x57EB7, size: 0x8, addend: 0x0, symName: __ZNSt3__115__tree_end_nodeIPNS_16__tree_node_baseIPvEEEC2B8ue170006Ev, symObjAddr: 0xD81C, symBinAddr: 0x100013744, symSize: 0x18 }
  - { offsetInCU: 0x40A8D, offset: 0x57EE1, size: 0x8, addend: 0x0, symName: __ZNSt3__19allocatorINS_11__tree_nodeINS_12__value_typeINS_12basic_stringIcNS_11char_traitsIcEENS0_IcEEEENS_6vectorIiNS0_IiEEEEEEPvEEEC2B8ue170006Ev, symObjAddr: 0xD834, symBinAddr: 0x10001375C, symSize: 0x2C }
  - { offsetInCU: 0x40AB7, offset: 0x57F0B, size: 0x8, addend: 0x0, symName: __ZNSt3__116__non_trivial_ifILb1ENS_9allocatorINS_11__tree_nodeINS_12__value_typeINS_12basic_stringIcNS_11char_traitsIcEENS1_IcEEEENS_6vectorIiNS1_IiEEEEEEPvEEEEEC2B8ue170006Ev, symObjAddr: 0xD860, symBinAddr: 0x100013788, symSize: 0x14 }
  - { offsetInCU: 0x40AE1, offset: 0x57F35, size: 0x8, addend: 0x0, symName: __ZNSt3__117__compressed_pairImNS_19__map_value_compareINS_12basic_stringIcNS_11char_traitsIcEENS_9allocatorIcEEEENS_12__value_typeIS7_NS_6vectorIiNS5_IiEEEEEENS_4lessIS7_EELb1EEEEC2B8ue170006IiRKSF_EEOT_OT0_, symObjAddr: 0xD874, symBinAddr: 0x10001379C, symSize: 0x44 }
  - { offsetInCU: 0x40B39, offset: 0x57F8D, size: 0x8, addend: 0x0, symName: __ZNSt3__122__compressed_pair_elemINS_19__map_value_compareINS_12basic_stringIcNS_11char_traitsIcEENS_9allocatorIcEEEENS_12__value_typeIS7_NS_6vectorIiNS5_IiEEEEEENS_4lessIS7_EELb1EEELi1ELb1EEC2B8ue170006IRKSF_vEEOT_, symObjAddr: 0xD8B8, symBinAddr: 0x1000137E0, symSize: 0x18 }
  - { offsetInCU: 0x40B7B, offset: 0x57FCF, size: 0x8, addend: 0x0, symName: __ZNSt3__117__compressed_pairINS_15__tree_end_nodeIPNS_16__tree_node_baseIPvEEEENS_9allocatorINS_11__tree_nodeINS_12__value_typeINS_12basic_stringIcNS_11char_traitsIcEENS7_IcEEEENS_6vectorIiNS7_IiEEEEEES3_EEEEE5firstB8ue170006Ev, symObjAddr: 0xD8D0, symBinAddr: 0x1000137F8, symSize: 0x24 }
  - { offsetInCU: 0x40BA1, offset: 0x57FF5, size: 0x8, addend: 0x0, symName: __ZNSt3__13mapINS_12basic_stringIcNS_11char_traitsIcEENS_9allocatorIcEEEENS_4listIS6_NS4_IS6_EEEENS_4lessIS6_EENS4_INS_4pairIKS6_S9_EEEEEC2B8ue170006Ev, symObjAddr: 0xD8F4, symBinAddr: 0x10001381C, symSize: 0x40 }
  - { offsetInCU: 0x40BCB, offset: 0x5801F, size: 0x8, addend: 0x0, symName: __ZNSt3__119__map_value_compareINS_12basic_stringIcNS_11char_traitsIcEENS_9allocatorIcEEEENS_12__value_typeIS6_NS_4listIS6_NS4_IS6_EEEEEENS_4lessIS6_EELb1EEC1B8ue170006ESD_, symObjAddr: 0xD934, symBinAddr: 0x10001385C, symSize: 0x2C }
  - { offsetInCU: 0x40C04, offset: 0x58058, size: 0x8, addend: 0x0, symName: __ZNSt3__16__treeINS_12__value_typeINS_12basic_stringIcNS_11char_traitsIcEENS_9allocatorIcEEEENS_4listIS7_NS5_IS7_EEEEEENS_19__map_value_compareIS7_SB_NS_4lessIS7_EELb1EEENS5_ISB_EEEC1ERKSF_, symObjAddr: 0xD960, symBinAddr: 0x100013888, symSize: 0x34 }
  - { offsetInCU: 0x40C3F, offset: 0x58093, size: 0x8, addend: 0x0, symName: __ZNSt3__119__map_value_compareINS_12basic_stringIcNS_11char_traitsIcEENS_9allocatorIcEEEENS_12__value_typeIS6_NS_4listIS6_NS4_IS6_EEEEEENS_4lessIS6_EELb1EEC2B8ue170006ESD_, symObjAddr: 0xD994, symBinAddr: 0x1000138BC, symSize: 0x14 }
  - { offsetInCU: 0x40C78, offset: 0x580CC, size: 0x8, addend: 0x0, symName: __ZNSt3__16__treeINS_12__value_typeINS_12basic_stringIcNS_11char_traitsIcEENS_9allocatorIcEEEENS_4listIS7_NS5_IS7_EEEEEENS_19__map_value_compareIS7_SB_NS_4lessIS7_EELb1EEENS5_ISB_EEEC2ERKSF_, symObjAddr: 0xD9A8, symBinAddr: 0x1000138D0, symSize: 0x7C }
  - { offsetInCU: 0x40CB3, offset: 0x58107, size: 0x8, addend: 0x0, symName: __ZNSt3__117__compressed_pairINS_15__tree_end_nodeIPNS_16__tree_node_baseIPvEEEENS_9allocatorINS_11__tree_nodeINS_12__value_typeINS_12basic_stringIcNS_11char_traitsIcEENS7_IcEEEENS_4listISE_NS7_ISE_EEEEEES3_EEEEEC1B8ue170006ILb1EvEEv, symObjAddr: 0xDA24, symBinAddr: 0x10001394C, symSize: 0x2C }
  - { offsetInCU: 0x40CE8, offset: 0x5813C, size: 0x8, addend: 0x0, symName: __ZNSt3__117__compressed_pairImNS_19__map_value_compareINS_12basic_stringIcNS_11char_traitsIcEENS_9allocatorIcEEEENS_12__value_typeIS7_NS_4listIS7_NS5_IS7_EEEEEENS_4lessIS7_EELb1EEEEC1B8ue170006IiRKSF_EEOT_OT0_, symObjAddr: 0xDA50, symBinAddr: 0x100013978, symSize: 0x3C }
  - { offsetInCU: 0x40D40, offset: 0x58194, size: 0x8, addend: 0x0, symName: __ZNSt3__16__treeINS_12__value_typeINS_12basic_stringIcNS_11char_traitsIcEENS_9allocatorIcEEEENS_4listIS7_NS5_IS7_EEEEEENS_19__map_value_compareIS7_SB_NS_4lessIS7_EELb1EEENS5_ISB_EEE10__end_nodeB8ue170006Ev, symObjAddr: 0xDA8C, symBinAddr: 0x1000139B4, symSize: 0x2C }
  - { offsetInCU: 0x40D66, offset: 0x581BA, size: 0x8, addend: 0x0, symName: __ZNSt3__16__treeINS_12__value_typeINS_12basic_stringIcNS_11char_traitsIcEENS_9allocatorIcEEEENS_4listIS7_NS5_IS7_EEEEEENS_19__map_value_compareIS7_SB_NS_4lessIS7_EELb1EEENS5_ISB_EEE12__begin_nodeB8ue170006Ev, symObjAddr: 0xDAB8, symBinAddr: 0x1000139E0, symSize: 0x14 }
  - { offsetInCU: 0x40D8C, offset: 0x581E0, size: 0x8, addend: 0x0, symName: __ZNSt3__117__compressed_pairINS_15__tree_end_nodeIPNS_16__tree_node_baseIPvEEEENS_9allocatorINS_11__tree_nodeINS_12__value_typeINS_12basic_stringIcNS_11char_traitsIcEENS7_IcEEEENS_4listISE_NS7_ISE_EEEEEES3_EEEEEC2B8ue170006ILb1EvEEv, symObjAddr: 0xDACC, symBinAddr: 0x1000139F4, symSize: 0x34 }
  - { offsetInCU: 0x40DC1, offset: 0x58215, size: 0x8, addend: 0x0, symName: __ZNSt3__122__compressed_pair_elemINS_9allocatorINS_11__tree_nodeINS_12__value_typeINS_12basic_stringIcNS_11char_traitsIcEENS1_IcEEEENS_4listIS8_NS1_IS8_EEEEEEPvEEEELi1ELb1EEC2B8ue170006ENS_16__value_init_tagE, symObjAddr: 0xDB00, symBinAddr: 0x100013A28, symSize: 0x2C }
  - { offsetInCU: 0x40DF6, offset: 0x5824A, size: 0x8, addend: 0x0, symName: __ZNSt3__19allocatorINS_11__tree_nodeINS_12__value_typeINS_12basic_stringIcNS_11char_traitsIcEENS0_IcEEEENS_4listIS7_NS0_IS7_EEEEEEPvEEEC2B8ue170006Ev, symObjAddr: 0xDB2C, symBinAddr: 0x100013A54, symSize: 0x2C }
  - { offsetInCU: 0x40E20, offset: 0x58274, size: 0x8, addend: 0x0, symName: __ZNSt3__116__non_trivial_ifILb1ENS_9allocatorINS_11__tree_nodeINS_12__value_typeINS_12basic_stringIcNS_11char_traitsIcEENS1_IcEEEENS_4listIS8_NS1_IS8_EEEEEEPvEEEEEC2B8ue170006Ev, symObjAddr: 0xDB58, symBinAddr: 0x100013A80, symSize: 0x14 }
  - { offsetInCU: 0x40E4A, offset: 0x5829E, size: 0x8, addend: 0x0, symName: __ZNSt3__117__compressed_pairImNS_19__map_value_compareINS_12basic_stringIcNS_11char_traitsIcEENS_9allocatorIcEEEENS_12__value_typeIS7_NS_4listIS7_NS5_IS7_EEEEEENS_4lessIS7_EELb1EEEEC2B8ue170006IiRKSF_EEOT_OT0_, symObjAddr: 0xDB6C, symBinAddr: 0x100013A94, symSize: 0x44 }
  - { offsetInCU: 0x40EA2, offset: 0x582F6, size: 0x8, addend: 0x0, symName: __ZNSt3__122__compressed_pair_elemINS_19__map_value_compareINS_12basic_stringIcNS_11char_traitsIcEENS_9allocatorIcEEEENS_12__value_typeIS7_NS_4listIS7_NS5_IS7_EEEEEENS_4lessIS7_EELb1EEELi1ELb1EEC2B8ue170006IRKSF_vEEOT_, symObjAddr: 0xDBB0, symBinAddr: 0x100013AD8, symSize: 0x18 }
  - { offsetInCU: 0x40EE4, offset: 0x58338, size: 0x8, addend: 0x0, symName: __ZNSt3__117__compressed_pairINS_15__tree_end_nodeIPNS_16__tree_node_baseIPvEEEENS_9allocatorINS_11__tree_nodeINS_12__value_typeINS_12basic_stringIcNS_11char_traitsIcEENS7_IcEEEENS_4listISE_NS7_ISE_EEEEEES3_EEEEE5firstB8ue170006Ev, symObjAddr: 0xDBC8, symBinAddr: 0x100013AF0, symSize: 0x24 }
  - { offsetInCU: 0x40F0A, offset: 0x5835E, size: 0x8, addend: 0x0, symName: __ZNSt3__13mapINS_12basic_stringIcNS_11char_traitsIcEENS_9allocatorIcEEEENS_3setINS_4pairIS6_S6_EENS_4lessIS9_EENS4_IS9_EEEENSA_IS6_EENS4_INS8_IKS6_SD_EEEEEC2B8ue170006Ev, symObjAddr: 0xDBEC, symBinAddr: 0x100013B14, symSize: 0x40 }
  - { offsetInCU: 0x40F34, offset: 0x58388, size: 0x8, addend: 0x0, symName: __ZNSt3__119__map_value_compareINS_12basic_stringIcNS_11char_traitsIcEENS_9allocatorIcEEEENS_12__value_typeIS6_NS_3setINS_4pairIS6_S6_EENS_4lessISA_EENS4_ISA_EEEEEENSB_IS6_EELb1EEC1B8ue170006ESG_, symObjAddr: 0xDC2C, symBinAddr: 0x100013B54, symSize: 0x2C }
  - { offsetInCU: 0x40F6D, offset: 0x583C1, size: 0x8, addend: 0x0, symName: __ZNSt3__16__treeINS_12__value_typeINS_12basic_stringIcNS_11char_traitsIcEENS_9allocatorIcEEEENS_3setINS_4pairIS7_S7_EENS_4lessISA_EENS5_ISA_EEEEEENS_19__map_value_compareIS7_SF_NSB_IS7_EELb1EEENS5_ISF_EEEC1ERKSI_, symObjAddr: 0xDC58, symBinAddr: 0x100013B80, symSize: 0x34 }
  - { offsetInCU: 0x40FA8, offset: 0x583FC, size: 0x8, addend: 0x0, symName: __ZNSt3__119__map_value_compareINS_12basic_stringIcNS_11char_traitsIcEENS_9allocatorIcEEEENS_12__value_typeIS6_NS_3setINS_4pairIS6_S6_EENS_4lessISA_EENS4_ISA_EEEEEENSB_IS6_EELb1EEC2B8ue170006ESG_, symObjAddr: 0xDC8C, symBinAddr: 0x100013BB4, symSize: 0x14 }
  - { offsetInCU: 0x40FE1, offset: 0x58435, size: 0x8, addend: 0x0, symName: __ZNSt3__16__treeINS_12__value_typeINS_12basic_stringIcNS_11char_traitsIcEENS_9allocatorIcEEEENS_3setINS_4pairIS7_S7_EENS_4lessISA_EENS5_ISA_EEEEEENS_19__map_value_compareIS7_SF_NSB_IS7_EELb1EEENS5_ISF_EEEC2ERKSI_, symObjAddr: 0xDCA0, symBinAddr: 0x100013BC8, symSize: 0x7C }
  - { offsetInCU: 0x4101C, offset: 0x58470, size: 0x8, addend: 0x0, symName: __ZNSt3__117__compressed_pairINS_15__tree_end_nodeIPNS_16__tree_node_baseIPvEEEENS_9allocatorINS_11__tree_nodeINS_12__value_typeINS_12basic_stringIcNS_11char_traitsIcEENS7_IcEEEENS_3setINS_4pairISE_SE_EENS_4lessISH_EENS7_ISH_EEEEEES3_EEEEEC1B8ue170006ILb1EvEEv, symObjAddr: 0xDD1C, symBinAddr: 0x100013C44, symSize: 0x2C }
  - { offsetInCU: 0x41051, offset: 0x584A5, size: 0x8, addend: 0x0, symName: __ZNSt3__117__compressed_pairImNS_19__map_value_compareINS_12basic_stringIcNS_11char_traitsIcEENS_9allocatorIcEEEENS_12__value_typeIS7_NS_3setINS_4pairIS7_S7_EENS_4lessISB_EENS5_ISB_EEEEEENSC_IS7_EELb1EEEEC1B8ue170006IiRKSI_EEOT_OT0_, symObjAddr: 0xDD48, symBinAddr: 0x100013C70, symSize: 0x3C }
  - { offsetInCU: 0x410A9, offset: 0x584FD, size: 0x8, addend: 0x0, symName: __ZNSt3__16__treeINS_12__value_typeINS_12basic_stringIcNS_11char_traitsIcEENS_9allocatorIcEEEENS_3setINS_4pairIS7_S7_EENS_4lessISA_EENS5_ISA_EEEEEENS_19__map_value_compareIS7_SF_NSB_IS7_EELb1EEENS5_ISF_EEE10__end_nodeB8ue170006Ev, symObjAddr: 0xDD84, symBinAddr: 0x100013CAC, symSize: 0x2C }
  - { offsetInCU: 0x410CF, offset: 0x58523, size: 0x8, addend: 0x0, symName: __ZNSt3__16__treeINS_12__value_typeINS_12basic_stringIcNS_11char_traitsIcEENS_9allocatorIcEEEENS_3setINS_4pairIS7_S7_EENS_4lessISA_EENS5_ISA_EEEEEENS_19__map_value_compareIS7_SF_NSB_IS7_EELb1EEENS5_ISF_EEE12__begin_nodeB8ue170006Ev, symObjAddr: 0xDDB0, symBinAddr: 0x100013CD8, symSize: 0x14 }
  - { offsetInCU: 0x410F5, offset: 0x58549, size: 0x8, addend: 0x0, symName: __ZNSt3__117__compressed_pairINS_15__tree_end_nodeIPNS_16__tree_node_baseIPvEEEENS_9allocatorINS_11__tree_nodeINS_12__value_typeINS_12basic_stringIcNS_11char_traitsIcEENS7_IcEEEENS_3setINS_4pairISE_SE_EENS_4lessISH_EENS7_ISH_EEEEEES3_EEEEEC2B8ue170006ILb1EvEEv, symObjAddr: 0xDDC4, symBinAddr: 0x100013CEC, symSize: 0x34 }
  - { offsetInCU: 0x4112A, offset: 0x5857E, size: 0x8, addend: 0x0, symName: __ZNSt3__122__compressed_pair_elemINS_9allocatorINS_11__tree_nodeINS_12__value_typeINS_12basic_stringIcNS_11char_traitsIcEENS1_IcEEEENS_3setINS_4pairIS8_S8_EENS_4lessISB_EENS1_ISB_EEEEEEPvEEEELi1ELb1EEC2B8ue170006ENS_16__value_init_tagE, symObjAddr: 0xDDF8, symBinAddr: 0x100013D20, symSize: 0x2C }
  - { offsetInCU: 0x4115F, offset: 0x585B3, size: 0x8, addend: 0x0, symName: __ZNSt3__19allocatorINS_11__tree_nodeINS_12__value_typeINS_12basic_stringIcNS_11char_traitsIcEENS0_IcEEEENS_3setINS_4pairIS7_S7_EENS_4lessISA_EENS0_ISA_EEEEEEPvEEEC2B8ue170006Ev, symObjAddr: 0xDE24, symBinAddr: 0x100013D4C, symSize: 0x2C }
  - { offsetInCU: 0x41189, offset: 0x585DD, size: 0x8, addend: 0x0, symName: __ZNSt3__116__non_trivial_ifILb1ENS_9allocatorINS_11__tree_nodeINS_12__value_typeINS_12basic_stringIcNS_11char_traitsIcEENS1_IcEEEENS_3setINS_4pairIS8_S8_EENS_4lessISB_EENS1_ISB_EEEEEEPvEEEEEC2B8ue170006Ev, symObjAddr: 0xDE50, symBinAddr: 0x100013D78, symSize: 0x14 }
  - { offsetInCU: 0x411B3, offset: 0x58607, size: 0x8, addend: 0x0, symName: __ZNSt3__117__compressed_pairImNS_19__map_value_compareINS_12basic_stringIcNS_11char_traitsIcEENS_9allocatorIcEEEENS_12__value_typeIS7_NS_3setINS_4pairIS7_S7_EENS_4lessISB_EENS5_ISB_EEEEEENSC_IS7_EELb1EEEEC2B8ue170006IiRKSI_EEOT_OT0_, symObjAddr: 0xDE64, symBinAddr: 0x100013D8C, symSize: 0x44 }
  - { offsetInCU: 0x4120B, offset: 0x5865F, size: 0x8, addend: 0x0, symName: __ZNSt3__122__compressed_pair_elemINS_19__map_value_compareINS_12basic_stringIcNS_11char_traitsIcEENS_9allocatorIcEEEENS_12__value_typeIS7_NS_3setINS_4pairIS7_S7_EENS_4lessISB_EENS5_ISB_EEEEEENSC_IS7_EELb1EEELi1ELb1EEC2B8ue170006IRKSI_vEEOT_, symObjAddr: 0xDEA8, symBinAddr: 0x100013DD0, symSize: 0x18 }
  - { offsetInCU: 0x4124D, offset: 0x586A1, size: 0x8, addend: 0x0, symName: __ZNSt3__117__compressed_pairINS_15__tree_end_nodeIPNS_16__tree_node_baseIPvEEEENS_9allocatorINS_11__tree_nodeINS_12__value_typeINS_12basic_stringIcNS_11char_traitsIcEENS7_IcEEEENS_3setINS_4pairISE_SE_EENS_4lessISH_EENS7_ISH_EEEEEES3_EEEEE5firstB8ue170006Ev, symObjAddr: 0xDEC0, symBinAddr: 0x100013DE8, symSize: 0x24 }
  - { offsetInCU: 0x41273, offset: 0x586C7, size: 0x8, addend: 0x0, symName: __ZNSt3__13mapINS_12basic_stringIcNS_11char_traitsIcEENS_9allocatorIcEEEENS_4listIiNS4_IiEEEENS_4lessIS6_EENS4_INS_4pairIKS6_S9_EEEEEC2B8ue170006Ev, symObjAddr: 0xDEE4, symBinAddr: 0x100013E0C, symSize: 0x40 }
  - { offsetInCU: 0x4129D, offset: 0x586F1, size: 0x8, addend: 0x0, symName: __ZNSt3__119__map_value_compareINS_12basic_stringIcNS_11char_traitsIcEENS_9allocatorIcEEEENS_12__value_typeIS6_NS_4listIiNS4_IiEEEEEENS_4lessIS6_EELb1EEC1B8ue170006ESD_, symObjAddr: 0xDF24, symBinAddr: 0x100013E4C, symSize: 0x2C }
  - { offsetInCU: 0x412D6, offset: 0x5872A, size: 0x8, addend: 0x0, symName: __ZNSt3__16__treeINS_12__value_typeINS_12basic_stringIcNS_11char_traitsIcEENS_9allocatorIcEEEENS_4listIiNS5_IiEEEEEENS_19__map_value_compareIS7_SB_NS_4lessIS7_EELb1EEENS5_ISB_EEEC1ERKSF_, symObjAddr: 0xDF50, symBinAddr: 0x100013E78, symSize: 0x34 }
  - { offsetInCU: 0x41311, offset: 0x58765, size: 0x8, addend: 0x0, symName: __ZNSt3__119__map_value_compareINS_12basic_stringIcNS_11char_traitsIcEENS_9allocatorIcEEEENS_12__value_typeIS6_NS_4listIiNS4_IiEEEEEENS_4lessIS6_EELb1EEC2B8ue170006ESD_, symObjAddr: 0xDF84, symBinAddr: 0x100013EAC, symSize: 0x14 }
  - { offsetInCU: 0x4134A, offset: 0x5879E, size: 0x8, addend: 0x0, symName: __ZNSt3__16__treeINS_12__value_typeINS_12basic_stringIcNS_11char_traitsIcEENS_9allocatorIcEEEENS_4listIiNS5_IiEEEEEENS_19__map_value_compareIS7_SB_NS_4lessIS7_EELb1EEENS5_ISB_EEEC2ERKSF_, symObjAddr: 0xDF98, symBinAddr: 0x100013EC0, symSize: 0x7C }
  - { offsetInCU: 0x41385, offset: 0x587D9, size: 0x8, addend: 0x0, symName: __ZNSt3__117__compressed_pairINS_15__tree_end_nodeIPNS_16__tree_node_baseIPvEEEENS_9allocatorINS_11__tree_nodeINS_12__value_typeINS_12basic_stringIcNS_11char_traitsIcEENS7_IcEEEENS_4listIiNS7_IiEEEEEES3_EEEEEC1B8ue170006ILb1EvEEv, symObjAddr: 0xE014, symBinAddr: 0x100013F3C, symSize: 0x2C }
  - { offsetInCU: 0x413BA, offset: 0x5880E, size: 0x8, addend: 0x0, symName: __ZNSt3__117__compressed_pairImNS_19__map_value_compareINS_12basic_stringIcNS_11char_traitsIcEENS_9allocatorIcEEEENS_12__value_typeIS7_NS_4listIiNS5_IiEEEEEENS_4lessIS7_EELb1EEEEC1B8ue170006IiRKSF_EEOT_OT0_, symObjAddr: 0xE040, symBinAddr: 0x100013F68, symSize: 0x3C }
  - { offsetInCU: 0x41412, offset: 0x58866, size: 0x8, addend: 0x0, symName: __ZNSt3__16__treeINS_12__value_typeINS_12basic_stringIcNS_11char_traitsIcEENS_9allocatorIcEEEENS_4listIiNS5_IiEEEEEENS_19__map_value_compareIS7_SB_NS_4lessIS7_EELb1EEENS5_ISB_EEE10__end_nodeB8ue170006Ev, symObjAddr: 0xE07C, symBinAddr: 0x100013FA4, symSize: 0x2C }
  - { offsetInCU: 0x41438, offset: 0x5888C, size: 0x8, addend: 0x0, symName: __ZNSt3__16__treeINS_12__value_typeINS_12basic_stringIcNS_11char_traitsIcEENS_9allocatorIcEEEENS_4listIiNS5_IiEEEEEENS_19__map_value_compareIS7_SB_NS_4lessIS7_EELb1EEENS5_ISB_EEE12__begin_nodeB8ue170006Ev, symObjAddr: 0xE0A8, symBinAddr: 0x100013FD0, symSize: 0x14 }
  - { offsetInCU: 0x4145E, offset: 0x588B2, size: 0x8, addend: 0x0, symName: __ZNSt3__117__compressed_pairINS_15__tree_end_nodeIPNS_16__tree_node_baseIPvEEEENS_9allocatorINS_11__tree_nodeINS_12__value_typeINS_12basic_stringIcNS_11char_traitsIcEENS7_IcEEEENS_4listIiNS7_IiEEEEEES3_EEEEEC2B8ue170006ILb1EvEEv, symObjAddr: 0xE0BC, symBinAddr: 0x100013FE4, symSize: 0x34 }
  - { offsetInCU: 0x41493, offset: 0x588E7, size: 0x8, addend: 0x0, symName: __ZNSt3__122__compressed_pair_elemINS_9allocatorINS_11__tree_nodeINS_12__value_typeINS_12basic_stringIcNS_11char_traitsIcEENS1_IcEEEENS_4listIiNS1_IiEEEEEEPvEEEELi1ELb1EEC2B8ue170006ENS_16__value_init_tagE, symObjAddr: 0xE0F0, symBinAddr: 0x100014018, symSize: 0x2C }
  - { offsetInCU: 0x414C8, offset: 0x5891C, size: 0x8, addend: 0x0, symName: __ZNSt3__19allocatorINS_11__tree_nodeINS_12__value_typeINS_12basic_stringIcNS_11char_traitsIcEENS0_IcEEEENS_4listIiNS0_IiEEEEEEPvEEEC2B8ue170006Ev, symObjAddr: 0xE11C, symBinAddr: 0x100014044, symSize: 0x2C }
  - { offsetInCU: 0x414F2, offset: 0x58946, size: 0x8, addend: 0x0, symName: __ZNSt3__116__non_trivial_ifILb1ENS_9allocatorINS_11__tree_nodeINS_12__value_typeINS_12basic_stringIcNS_11char_traitsIcEENS1_IcEEEENS_4listIiNS1_IiEEEEEEPvEEEEEC2B8ue170006Ev, symObjAddr: 0xE148, symBinAddr: 0x100014070, symSize: 0x14 }
  - { offsetInCU: 0x4151C, offset: 0x58970, size: 0x8, addend: 0x0, symName: __ZNSt3__117__compressed_pairImNS_19__map_value_compareINS_12basic_stringIcNS_11char_traitsIcEENS_9allocatorIcEEEENS_12__value_typeIS7_NS_4listIiNS5_IiEEEEEENS_4lessIS7_EELb1EEEEC2B8ue170006IiRKSF_EEOT_OT0_, symObjAddr: 0xE15C, symBinAddr: 0x100014084, symSize: 0x44 }
  - { offsetInCU: 0x41574, offset: 0x589C8, size: 0x8, addend: 0x0, symName: __ZNSt3__122__compressed_pair_elemINS_19__map_value_compareINS_12basic_stringIcNS_11char_traitsIcEENS_9allocatorIcEEEENS_12__value_typeIS7_NS_4listIiNS5_IiEEEEEENS_4lessIS7_EELb1EEELi1ELb1EEC2B8ue170006IRKSF_vEEOT_, symObjAddr: 0xE1A0, symBinAddr: 0x1000140C8, symSize: 0x18 }
  - { offsetInCU: 0x415B6, offset: 0x58A0A, size: 0x8, addend: 0x0, symName: __ZNSt3__117__compressed_pairINS_15__tree_end_nodeIPNS_16__tree_node_baseIPvEEEENS_9allocatorINS_11__tree_nodeINS_12__value_typeINS_12basic_stringIcNS_11char_traitsIcEENS7_IcEEEENS_4listIiNS7_IiEEEEEES3_EEEEE5firstB8ue170006Ev, symObjAddr: 0xE1B8, symBinAddr: 0x1000140E0, symSize: 0x24 }
  - { offsetInCU: 0x415DC, offset: 0x58A30, size: 0x8, addend: 0x0, symName: __ZNSt3__19basic_iosIcNS_11char_traitsIcEEEC2B8ue170006Ev, symObjAddr: 0xF4B4, symBinAddr: 0x100014104, symSize: 0x44 }
  - { offsetInCU: 0x41606, offset: 0x58A5A, size: 0x8, addend: 0x0, symName: __ZNSt3__113basic_istreamIcNS_11char_traitsIcEEEC2B8ue170006EPNS_15basic_streambufIcS2_EE, symObjAddr: 0xF4F8, symBinAddr: 0x100014148, symSize: 0x64 }
  - { offsetInCU: 0x4164B, offset: 0x58A9F, size: 0x8, addend: 0x0, symName: __ZNSt3__113basic_filebufIcNS_11char_traitsIcEEE4openERKNS_12basic_stringIcS2_NS_9allocatorIcEEEEj, symObjAddr: 0xF55C, symBinAddr: 0x1000141AC, symSize: 0x44 }
  - { offsetInCU: 0x4168F, offset: 0x58AE3, size: 0x8, addend: 0x0, symName: __ZNSt3__18ios_baseC2B8ue170006Ev, symObjAddr: 0xF5CC, symBinAddr: 0x1000141F0, symSize: 0x24 }
  - { offsetInCU: 0x416B9, offset: 0x58B0D, size: 0x8, addend: 0x0, symName: __ZNSt3__19basic_iosIcNS_11char_traitsIcEEE4initB8ue170006EPNS_15basic_streambufIcS2_EE, symObjAddr: 0xF5F0, symBinAddr: 0x100014214, symSize: 0x44 }
  - { offsetInCU: 0x416F0, offset: 0x58B44, size: 0x8, addend: 0x0, symName: __ZNKSt3__112basic_stringIcNS_11char_traitsIcEENS_9allocatorIcEEE5c_strB8ue170006Ev, symObjAddr: 0xF63C, symBinAddr: 0x100014258, symSize: 0x24 }
  - { offsetInCU: 0x41734, offset: 0x58B88, size: 0x8, addend: 0x0, symName: __ZNKSt3__113basic_istreamIcNS_11char_traitsIcEEE6sentrycvbB8ue170006Ev, symObjAddr: 0xF694, symBinAddr: 0x10001427C, symSize: 0x1C }
  - { offsetInCU: 0x4175A, offset: 0x58BAE, size: 0x8, addend: 0x0, symName: __ZNSt3__112basic_stringIcNS_11char_traitsIcEENS_9allocatorIcEEE5clearB8ue170006Ev, symObjAddr: 0xF6B0, symBinAddr: 0x100014298, symSize: 0x78 }
  - { offsetInCU: 0x41782, offset: 0x58BD6, size: 0x8, addend: 0x0, symName: __ZNKSt3__112basic_stringIcNS_11char_traitsIcEENS_9allocatorIcEEE8max_sizeB8ue170006Ev, symObjAddr: 0xF740, symBinAddr: 0x100014310, symSize: 0xAC }
  - { offsetInCU: 0x417D4, offset: 0x58C28, size: 0x8, addend: 0x0, symName: __ZNSt3__115basic_streambufIcNS_11char_traitsIcEEE5sgetcB8ue170006Ev, symObjAddr: 0xF83C, symBinAddr: 0x1000143BC, symSize: 0x70 }
  - { offsetInCU: 0x417FA, offset: 0x58C4E, size: 0x8, addend: 0x0, symName: __ZNSt3__111char_traitsIcE12to_char_typeB8ue170006Ei, symObjAddr: 0xF8D4, symBinAddr: 0x10001442C, symSize: 0x18 }
  - { offsetInCU: 0x41822, offset: 0x58C76, size: 0x8, addend: 0x0, symName: __ZNKSt3__15ctypeIcE2isB8ue170006Ejc, symObjAddr: 0xF8EC, symBinAddr: 0x100014444, symSize: 0x7C }
  - { offsetInCU: 0x41866, offset: 0x58CBA, size: 0x8, addend: 0x0, symName: __ZNSt3__115basic_streambufIcNS_11char_traitsIcEEE6sbumpcB8ue170006Ev, symObjAddr: 0xF968, symBinAddr: 0x1000144C0, symSize: 0x78 }
  - { offsetInCU: 0x4188C, offset: 0x58CE0, size: 0x8, addend: 0x0, symName: __ZNSt3__18ios_base18__setstate_nothrowB8ue170006Ej, symObjAddr: 0xFA0C, symBinAddr: 0x100014538, symSize: 0x64 }
  - { offsetInCU: 0x418C1, offset: 0x58D15, size: 0x8, addend: 0x0, symName: __ZNKSt3__19basic_iosIcNS_11char_traitsIcEEE10exceptionsB8ue170006Ev, symObjAddr: 0xFA70, symBinAddr: 0x10001459C, symSize: 0x24 }
  - { offsetInCU: 0x418E7, offset: 0x58D3B, size: 0x8, addend: 0x0, symName: __ZNSt3__111char_traitsIcE6assignB8ue170006ERcRKc, symObjAddr: 0xFA94, symBinAddr: 0x1000145C0, symSize: 0x24 }
  - { offsetInCU: 0x41918, offset: 0x58D6C, size: 0x8, addend: 0x0, symName: __ZNSt3__112basic_stringIcNS_11char_traitsIcEENS_9allocatorIcEEE15__set_long_sizeB8ue170006Em, symObjAddr: 0xFAE0, symBinAddr: 0x1000145E4, symSize: 0x38 }
  - { offsetInCU: 0x4194D, offset: 0x58DA1, size: 0x8, addend: 0x0, symName: __ZNSt3__112basic_stringIcNS_11char_traitsIcEENS_9allocatorIcEEE16__set_short_sizeB8ue170006Em, symObjAddr: 0xFB40, symBinAddr: 0x10001461C, symSize: 0x78 }
  - { offsetInCU: 0x4198C, offset: 0x58DE0, size: 0x8, addend: 0x0, symName: __ZNSt3__116allocator_traitsINS_9allocatorIcEEE8max_sizeB8ue170006IS2_vvEEmRKS2_, symObjAddr: 0xFBCC, symBinAddr: 0x100014694, symSize: 0x28 }
  - { offsetInCU: 0x419B8, offset: 0x58E0C, size: 0x8, addend: 0x0, symName: __ZNKSt3__112basic_stringIcNS_11char_traitsIcEENS_9allocatorIcEEE7__allocB8ue170006Ev, symObjAddr: 0xFBF4, symBinAddr: 0x1000146BC, symSize: 0x24 }
  - { offsetInCU: 0x419DE, offset: 0x58E32, size: 0x8, addend: 0x0, symName: __ZNKSt3__117__compressed_pairINS_12basic_stringIcNS_11char_traitsIcEENS_9allocatorIcEEE5__repES5_E6secondB8ue170006Ev, symObjAddr: 0xFC18, symBinAddr: 0x1000146E0, symSize: 0x24 }
  - { offsetInCU: 0x41A04, offset: 0x58E58, size: 0x8, addend: 0x0, symName: __ZNKSt3__122__compressed_pair_elemINS_9allocatorIcEELi1ELb1EE5__getB8ue170006Ev, symObjAddr: 0xFC3C, symBinAddr: 0x100014704, symSize: 0x14 }
  - { offsetInCU: 0x41A2A, offset: 0x58E7E, size: 0x8, addend: 0x0, symName: __ZNSt3__111char_traitsIcE11to_int_typeB8ue170006Ec, symObjAddr: 0xFC68, symBinAddr: 0x100014718, symSize: 0x14 }
  - { offsetInCU: 0x41A4D, offset: 0x58EA1, size: 0x8, addend: 0x0, symName: __Z7isasciii, symObjAddr: 0xFC7C, symBinAddr: 0x10001472C, symSize: 0x24 }
  - { offsetInCU: 0x41A7A, offset: 0x58ECE, size: 0x8, addend: 0x0, symName: __ZNKSt3__18ios_base10exceptionsB8ue170006Ev, symObjAddr: 0xFCA0, symBinAddr: 0x100014750, symSize: 0x18 }
  - { offsetInCU: 0x41AA2, offset: 0x58EF6, size: 0x8, addend: 0x0, symName: __ZNKSt3__19basic_iosIcNS_11char_traitsIcEEE4failB8ue170006Ev, symObjAddr: 0xFCB8, symBinAddr: 0x100014768, symSize: 0x28 }
  - { offsetInCU: 0x41AC8, offset: 0x58F1C, size: 0x8, addend: 0x0, symName: __ZNKSt3__18ios_base4failB8ue170006Ev, symObjAddr: 0xFCE0, symBinAddr: 0x100014790, symSize: 0x28 }
  - { offsetInCU: 0x41AF0, offset: 0x58F44, size: 0x8, addend: 0x0, symName: __ZNSt3__14listINS_12basic_stringIcNS_11char_traitsIcEENS_9allocatorIcEEEENS4_IS6_EEEC2B8ue170006Ev, symObjAddr: 0xFD08, symBinAddr: 0x1000147B8, symSize: 0x2C }
  - { offsetInCU: 0x41B1A, offset: 0x58F6E, size: 0x8, addend: 0x0, symName: __ZNSt3__110__list_impINS_12basic_stringIcNS_11char_traitsIcEENS_9allocatorIcEEEENS4_IS6_EEEC2Ev, symObjAddr: 0xFD34, symBinAddr: 0x1000147E4, symSize: 0x50 }
  - { offsetInCU: 0x41B46, offset: 0x58F9A, size: 0x8, addend: 0x0, symName: __ZNSt3__117__compressed_pairImNS_9allocatorINS_11__list_nodeINS_12basic_stringIcNS_11char_traitsIcEENS1_IcEEEEPvEEEEEC1B8ue170006IiNS_18__default_init_tagEEEOT_OT0_, symObjAddr: 0xFD84, symBinAddr: 0x100014834, symSize: 0x3C }
  - { offsetInCU: 0x41B9E, offset: 0x58FF2, size: 0x8, addend: 0x0, symName: __ZNSt3__117__compressed_pairImNS_9allocatorINS_11__list_nodeINS_12basic_stringIcNS_11char_traitsIcEENS1_IcEEEEPvEEEEEC2B8ue170006IiNS_18__default_init_tagEEEOT_OT0_, symObjAddr: 0xFDC0, symBinAddr: 0x100014870, symSize: 0x40 }
  - { offsetInCU: 0x41BF6, offset: 0x5904A, size: 0x8, addend: 0x0, symName: __ZNSt3__122__compressed_pair_elemINS_9allocatorINS_11__list_nodeINS_12basic_stringIcNS_11char_traitsIcEENS1_IcEEEEPvEEEELi1ELb1EEC2B8ue170006ENS_18__default_init_tagE, symObjAddr: 0xFE00, symBinAddr: 0x1000148B0, symSize: 0x2C }
  - { offsetInCU: 0x41C2B, offset: 0x5907F, size: 0x8, addend: 0x0, symName: __ZNSt3__19allocatorINS_11__list_nodeINS_12basic_stringIcNS_11char_traitsIcEENS0_IcEEEEPvEEEC2B8ue170006Ev, symObjAddr: 0xFE2C, symBinAddr: 0x1000148DC, symSize: 0x2C }
  - { offsetInCU: 0x41C55, offset: 0x590A9, size: 0x8, addend: 0x0, symName: __ZNSt3__116__non_trivial_ifILb1ENS_9allocatorINS_11__list_nodeINS_12basic_stringIcNS_11char_traitsIcEENS1_IcEEEEPvEEEEEC2B8ue170006Ev, symObjAddr: 0xFE58, symBinAddr: 0x100014908, symSize: 0x14 }
  - { offsetInCU: 0x41C7F, offset: 0x590D3, size: 0x8, addend: 0x0, symName: __ZNSt3__16__treeINS_12__value_typeINS_12basic_stringIcNS_11char_traitsIcEENS_9allocatorIcEEEENS_4listIS7_NS5_IS7_EEEEEENS_19__map_value_compareIS7_SB_NS_4lessIS7_EELb1EEENS5_ISB_EEE15__insert_uniqueB8ue170006EONS_4pairIKS7_SA_EE, symObjAddr: 0xFE6C, symBinAddr: 0x10001491C, symSize: 0x50 }
  - { offsetInCU: 0x41CB4, offset: 0x59108, size: 0x8, addend: 0x0, symName: __ZNSt3__14pairINS_14__map_iteratorINS_15__tree_iteratorINS_12__value_typeINS_12basic_stringIcNS_11char_traitsIcEENS_9allocatorIcEEEENS_4listIS9_NS7_IS9_EEEEEEPNS_11__tree_nodeISD_PvEElEEEEbEC1B8ue170006ISI_bLSF_0EEEONS0_IT_T0_EE, symObjAddr: 0xFEBC, symBinAddr: 0x10001496C, symSize: 0x34 }
  - { offsetInCU: 0x41D06, offset: 0x5915A, size: 0x8, addend: 0x0, symName: __ZNSt3__16__treeINS_12__value_typeINS_12basic_stringIcNS_11char_traitsIcEENS_9allocatorIcEEEENS_4listIS7_NS5_IS7_EEEEEENS_19__map_value_compareIS7_SB_NS_4lessIS7_EELb1EEENS5_ISB_EEE25__emplace_unique_key_argsIS7_JNS_4pairIKS7_SA_EEEEENSJ_INS_15__tree_iteratorISB_PNS_11__tree_nodeISB_PvEElEEbEERKT_DpOT0_, symObjAddr: 0xFEF0, symBinAddr: 0x1000149A0, symSize: 0xF0 }
  - { offsetInCU: 0x41DB2, offset: 0x59206, size: 0x8, addend: 0x0, symName: __ZNSt3__122__tree_key_value_typesINS_12__value_typeINS_12basic_stringIcNS_11char_traitsIcEENS_9allocatorIcEEEENS_4listIS7_NS5_IS7_EEEEEEE9__get_keyB8ue170006INS_4pairIKS7_SA_EEEENS_9enable_ifIXsr17__is_same_uncvrefIT_SG_EE5valueERSF_E4typeERSI_, symObjAddr: 0xFFE0, symBinAddr: 0x100014A90, symSize: 0x14 }
  - { offsetInCU: 0x41DDF, offset: 0x59233, size: 0x8, addend: 0x0, symName: __ZNSt3__16__treeINS_12__value_typeINS_12basic_stringIcNS_11char_traitsIcEENS_9allocatorIcEEEENS_4listIS7_NS5_IS7_EEEEEENS_19__map_value_compareIS7_SB_NS_4lessIS7_EELb1EEENS5_ISB_EEE12__find_equalIS7_EERPNS_16__tree_node_baseIPvEERPNS_15__tree_end_nodeISM_EERKT_, symObjAddr: 0xFFF4, symBinAddr: 0x100014AA4, symSize: 0x184 }
  - { offsetInCU: 0x41E4C, offset: 0x592A0, size: 0x8, addend: 0x0, symName: __ZNSt3__16__treeINS_12__value_typeINS_12basic_stringIcNS_11char_traitsIcEENS_9allocatorIcEEEENS_4listIS7_NS5_IS7_EEEEEENS_19__map_value_compareIS7_SB_NS_4lessIS7_EELb1EEENS5_ISB_EEE16__construct_nodeIJNS_4pairIKS7_SA_EEEEENS_10unique_ptrINS_11__tree_nodeISB_PvEENS_22__tree_node_destructorINS5_ISP_EEEEEEDpOT_, symObjAddr: 0x10178, symBinAddr: 0x100014C28, symSize: 0x110 }
  - { offsetInCU: 0x41EAD, offset: 0x59301, size: 0x8, addend: 0x0, symName: __ZNSt3__16__treeINS_12__value_typeINS_12basic_stringIcNS_11char_traitsIcEENS_9allocatorIcEEEENS_4listIS7_NS5_IS7_EEEEEENS_19__map_value_compareIS7_SB_NS_4lessIS7_EELb1EEENS5_ISB_EEE16__insert_node_atEPNS_15__tree_end_nodeIPNS_16__tree_node_baseIPvEEEERSM_SM_, symObjAddr: 0x10288, symBinAddr: 0x100014D38, symSize: 0xCC }
  - { offsetInCU: 0x41F02, offset: 0x59356, size: 0x8, addend: 0x0, symName: __ZNKSt3__110unique_ptrINS_11__tree_nodeINS_12__value_typeINS_12basic_stringIcNS_11char_traitsIcEENS_9allocatorIcEEEENS_4listIS8_NS6_IS8_EEEEEEPvEENS_22__tree_node_destructorINS6_ISE_EEEEE3getB8ue170006Ev, symObjAddr: 0x10354, symBinAddr: 0x100014E04, symSize: 0x28 }
  - { offsetInCU: 0x41F28, offset: 0x5937C, size: 0x8, addend: 0x0, symName: __ZNSt3__110unique_ptrINS_11__tree_nodeINS_12__value_typeINS_12basic_stringIcNS_11char_traitsIcEENS_9allocatorIcEEEENS_4listIS8_NS6_IS8_EEEEEEPvEENS_22__tree_node_destructorINS6_ISE_EEEEE7releaseB8ue170006Ev, symObjAddr: 0x1037C, symBinAddr: 0x100014E2C, symSize: 0x44 }
  - { offsetInCU: 0x41F5D, offset: 0x593B1, size: 0x8, addend: 0x0, symName: __ZNSt3__110unique_ptrINS_11__tree_nodeINS_12__value_typeINS_12basic_stringIcNS_11char_traitsIcEENS_9allocatorIcEEEENS_4listIS8_NS6_IS8_EEEEEEPvEENS_22__tree_node_destructorINS6_ISE_EEEEED1B8ue170006Ev, symObjAddr: 0x103C0, symBinAddr: 0x100014E70, symSize: 0x2C }
  - { offsetInCU: 0x41F87, offset: 0x593DB, size: 0x8, addend: 0x0, symName: __ZNSt3__115__tree_iteratorINS_12__value_typeINS_12basic_stringIcNS_11char_traitsIcEENS_9allocatorIcEEEENS_4listIS7_NS5_IS7_EEEEEEPNS_11__tree_nodeISB_PvEElEC1B8ue170006ESF_, symObjAddr: 0x103EC, symBinAddr: 0x100014E9C, symSize: 0x34 }
  - { offsetInCU: 0x41FC5, offset: 0x59419, size: 0x8, addend: 0x0, symName: __ZNSt3__14pairINS_15__tree_iteratorINS_12__value_typeINS_12basic_stringIcNS_11char_traitsIcEENS_9allocatorIcEEEENS_4listIS8_NS6_IS8_EEEEEEPNS_11__tree_nodeISC_PvEElEEbEC1B8ue170006ISH_RbLSE_0EEEOT_OT0_, symObjAddr: 0x10420, symBinAddr: 0x100014ED0, symSize: 0x3C }
  - { offsetInCU: 0x42024, offset: 0x59478, size: 0x8, addend: 0x0, symName: __ZNKSt3__16__treeINS_12__value_typeINS_12basic_stringIcNS_11char_traitsIcEENS_9allocatorIcEEEENS_4listIS7_NS5_IS7_EEEEEENS_19__map_value_compareIS7_SB_NS_4lessIS7_EELb1EEENS5_ISB_EEE10__root_ptrB8ue170006Ev, symObjAddr: 0x1045C, symBinAddr: 0x100014F0C, symSize: 0x24 }
  - { offsetInCU: 0x4204A, offset: 0x5949E, size: 0x8, addend: 0x0, symName: __ZNSt3__16__treeINS_12__value_typeINS_12basic_stringIcNS_11char_traitsIcEENS_9allocatorIcEEEENS_4listIS7_NS5_IS7_EEEEEENS_19__map_value_compareIS7_SB_NS_4lessIS7_EELb1EEENS5_ISB_EEE10value_compB8ue170006Ev, symObjAddr: 0x10480, symBinAddr: 0x100014F30, symSize: 0x28 }
  - { offsetInCU: 0x42070, offset: 0x594C4, size: 0x8, addend: 0x0, symName: __ZNKSt3__119__map_value_compareINS_12basic_stringIcNS_11char_traitsIcEENS_9allocatorIcEEEENS_12__value_typeIS6_NS_4listIS6_NS4_IS6_EEEEEENS_4lessIS6_EELb1EEclB8ue170006ERKS6_RKSB_, symObjAddr: 0x104A8, symBinAddr: 0x100014F58, symSize: 0x50 }
  - { offsetInCU: 0x420B4, offset: 0x59508, size: 0x8, addend: 0x0, symName: __ZNKSt3__119__map_value_compareINS_12basic_stringIcNS_11char_traitsIcEENS_9allocatorIcEEEENS_12__value_typeIS6_NS_4listIS6_NS4_IS6_EEEEEENS_4lessIS6_EELb1EEclB8ue170006ERKSB_RKS6_, symObjAddr: 0x104F8, symBinAddr: 0x100014FA8, symSize: 0x48 }
  - { offsetInCU: 0x420F8, offset: 0x5954C, size: 0x8, addend: 0x0, symName: __ZNSt3__117__compressed_pairImNS_19__map_value_compareINS_12basic_stringIcNS_11char_traitsIcEENS_9allocatorIcEEEENS_12__value_typeIS7_NS_4listIS7_NS5_IS7_EEEEEENS_4lessIS7_EELb1EEEE6secondB8ue170006Ev, symObjAddr: 0x10540, symBinAddr: 0x100014FF0, symSize: 0x24 }
  - { offsetInCU: 0x4211E, offset: 0x59572, size: 0x8, addend: 0x0, symName: __ZNSt3__122__compressed_pair_elemINS_19__map_value_compareINS_12basic_stringIcNS_11char_traitsIcEENS_9allocatorIcEEEENS_12__value_typeIS7_NS_4listIS7_NS5_IS7_EEEEEENS_4lessIS7_EELb1EEELi1ELb1EE5__getB8ue170006Ev, symObjAddr: 0x10564, symBinAddr: 0x100015014, symSize: 0x14 }
  - { offsetInCU: 0x42144, offset: 0x59598, size: 0x8, addend: 0x0, symName: __ZNKSt3__14lessINS_12basic_stringIcNS_11char_traitsIcEENS_9allocatorIcEEEEEclB8ue170006ERKS6_S9_, symObjAddr: 0x10578, symBinAddr: 0x100015028, symSize: 0x50 }
  - { offsetInCU: 0x42188, offset: 0x595DC, size: 0x8, addend: 0x0, symName: __ZNKSt3__112__value_typeINS_12basic_stringIcNS_11char_traitsIcEENS_9allocatorIcEEEENS_4listIS6_NS4_IS6_EEEEE11__get_valueB8ue170006Ev, symObjAddr: 0x105C8, symBinAddr: 0x100015078, symSize: 0x24 }
  - { offsetInCU: 0x421BD, offset: 0x59611, size: 0x8, addend: 0x0, symName: __ZNSt3__120_CmpUnspecifiedParamC1B8ue170006EMS0_i, symObjAddr: 0x1066C, symBinAddr: 0x10001511C, symSize: 0x34 }
  - { offsetInCU: 0x421F2, offset: 0x59646, size: 0x8, addend: 0x0, symName: __ZNSt3__120_CmpUnspecifiedParamC2B8ue170006EMS0_i, symObjAddr: 0x1071C, symBinAddr: 0x1000151CC, symSize: 0x18 }
  - { offsetInCU: 0x42227, offset: 0x5967B, size: 0x8, addend: 0x0, symName: __ZNSt3__116allocator_traitsINS_9allocatorINS_11__tree_nodeINS_12__value_typeINS_12basic_stringIcNS_11char_traitsIcEENS1_IcEEEENS_4listIS8_NS1_IS8_EEEEEEPvEEEEE8allocateB8ue170006ERSF_m, symObjAddr: 0x1076C, symBinAddr: 0x10001521C, symSize: 0x2C }
  - { offsetInCU: 0x4225A, offset: 0x596AE, size: 0x8, addend: 0x0, symName: __ZNSt3__122__tree_node_destructorINS_9allocatorINS_11__tree_nodeINS_12__value_typeINS_12basic_stringIcNS_11char_traitsIcEENS1_IcEEEENS_4listIS8_NS1_IS8_EEEEEEPvEEEEEC1B8ue170006ERSF_b, symObjAddr: 0x10798, symBinAddr: 0x100015248, symSize: 0x48 }
  - { offsetInCU: 0x422A7, offset: 0x596FB, size: 0x8, addend: 0x0, symName: __ZNSt3__110unique_ptrINS_11__tree_nodeINS_12__value_typeINS_12basic_stringIcNS_11char_traitsIcEENS_9allocatorIcEEEENS_4listIS8_NS6_IS8_EEEEEEPvEENS_22__tree_node_destructorINS6_ISE_EEEEEC1B8ue170006ILb1EvEEPSE_NS_16__dependent_typeINS_27__unique_ptr_deleter_sfinaeISH_EEXT_EE20__good_rval_ref_typeE, symObjAddr: 0x107E0, symBinAddr: 0x100015290, symSize: 0x3C }
  - { offsetInCU: 0x422F8, offset: 0x5974C, size: 0x8, addend: 0x0, symName: __ZNSt3__116allocator_traitsINS_9allocatorINS_11__tree_nodeINS_12__value_typeINS_12basic_stringIcNS_11char_traitsIcEENS1_IcEEEENS_4listIS8_NS1_IS8_EEEEEEPvEEEEE9constructB8ue170006INS_4pairIKS8_SB_EEJSK_EvvEEvRSF_PT_DpOT0_, symObjAddr: 0x1081C, symBinAddr: 0x1000152CC, symSize: 0x30 }
  - { offsetInCU: 0x4234D, offset: 0x597A1, size: 0x8, addend: 0x0, symName: __ZNKSt3__110unique_ptrINS_11__tree_nodeINS_12__value_typeINS_12basic_stringIcNS_11char_traitsIcEENS_9allocatorIcEEEENS_4listIS8_NS6_IS8_EEEEEEPvEENS_22__tree_node_destructorINS6_ISE_EEEEEptB8ue170006Ev, symObjAddr: 0x1084C, symBinAddr: 0x1000152FC, symSize: 0x28 }
  - { offsetInCU: 0x42373, offset: 0x597C7, size: 0x8, addend: 0x0, symName: __ZNSt3__110unique_ptrINS_11__tree_nodeINS_12__value_typeINS_12basic_stringIcNS_11char_traitsIcEENS_9allocatorIcEEEENS_4listIS8_NS6_IS8_EEEEEEPvEENS_22__tree_node_destructorINS6_ISE_EEEEE11get_deleterB8ue170006Ev, symObjAddr: 0x10874, symBinAddr: 0x100015324, symSize: 0x24 }
  - { offsetInCU: 0x42399, offset: 0x597ED, size: 0x8, addend: 0x0, symName: __ZNSt3__19allocatorINS_11__tree_nodeINS_12__value_typeINS_12basic_stringIcNS_11char_traitsIcEENS0_IcEEEENS_4listIS7_NS0_IS7_EEEEEEPvEEE8allocateB8ue170006Em, symObjAddr: 0x10898, symBinAddr: 0x100015348, symSize: 0x5C }
  - { offsetInCU: 0x423D7, offset: 0x5982B, size: 0x8, addend: 0x0, symName: __ZNSt3__116allocator_traitsINS_9allocatorINS_11__tree_nodeINS_12__value_typeINS_12basic_stringIcNS_11char_traitsIcEENS1_IcEEEENS_4listIS8_NS1_IS8_EEEEEEPvEEEEE8max_sizeB8ue170006ISF_vvEEmRKSF_, symObjAddr: 0x108F4, symBinAddr: 0x1000153A4, symSize: 0x28 }
  - { offsetInCU: 0x42403, offset: 0x59857, size: 0x8, addend: 0x0, symName: __ZNSt3__122__tree_node_destructorINS_9allocatorINS_11__tree_nodeINS_12__value_typeINS_12basic_stringIcNS_11char_traitsIcEENS1_IcEEEENS_4listIS8_NS1_IS8_EEEEEEPvEEEEEC2B8ue170006ERSF_b, symObjAddr: 0x1091C, symBinAddr: 0x1000153CC, symSize: 0x38 }
  - { offsetInCU: 0x4244B, offset: 0x5989F, size: 0x8, addend: 0x0, symName: __ZNSt3__110unique_ptrINS_11__tree_nodeINS_12__value_typeINS_12basic_stringIcNS_11char_traitsIcEENS_9allocatorIcEEEENS_4listIS8_NS6_IS8_EEEEEEPvEENS_22__tree_node_destructorINS6_ISE_EEEEEC2B8ue170006ILb1EvEEPSE_NS_16__dependent_typeINS_27__unique_ptr_deleter_sfinaeISH_EEXT_EE20__good_rval_ref_typeE, symObjAddr: 0x10954, symBinAddr: 0x100015404, symSize: 0x48 }
  - { offsetInCU: 0x4249C, offset: 0x598F0, size: 0x8, addend: 0x0, symName: __ZNSt3__117__compressed_pairIPNS_11__tree_nodeINS_12__value_typeINS_12basic_stringIcNS_11char_traitsIcEENS_9allocatorIcEEEENS_4listIS8_NS6_IS8_EEEEEEPvEENS_22__tree_node_destructorINS6_ISE_EEEEEC1B8ue170006IRSF_SI_EEOT_OT0_, symObjAddr: 0x1099C, symBinAddr: 0x10001544C, symSize: 0x3C }
  - { offsetInCU: 0x424F4, offset: 0x59948, size: 0x8, addend: 0x0, symName: __ZNSt3__117__compressed_pairIPNS_11__tree_nodeINS_12__value_typeINS_12basic_stringIcNS_11char_traitsIcEENS_9allocatorIcEEEENS_4listIS8_NS6_IS8_EEEEEEPvEENS_22__tree_node_destructorINS6_ISE_EEEEEC2B8ue170006IRSF_SI_EEOT_OT0_, symObjAddr: 0x109D8, symBinAddr: 0x100015488, symSize: 0x48 }
  - { offsetInCU: 0x4254C, offset: 0x599A0, size: 0x8, addend: 0x0, symName: __ZNSt3__122__compressed_pair_elemIPNS_11__tree_nodeINS_12__value_typeINS_12basic_stringIcNS_11char_traitsIcEENS_9allocatorIcEEEENS_4listIS8_NS6_IS8_EEEEEEPvEELi0ELb0EEC2B8ue170006IRSF_vEEOT_, symObjAddr: 0x10A20, symBinAddr: 0x1000154D0, symSize: 0x24 }
  - { offsetInCU: 0x4258E, offset: 0x599E2, size: 0x8, addend: 0x0, symName: __ZNSt3__122__compressed_pair_elemINS_22__tree_node_destructorINS_9allocatorINS_11__tree_nodeINS_12__value_typeINS_12basic_stringIcNS_11char_traitsIcEENS2_IcEEEENS_4listIS9_NS2_IS9_EEEEEEPvEEEEEELi1ELb0EEC2B8ue170006ISH_vEEOT_, symObjAddr: 0x10A44, symBinAddr: 0x1000154F4, symSize: 0x24 }
  - { offsetInCU: 0x425D0, offset: 0x59A24, size: 0x8, addend: 0x0, symName: __ZNSt3__14pairIKNS_12basic_stringIcNS_11char_traitsIcEENS_9allocatorIcEEEENS_4listIS6_NS4_IS6_EEEEEC1B8ue170006EOSB_, symObjAddr: 0x10AA4, symBinAddr: 0x100015554, symSize: 0x34 }
  - { offsetInCU: 0x42605, offset: 0x59A59, size: 0x8, addend: 0x0, symName: __ZNSt3__14pairIKNS_12basic_stringIcNS_11char_traitsIcEENS_9allocatorIcEEEENS_4listIS6_NS4_IS6_EEEEEC2B8ue170006EOSB_, symObjAddr: 0x10AD8, symBinAddr: 0x100015588, symSize: 0x48 }
  - { offsetInCU: 0x4263A, offset: 0x59A8E, size: 0x8, addend: 0x0, symName: __ZNKSt3__117__compressed_pairIPNS_11__tree_nodeINS_12__value_typeINS_12basic_stringIcNS_11char_traitsIcEENS_9allocatorIcEEEENS_4listIS8_NS6_IS8_EEEEEEPvEENS_22__tree_node_destructorINS6_ISE_EEEEE5firstB8ue170006Ev, symObjAddr: 0x10B20, symBinAddr: 0x1000155D0, symSize: 0x24 }
  - { offsetInCU: 0x42660, offset: 0x59AB4, size: 0x8, addend: 0x0, symName: __ZNKSt3__122__compressed_pair_elemIPNS_11__tree_nodeINS_12__value_typeINS_12basic_stringIcNS_11char_traitsIcEENS_9allocatorIcEEEENS_4listIS8_NS6_IS8_EEEEEEPvEELi0ELb0EE5__getB8ue170006Ev, symObjAddr: 0x10B44, symBinAddr: 0x1000155F4, symSize: 0x14 }
  - { offsetInCU: 0x42686, offset: 0x59ADA, size: 0x8, addend: 0x0, symName: __ZNSt3__117__compressed_pairIPNS_11__tree_nodeINS_12__value_typeINS_12basic_stringIcNS_11char_traitsIcEENS_9allocatorIcEEEENS_4listIS8_NS6_IS8_EEEEEEPvEENS_22__tree_node_destructorINS6_ISE_EEEEE6secondB8ue170006Ev, symObjAddr: 0x10B58, symBinAddr: 0x100015608, symSize: 0x28 }
  - { offsetInCU: 0x426AC, offset: 0x59B00, size: 0x8, addend: 0x0, symName: __ZNSt3__122__compressed_pair_elemINS_22__tree_node_destructorINS_9allocatorINS_11__tree_nodeINS_12__value_typeINS_12basic_stringIcNS_11char_traitsIcEENS2_IcEEEENS_4listIS9_NS2_IS9_EEEEEEPvEEEEEELi1ELb0EE5__getB8ue170006Ev, symObjAddr: 0x10B80, symBinAddr: 0x100015630, symSize: 0x14 }
  - { offsetInCU: 0x426D2, offset: 0x59B26, size: 0x8, addend: 0x0, symName: __ZNSt3__16__treeINS_12__value_typeINS_12basic_stringIcNS_11char_traitsIcEENS_9allocatorIcEEEENS_4listIS7_NS5_IS7_EEEEEENS_19__map_value_compareIS7_SB_NS_4lessIS7_EELb1EEENS5_ISB_EEE4sizeB8ue170006Ev, symObjAddr: 0x10E10, symBinAddr: 0x1000158C0, symSize: 0x28 }
  - { offsetInCU: 0x426F8, offset: 0x59B4C, size: 0x8, addend: 0x0, symName: __ZNSt3__116__tree_node_baseIPvE12__set_parentB8ue170006EPS2_, symObjAddr: 0x10FDC, symBinAddr: 0x100015A8C, symSize: 0x20 }
  - { offsetInCU: 0x4272D, offset: 0x59B81, size: 0x8, addend: 0x0, symName: __ZNSt3__117__compressed_pairImNS_19__map_value_compareINS_12basic_stringIcNS_11char_traitsIcEENS_9allocatorIcEEEENS_12__value_typeIS7_NS_4listIS7_NS5_IS7_EEEEEENS_4lessIS7_EELb1EEEE5firstB8ue170006Ev, symObjAddr: 0x10FFC, symBinAddr: 0x100015AAC, symSize: 0x24 }
  - { offsetInCU: 0x42753, offset: 0x59BA7, size: 0x8, addend: 0x0, symName: __ZNSt3__117__compressed_pairIPNS_11__tree_nodeINS_12__value_typeINS_12basic_stringIcNS_11char_traitsIcEENS_9allocatorIcEEEENS_4listIS8_NS6_IS8_EEEEEEPvEENS_22__tree_node_destructorINS6_ISE_EEEEE5firstB8ue170006Ev, symObjAddr: 0x11020, symBinAddr: 0x100015AD0, symSize: 0x24 }
  - { offsetInCU: 0x42779, offset: 0x59BCD, size: 0x8, addend: 0x0, symName: __ZNSt3__122__compressed_pair_elemIPNS_11__tree_nodeINS_12__value_typeINS_12basic_stringIcNS_11char_traitsIcEENS_9allocatorIcEEEENS_4listIS8_NS6_IS8_EEEEEEPvEELi0ELb0EE5__getB8ue170006Ev, symObjAddr: 0x11044, symBinAddr: 0x100015AF4, symSize: 0x14 }
  - { offsetInCU: 0x4279F, offset: 0x59BF3, size: 0x8, addend: 0x0, symName: __ZNSt3__110unique_ptrINS_11__tree_nodeINS_12__value_typeINS_12basic_stringIcNS_11char_traitsIcEENS_9allocatorIcEEEENS_4listIS8_NS6_IS8_EEEEEEPvEENS_22__tree_node_destructorINS6_ISE_EEEEED2B8ue170006Ev, symObjAddr: 0x11058, symBinAddr: 0x100015B08, symSize: 0x30 }
  - { offsetInCU: 0x427C9, offset: 0x59C1D, size: 0x8, addend: 0x0, symName: __ZNSt3__110unique_ptrINS_11__tree_nodeINS_12__value_typeINS_12basic_stringIcNS_11char_traitsIcEENS_9allocatorIcEEEENS_4listIS8_NS6_IS8_EEEEEEPvEENS_22__tree_node_destructorINS6_ISE_EEEEE5resetB8ue170006EPSE_, symObjAddr: 0x11088, symBinAddr: 0x100015B38, symSize: 0x78 }
  - { offsetInCU: 0x4280D, offset: 0x59C61, size: 0x8, addend: 0x0, symName: __ZNSt3__122__tree_node_destructorINS_9allocatorINS_11__tree_nodeINS_12__value_typeINS_12basic_stringIcNS_11char_traitsIcEENS1_IcEEEENS_4listIS8_NS1_IS8_EEEEEEPvEEEEEclB8ue170006EPSE_, symObjAddr: 0x11100, symBinAddr: 0x100015BB0, symSize: 0x98 }
  - { offsetInCU: 0x42842, offset: 0x59C96, size: 0x8, addend: 0x0, symName: __ZNSt3__115__tree_iteratorINS_12__value_typeINS_12basic_stringIcNS_11char_traitsIcEENS_9allocatorIcEEEENS_4listIS7_NS5_IS7_EEEEEEPNS_11__tree_nodeISB_PvEElEC2B8ue170006ESF_, symObjAddr: 0x11198, symBinAddr: 0x100015C48, symSize: 0x20 }
  - { offsetInCU: 0x4287B, offset: 0x59CCF, size: 0x8, addend: 0x0, symName: __ZNSt3__14pairINS_15__tree_iteratorINS_12__value_typeINS_12basic_stringIcNS_11char_traitsIcEENS_9allocatorIcEEEENS_4listIS8_NS6_IS8_EEEEEEPNS_11__tree_nodeISC_PvEElEEbEC2B8ue170006ISH_RbLSE_0EEEOT_OT0_, symObjAddr: 0x111B8, symBinAddr: 0x100015C68, symSize: 0x38 }
  - { offsetInCU: 0x428DA, offset: 0x59D2E, size: 0x8, addend: 0x0, symName: __ZNSt3__14pairINS_14__map_iteratorINS_15__tree_iteratorINS_12__value_typeINS_12basic_stringIcNS_11char_traitsIcEENS_9allocatorIcEEEENS_4listIS9_NS7_IS9_EEEEEEPNS_11__tree_nodeISD_PvEElEEEEbEC2B8ue170006ISI_bLSF_0EEEONS0_IT_T0_EE, symObjAddr: 0x111F0, symBinAddr: 0x100015CA0, symSize: 0x50 }
  - { offsetInCU: 0x4292C, offset: 0x59D80, size: 0x8, addend: 0x0, symName: __ZNSt3__114__map_iteratorINS_15__tree_iteratorINS_12__value_typeINS_12basic_stringIcNS_11char_traitsIcEENS_9allocatorIcEEEENS_4listIS8_NS6_IS8_EEEEEEPNS_11__tree_nodeISC_PvEElEEEC1B8ue170006ESH_, symObjAddr: 0x11240, symBinAddr: 0x100015CF0, symSize: 0x34 }
  - { offsetInCU: 0x42965, offset: 0x59DB9, size: 0x8, addend: 0x0, symName: __ZNSt3__114__map_iteratorINS_15__tree_iteratorINS_12__value_typeINS_12basic_stringIcNS_11char_traitsIcEENS_9allocatorIcEEEENS_4listIS8_NS6_IS8_EEEEEEPNS_11__tree_nodeISC_PvEElEEEC2B8ue170006ESH_, symObjAddr: 0x11274, symBinAddr: 0x100015D24, symSize: 0x20 }
  - { offsetInCU: 0x4299E, offset: 0x59DF2, size: 0x8, addend: 0x0, symName: __ZNSt3__13setINS_4pairINS_12basic_stringIcNS_11char_traitsIcEENS_9allocatorIcEEEES7_EENS_4lessIS8_EENS5_IS8_EEEC2B8ue170006Ev, symObjAddr: 0x11294, symBinAddr: 0x100015D44, symSize: 0x30 }
  - { offsetInCU: 0x429C8, offset: 0x59E1C, size: 0x8, addend: 0x0, symName: __ZNSt3__16__treeINS_4pairINS_12basic_stringIcNS_11char_traitsIcEENS_9allocatorIcEEEES7_EENS_4lessIS8_EENS5_IS8_EEEC1ERKSA_, symObjAddr: 0x112C4, symBinAddr: 0x100015D74, symSize: 0x34 }
  - { offsetInCU: 0x42A03, offset: 0x59E57, size: 0x8, addend: 0x0, symName: __ZNSt3__16__treeINS_4pairINS_12basic_stringIcNS_11char_traitsIcEENS_9allocatorIcEEEES7_EENS_4lessIS8_EENS5_IS8_EEEC2ERKSA_, symObjAddr: 0x112F8, symBinAddr: 0x100015DA8, symSize: 0x7C }
  - { offsetInCU: 0x42A3E, offset: 0x59E92, size: 0x8, addend: 0x0, symName: __ZNSt3__117__compressed_pairINS_15__tree_end_nodeIPNS_16__tree_node_baseIPvEEEENS_9allocatorINS_11__tree_nodeINS_4pairINS_12basic_stringIcNS_11char_traitsIcEENS7_IcEEEESE_EES3_EEEEEC1B8ue170006ILb1EvEEv, symObjAddr: 0x11374, symBinAddr: 0x100015E24, symSize: 0x2C }
  - { offsetInCU: 0x42A73, offset: 0x59EC7, size: 0x8, addend: 0x0, symName: __ZNSt3__117__compressed_pairImNS_4lessINS_4pairINS_12basic_stringIcNS_11char_traitsIcEENS_9allocatorIcEEEES8_EEEEEC1B8ue170006IiRKSA_EEOT_OT0_, symObjAddr: 0x113A0, symBinAddr: 0x100015E50, symSize: 0x3C }
  - { offsetInCU: 0x42ACB, offset: 0x59F1F, size: 0x8, addend: 0x0, symName: __ZNSt3__117__compressed_pairINS_15__tree_end_nodeIPNS_16__tree_node_baseIPvEEEENS_9allocatorINS_11__tree_nodeINS_4pairINS_12basic_stringIcNS_11char_traitsIcEENS7_IcEEEESE_EES3_EEEEEC2B8ue170006ILb1EvEEv, symObjAddr: 0x113DC, symBinAddr: 0x100015E8C, symSize: 0x34 }
  - { offsetInCU: 0x42B00, offset: 0x59F54, size: 0x8, addend: 0x0, symName: __ZNSt3__122__compressed_pair_elemINS_9allocatorINS_11__tree_nodeINS_4pairINS_12basic_stringIcNS_11char_traitsIcEENS1_IcEEEES8_EEPvEEEELi1ELb1EEC2B8ue170006ENS_16__value_init_tagE, symObjAddr: 0x11410, symBinAddr: 0x100015EC0, symSize: 0x2C }
  - { offsetInCU: 0x42B35, offset: 0x59F89, size: 0x8, addend: 0x0, symName: __ZNSt3__19allocatorINS_11__tree_nodeINS_4pairINS_12basic_stringIcNS_11char_traitsIcEENS0_IcEEEES7_EEPvEEEC2B8ue170006Ev, symObjAddr: 0x1143C, symBinAddr: 0x100015EEC, symSize: 0x2C }
  - { offsetInCU: 0x42B5F, offset: 0x59FB3, size: 0x8, addend: 0x0, symName: __ZNSt3__116__non_trivial_ifILb1ENS_9allocatorINS_11__tree_nodeINS_4pairINS_12basic_stringIcNS_11char_traitsIcEENS1_IcEEEES8_EEPvEEEEEC2B8ue170006Ev, symObjAddr: 0x11468, symBinAddr: 0x100015F18, symSize: 0x14 }
  - { offsetInCU: 0x42B89, offset: 0x59FDD, size: 0x8, addend: 0x0, symName: __ZNSt3__117__compressed_pairImNS_4lessINS_4pairINS_12basic_stringIcNS_11char_traitsIcEENS_9allocatorIcEEEES8_EEEEEC2B8ue170006IiRKSA_EEOT_OT0_, symObjAddr: 0x1147C, symBinAddr: 0x100015F2C, symSize: 0x44 }
  - { offsetInCU: 0x42BE1, offset: 0x5A035, size: 0x8, addend: 0x0, symName: __ZNSt3__122__compressed_pair_elemINS_4lessINS_4pairINS_12basic_stringIcNS_11char_traitsIcEENS_9allocatorIcEEEES8_EEEELi1ELb1EEC2B8ue170006IRKSA_vEEOT_, symObjAddr: 0x114C0, symBinAddr: 0x100015F70, symSize: 0x18 }
  - { offsetInCU: 0x42C23, offset: 0x5A077, size: 0x8, addend: 0x0, symName: __ZNSt3__16__treeINS_12__value_typeINS_12basic_stringIcNS_11char_traitsIcEENS_9allocatorIcEEEENS_3setINS_4pairIS7_S7_EENS_4lessISA_EENS5_ISA_EEEEEENS_19__map_value_compareIS7_SF_NSB_IS7_EELb1EEENS5_ISF_EEE15__insert_uniqueB8ue170006EONS9_IKS7_SE_EE, symObjAddr: 0x117E8, symBinAddr: 0x100015F88, symSize: 0x50 }
  - { offsetInCU: 0x42C58, offset: 0x5A0AC, size: 0x8, addend: 0x0, symName: __ZNSt3__14pairINS_14__map_iteratorINS_15__tree_iteratorINS_12__value_typeINS_12basic_stringIcNS_11char_traitsIcEENS_9allocatorIcEEEENS_3setINS0_IS9_S9_EENS_4lessISB_EENS7_ISB_EEEEEEPNS_11__tree_nodeISG_PvEElEEEEbEC1B8ue170006ISL_bLSI_0EEEONS0_IT_T0_EE, symObjAddr: 0x11838, symBinAddr: 0x100015FD8, symSize: 0x34 }
  - { offsetInCU: 0x42CAA, offset: 0x5A0FE, size: 0x8, addend: 0x0, symName: __ZNSt3__16__treeINS_12__value_typeINS_12basic_stringIcNS_11char_traitsIcEENS_9allocatorIcEEEENS_3setINS_4pairIS7_S7_EENS_4lessISA_EENS5_ISA_EEEEEENS_19__map_value_compareIS7_SF_NSB_IS7_EELb1EEENS5_ISF_EEE25__emplace_unique_key_argsIS7_JNS9_IKS7_SE_EEEEENS9_INS_15__tree_iteratorISF_PNS_11__tree_nodeISF_PvEElEEbEERKT_DpOT0_, symObjAddr: 0x1186C, symBinAddr: 0x10001600C, symSize: 0xF0 }
  - { offsetInCU: 0x42D56, offset: 0x5A1AA, size: 0x8, addend: 0x0, symName: __ZNSt3__122__tree_key_value_typesINS_12__value_typeINS_12basic_stringIcNS_11char_traitsIcEENS_9allocatorIcEEEENS_3setINS_4pairIS7_S7_EENS_4lessISA_EENS5_ISA_EEEEEEE9__get_keyB8ue170006INS9_IKS7_SE_EEEENS_9enable_ifIXsr17__is_same_uncvrefIT_SJ_EE5valueERSI_E4typeERSL_, symObjAddr: 0x1195C, symBinAddr: 0x1000160FC, symSize: 0x14 }
  - { offsetInCU: 0x42D83, offset: 0x5A1D7, size: 0x8, addend: 0x0, symName: __ZNSt3__16__treeINS_12__value_typeINS_12basic_stringIcNS_11char_traitsIcEENS_9allocatorIcEEEENS_3setINS_4pairIS7_S7_EENS_4lessISA_EENS5_ISA_EEEEEENS_19__map_value_compareIS7_SF_NSB_IS7_EELb1EEENS5_ISF_EEE12__find_equalIS7_EERPNS_16__tree_node_baseIPvEERPNS_15__tree_end_nodeISP_EERKT_, symObjAddr: 0x11970, symBinAddr: 0x100016110, symSize: 0x184 }
  - { offsetInCU: 0x42DF0, offset: 0x5A244, size: 0x8, addend: 0x0, symName: __ZNSt3__16__treeINS_12__value_typeINS_12basic_stringIcNS_11char_traitsIcEENS_9allocatorIcEEEENS_3setINS_4pairIS7_S7_EENS_4lessISA_EENS5_ISA_EEEEEENS_19__map_value_compareIS7_SF_NSB_IS7_EELb1EEENS5_ISF_EEE16__construct_nodeIJNS9_IKS7_SE_EEEEENS_10unique_ptrINS_11__tree_nodeISF_PvEENS_22__tree_node_destructorINS5_ISR_EEEEEEDpOT_, symObjAddr: 0x11AF4, symBinAddr: 0x100016294, symSize: 0x110 }
  - { offsetInCU: 0x42E51, offset: 0x5A2A5, size: 0x8, addend: 0x0, symName: __ZNSt3__16__treeINS_12__value_typeINS_12basic_stringIcNS_11char_traitsIcEENS_9allocatorIcEEEENS_3setINS_4pairIS7_S7_EENS_4lessISA_EENS5_ISA_EEEEEENS_19__map_value_compareIS7_SF_NSB_IS7_EELb1EEENS5_ISF_EEE16__insert_node_atEPNS_15__tree_end_nodeIPNS_16__tree_node_baseIPvEEEERSP_SP_, symObjAddr: 0x11C04, symBinAddr: 0x1000163A4, symSize: 0xCC }
  - { offsetInCU: 0x42EA6, offset: 0x5A2FA, size: 0x8, addend: 0x0, symName: __ZNKSt3__110unique_ptrINS_11__tree_nodeINS_12__value_typeINS_12basic_stringIcNS_11char_traitsIcEENS_9allocatorIcEEEENS_3setINS_4pairIS8_S8_EENS_4lessISB_EENS6_ISB_EEEEEEPvEENS_22__tree_node_destructorINS6_ISI_EEEEE3getB8ue170006Ev, symObjAddr: 0x11CD0, symBinAddr: 0x100016470, symSize: 0x28 }
  - { offsetInCU: 0x42ECC, offset: 0x5A320, size: 0x8, addend: 0x0, symName: __ZNSt3__110unique_ptrINS_11__tree_nodeINS_12__value_typeINS_12basic_stringIcNS_11char_traitsIcEENS_9allocatorIcEEEENS_3setINS_4pairIS8_S8_EENS_4lessISB_EENS6_ISB_EEEEEEPvEENS_22__tree_node_destructorINS6_ISI_EEEEE7releaseB8ue170006Ev, symObjAddr: 0x11CF8, symBinAddr: 0x100016498, symSize: 0x44 }
  - { offsetInCU: 0x42F01, offset: 0x5A355, size: 0x8, addend: 0x0, symName: __ZNSt3__110unique_ptrINS_11__tree_nodeINS_12__value_typeINS_12basic_stringIcNS_11char_traitsIcEENS_9allocatorIcEEEENS_3setINS_4pairIS8_S8_EENS_4lessISB_EENS6_ISB_EEEEEEPvEENS_22__tree_node_destructorINS6_ISI_EEEEED1B8ue170006Ev, symObjAddr: 0x11D3C, symBinAddr: 0x1000164DC, symSize: 0x2C }
  - { offsetInCU: 0x42F2B, offset: 0x5A37F, size: 0x8, addend: 0x0, symName: __ZNSt3__115__tree_iteratorINS_12__value_typeINS_12basic_stringIcNS_11char_traitsIcEENS_9allocatorIcEEEENS_3setINS_4pairIS7_S7_EENS_4lessISA_EENS5_ISA_EEEEEEPNS_11__tree_nodeISF_PvEElEC1B8ue170006ESJ_, symObjAddr: 0x11D68, symBinAddr: 0x100016508, symSize: 0x34 }
  - { offsetInCU: 0x42F69, offset: 0x5A3BD, size: 0x8, addend: 0x0, symName: __ZNSt3__14pairINS_15__tree_iteratorINS_12__value_typeINS_12basic_stringIcNS_11char_traitsIcEENS_9allocatorIcEEEENS_3setINS0_IS8_S8_EENS_4lessISA_EENS6_ISA_EEEEEEPNS_11__tree_nodeISF_PvEElEEbEC1B8ue170006ISK_RbLSH_0EEEOT_OT0_, symObjAddr: 0x11D9C, symBinAddr: 0x10001653C, symSize: 0x3C }
  - { offsetInCU: 0x42FC8, offset: 0x5A41C, size: 0x8, addend: 0x0, symName: __ZNKSt3__16__treeINS_12__value_typeINS_12basic_stringIcNS_11char_traitsIcEENS_9allocatorIcEEEENS_3setINS_4pairIS7_S7_EENS_4lessISA_EENS5_ISA_EEEEEENS_19__map_value_compareIS7_SF_NSB_IS7_EELb1EEENS5_ISF_EEE10__root_ptrB8ue170006Ev, symObjAddr: 0x11DD8, symBinAddr: 0x100016578, symSize: 0x24 }
  - { offsetInCU: 0x42FEE, offset: 0x5A442, size: 0x8, addend: 0x0, symName: __ZNSt3__16__treeINS_12__value_typeINS_12basic_stringIcNS_11char_traitsIcEENS_9allocatorIcEEEENS_3setINS_4pairIS7_S7_EENS_4lessISA_EENS5_ISA_EEEEEENS_19__map_value_compareIS7_SF_NSB_IS7_EELb1EEENS5_ISF_EEE10value_compB8ue170006Ev, symObjAddr: 0x11DFC, symBinAddr: 0x10001659C, symSize: 0x28 }
  - { offsetInCU: 0x43014, offset: 0x5A468, size: 0x8, addend: 0x0, symName: __ZNKSt3__119__map_value_compareINS_12basic_stringIcNS_11char_traitsIcEENS_9allocatorIcEEEENS_12__value_typeIS6_NS_3setINS_4pairIS6_S6_EENS_4lessISA_EENS4_ISA_EEEEEENSB_IS6_EELb1EEclB8ue170006ERKS6_RKSF_, symObjAddr: 0x11E24, symBinAddr: 0x1000165C4, symSize: 0x50 }
  - { offsetInCU: 0x43058, offset: 0x5A4AC, size: 0x8, addend: 0x0, symName: __ZNKSt3__119__map_value_compareINS_12basic_stringIcNS_11char_traitsIcEENS_9allocatorIcEEEENS_12__value_typeIS6_NS_3setINS_4pairIS6_S6_EENS_4lessISA_EENS4_ISA_EEEEEENSB_IS6_EELb1EEclB8ue170006ERKSF_RKS6_, symObjAddr: 0x11E74, symBinAddr: 0x100016614, symSize: 0x48 }
  - { offsetInCU: 0x4309C, offset: 0x5A4F0, size: 0x8, addend: 0x0, symName: __ZNSt3__117__compressed_pairImNS_19__map_value_compareINS_12basic_stringIcNS_11char_traitsIcEENS_9allocatorIcEEEENS_12__value_typeIS7_NS_3setINS_4pairIS7_S7_EENS_4lessISB_EENS5_ISB_EEEEEENSC_IS7_EELb1EEEE6secondB8ue170006Ev, symObjAddr: 0x11EBC, symBinAddr: 0x10001665C, symSize: 0x24 }
  - { offsetInCU: 0x430C2, offset: 0x5A516, size: 0x8, addend: 0x0, symName: __ZNSt3__122__compressed_pair_elemINS_19__map_value_compareINS_12basic_stringIcNS_11char_traitsIcEENS_9allocatorIcEEEENS_12__value_typeIS7_NS_3setINS_4pairIS7_S7_EENS_4lessISB_EENS5_ISB_EEEEEENSC_IS7_EELb1EEELi1ELb1EE5__getB8ue170006Ev, symObjAddr: 0x11EE0, symBinAddr: 0x100016680, symSize: 0x14 }
  - { offsetInCU: 0x430E8, offset: 0x5A53C, size: 0x8, addend: 0x0, symName: __ZNKSt3__112__value_typeINS_12basic_stringIcNS_11char_traitsIcEENS_9allocatorIcEEEENS_3setINS_4pairIS6_S6_EENS_4lessIS9_EENS4_IS9_EEEEE11__get_valueB8ue170006Ev, symObjAddr: 0x11EF4, symBinAddr: 0x100016694, symSize: 0x24 }
  - { offsetInCU: 0x4310E, offset: 0x5A562, size: 0x8, addend: 0x0, symName: __ZNSt3__116allocator_traitsINS_9allocatorINS_11__tree_nodeINS_12__value_typeINS_12basic_stringIcNS_11char_traitsIcEENS1_IcEEEENS_3setINS_4pairIS8_S8_EENS_4lessISB_EENS1_ISB_EEEEEEPvEEEEE8allocateB8ue170006ERSJ_m, symObjAddr: 0x11F50, symBinAddr: 0x1000166F0, symSize: 0x2C }
  - { offsetInCU: 0x43141, offset: 0x5A595, size: 0x8, addend: 0x0, symName: __ZNSt3__122__tree_node_destructorINS_9allocatorINS_11__tree_nodeINS_12__value_typeINS_12basic_stringIcNS_11char_traitsIcEENS1_IcEEEENS_3setINS_4pairIS8_S8_EENS_4lessISB_EENS1_ISB_EEEEEEPvEEEEEC1B8ue170006ERSJ_b, symObjAddr: 0x11F7C, symBinAddr: 0x10001671C, symSize: 0x48 }
  - { offsetInCU: 0x4318E, offset: 0x5A5E2, size: 0x8, addend: 0x0, symName: __ZNSt3__110unique_ptrINS_11__tree_nodeINS_12__value_typeINS_12basic_stringIcNS_11char_traitsIcEENS_9allocatorIcEEEENS_3setINS_4pairIS8_S8_EENS_4lessISB_EENS6_ISB_EEEEEEPvEENS_22__tree_node_destructorINS6_ISI_EEEEEC1B8ue170006ILb1EvEEPSI_NS_16__dependent_typeINS_27__unique_ptr_deleter_sfinaeISL_EEXT_EE20__good_rval_ref_typeE, symObjAddr: 0x11FC4, symBinAddr: 0x100016764, symSize: 0x3C }
  - { offsetInCU: 0x431DF, offset: 0x5A633, size: 0x8, addend: 0x0, symName: __ZNSt3__116allocator_traitsINS_9allocatorINS_11__tree_nodeINS_12__value_typeINS_12basic_stringIcNS_11char_traitsIcEENS1_IcEEEENS_3setINS_4pairIS8_S8_EENS_4lessISB_EENS1_ISB_EEEEEEPvEEEEE9constructB8ue170006INSA_IKS8_SF_EEJSN_EvvEEvRSJ_PT_DpOT0_, symObjAddr: 0x12000, symBinAddr: 0x1000167A0, symSize: 0x30 }
  - { offsetInCU: 0x43234, offset: 0x5A688, size: 0x8, addend: 0x0, symName: __ZNKSt3__110unique_ptrINS_11__tree_nodeINS_12__value_typeINS_12basic_stringIcNS_11char_traitsIcEENS_9allocatorIcEEEENS_3setINS_4pairIS8_S8_EENS_4lessISB_EENS6_ISB_EEEEEEPvEENS_22__tree_node_destructorINS6_ISI_EEEEEptB8ue170006Ev, symObjAddr: 0x12030, symBinAddr: 0x1000167D0, symSize: 0x28 }
  - { offsetInCU: 0x4325A, offset: 0x5A6AE, size: 0x8, addend: 0x0, symName: __ZNSt3__110unique_ptrINS_11__tree_nodeINS_12__value_typeINS_12basic_stringIcNS_11char_traitsIcEENS_9allocatorIcEEEENS_3setINS_4pairIS8_S8_EENS_4lessISB_EENS6_ISB_EEEEEEPvEENS_22__tree_node_destructorINS6_ISI_EEEEE11get_deleterB8ue170006Ev, symObjAddr: 0x12058, symBinAddr: 0x1000167F8, symSize: 0x24 }
  - { offsetInCU: 0x43280, offset: 0x5A6D4, size: 0x8, addend: 0x0, symName: __ZNSt3__19allocatorINS_11__tree_nodeINS_12__value_typeINS_12basic_stringIcNS_11char_traitsIcEENS0_IcEEEENS_3setINS_4pairIS7_S7_EENS_4lessISA_EENS0_ISA_EEEEEEPvEEE8allocateB8ue170006Em, symObjAddr: 0x1207C, symBinAddr: 0x10001681C, symSize: 0x5C }
  - { offsetInCU: 0x432BE, offset: 0x5A712, size: 0x8, addend: 0x0, symName: __ZNSt3__116allocator_traitsINS_9allocatorINS_11__tree_nodeINS_12__value_typeINS_12basic_stringIcNS_11char_traitsIcEENS1_IcEEEENS_3setINS_4pairIS8_S8_EENS_4lessISB_EENS1_ISB_EEEEEEPvEEEEE8max_sizeB8ue170006ISJ_vvEEmRKSJ_, symObjAddr: 0x120D8, symBinAddr: 0x100016878, symSize: 0x28 }
  - { offsetInCU: 0x432EA, offset: 0x5A73E, size: 0x8, addend: 0x0, symName: __ZNSt3__122__tree_node_destructorINS_9allocatorINS_11__tree_nodeINS_12__value_typeINS_12basic_stringIcNS_11char_traitsIcEENS1_IcEEEENS_3setINS_4pairIS8_S8_EENS_4lessISB_EENS1_ISB_EEEEEEPvEEEEEC2B8ue170006ERSJ_b, symObjAddr: 0x12100, symBinAddr: 0x1000168A0, symSize: 0x38 }
  - { offsetInCU: 0x43332, offset: 0x5A786, size: 0x8, addend: 0x0, symName: __ZNSt3__110unique_ptrINS_11__tree_nodeINS_12__value_typeINS_12basic_stringIcNS_11char_traitsIcEENS_9allocatorIcEEEENS_3setINS_4pairIS8_S8_EENS_4lessISB_EENS6_ISB_EEEEEEPvEENS_22__tree_node_destructorINS6_ISI_EEEEEC2B8ue170006ILb1EvEEPSI_NS_16__dependent_typeINS_27__unique_ptr_deleter_sfinaeISL_EEXT_EE20__good_rval_ref_typeE, symObjAddr: 0x12138, symBinAddr: 0x1000168D8, symSize: 0x48 }
  - { offsetInCU: 0x43383, offset: 0x5A7D7, size: 0x8, addend: 0x0, symName: __ZNSt3__117__compressed_pairIPNS_11__tree_nodeINS_12__value_typeINS_12basic_stringIcNS_11char_traitsIcEENS_9allocatorIcEEEENS_3setINS_4pairIS8_S8_EENS_4lessISB_EENS6_ISB_EEEEEEPvEENS_22__tree_node_destructorINS6_ISI_EEEEEC1B8ue170006IRSJ_SM_EEOT_OT0_, symObjAddr: 0x12180, symBinAddr: 0x100016920, symSize: 0x3C }
  - { offsetInCU: 0x433DB, offset: 0x5A82F, size: 0x8, addend: 0x0, symName: __ZNSt3__117__compressed_pairIPNS_11__tree_nodeINS_12__value_typeINS_12basic_stringIcNS_11char_traitsIcEENS_9allocatorIcEEEENS_3setINS_4pairIS8_S8_EENS_4lessISB_EENS6_ISB_EEEEEEPvEENS_22__tree_node_destructorINS6_ISI_EEEEEC2B8ue170006IRSJ_SM_EEOT_OT0_, symObjAddr: 0x121BC, symBinAddr: 0x10001695C, symSize: 0x48 }
  - { offsetInCU: 0x43433, offset: 0x5A887, size: 0x8, addend: 0x0, symName: __ZNSt3__122__compressed_pair_elemIPNS_11__tree_nodeINS_12__value_typeINS_12basic_stringIcNS_11char_traitsIcEENS_9allocatorIcEEEENS_3setINS_4pairIS8_S8_EENS_4lessISB_EENS6_ISB_EEEEEEPvEELi0ELb0EEC2B8ue170006IRSJ_vEEOT_, symObjAddr: 0x12204, symBinAddr: 0x1000169A4, symSize: 0x24 }
  - { offsetInCU: 0x43475, offset: 0x5A8C9, size: 0x8, addend: 0x0, symName: __ZNSt3__122__compressed_pair_elemINS_22__tree_node_destructorINS_9allocatorINS_11__tree_nodeINS_12__value_typeINS_12basic_stringIcNS_11char_traitsIcEENS2_IcEEEENS_3setINS_4pairIS9_S9_EENS_4lessISC_EENS2_ISC_EEEEEEPvEEEEEELi1ELb0EEC2B8ue170006ISL_vEEOT_, symObjAddr: 0x12228, symBinAddr: 0x1000169C8, symSize: 0x24 }
  - { offsetInCU: 0x434B7, offset: 0x5A90B, size: 0x8, addend: 0x0, symName: __ZNSt3__14pairIKNS_12basic_stringIcNS_11char_traitsIcEENS_9allocatorIcEEEENS_3setINS0_IS6_S6_EENS_4lessIS9_EENS4_IS9_EEEEEC1B8ue170006EOSE_, symObjAddr: 0x12288, symBinAddr: 0x100016A28, symSize: 0x34 }
  - { offsetInCU: 0x434EC, offset: 0x5A940, size: 0x8, addend: 0x0, symName: __ZNSt3__14pairIKNS_12basic_stringIcNS_11char_traitsIcEENS_9allocatorIcEEEENS_3setINS0_IS6_S6_EENS_4lessIS9_EENS4_IS9_EEEEEC2B8ue170006EOSE_, symObjAddr: 0x122BC, symBinAddr: 0x100016A5C, symSize: 0x48 }
  - { offsetInCU: 0x43521, offset: 0x5A975, size: 0x8, addend: 0x0, symName: __ZNKSt3__117__compressed_pairIPNS_11__tree_nodeINS_12__value_typeINS_12basic_stringIcNS_11char_traitsIcEENS_9allocatorIcEEEENS_3setINS_4pairIS8_S8_EENS_4lessISB_EENS6_ISB_EEEEEEPvEENS_22__tree_node_destructorINS6_ISI_EEEEE5firstB8ue170006Ev, symObjAddr: 0x12304, symBinAddr: 0x100016AA4, symSize: 0x24 }
  - { offsetInCU: 0x43547, offset: 0x5A99B, size: 0x8, addend: 0x0, symName: __ZNKSt3__122__compressed_pair_elemIPNS_11__tree_nodeINS_12__value_typeINS_12basic_stringIcNS_11char_traitsIcEENS_9allocatorIcEEEENS_3setINS_4pairIS8_S8_EENS_4lessISB_EENS6_ISB_EEEEEEPvEELi0ELb0EE5__getB8ue170006Ev, symObjAddr: 0x12328, symBinAddr: 0x100016AC8, symSize: 0x14 }
  - { offsetInCU: 0x4356D, offset: 0x5A9C1, size: 0x8, addend: 0x0, symName: __ZNSt3__117__compressed_pairIPNS_11__tree_nodeINS_12__value_typeINS_12basic_stringIcNS_11char_traitsIcEENS_9allocatorIcEEEENS_3setINS_4pairIS8_S8_EENS_4lessISB_EENS6_ISB_EEEEEEPvEENS_22__tree_node_destructorINS6_ISI_EEEEE6secondB8ue170006Ev, symObjAddr: 0x1233C, symBinAddr: 0x100016ADC, symSize: 0x28 }
  - { offsetInCU: 0x43593, offset: 0x5A9E7, size: 0x8, addend: 0x0, symName: __ZNSt3__122__compressed_pair_elemINS_22__tree_node_destructorINS_9allocatorINS_11__tree_nodeINS_12__value_typeINS_12basic_stringIcNS_11char_traitsIcEENS2_IcEEEENS_3setINS_4pairIS9_S9_EENS_4lessISC_EENS2_ISC_EEEEEEPvEEEEEELi1ELb0EE5__getB8ue170006Ev, symObjAddr: 0x12364, symBinAddr: 0x100016B04, symSize: 0x14 }
  - { offsetInCU: 0x435B9, offset: 0x5AA0D, size: 0x8, addend: 0x0, symName: __ZNSt3__16__treeINS_12__value_typeINS_12basic_stringIcNS_11char_traitsIcEENS_9allocatorIcEEEENS_3setINS_4pairIS7_S7_EENS_4lessISA_EENS5_ISA_EEEEEENS_19__map_value_compareIS7_SF_NSB_IS7_EELb1EEENS5_ISF_EEE4sizeB8ue170006Ev, symObjAddr: 0x12378, symBinAddr: 0x100016B18, symSize: 0x28 }
  - { offsetInCU: 0x435DF, offset: 0x5AA33, size: 0x8, addend: 0x0, symName: __ZNSt3__117__compressed_pairImNS_19__map_value_compareINS_12basic_stringIcNS_11char_traitsIcEENS_9allocatorIcEEEENS_12__value_typeIS7_NS_3setINS_4pairIS7_S7_EENS_4lessISB_EENS5_ISB_EEEEEENSC_IS7_EELb1EEEE5firstB8ue170006Ev, symObjAddr: 0x123A0, symBinAddr: 0x100016B40, symSize: 0x24 }
  - { offsetInCU: 0x43605, offset: 0x5AA59, size: 0x8, addend: 0x0, symName: __ZNSt3__117__compressed_pairIPNS_11__tree_nodeINS_12__value_typeINS_12basic_stringIcNS_11char_traitsIcEENS_9allocatorIcEEEENS_3setINS_4pairIS8_S8_EENS_4lessISB_EENS6_ISB_EEEEEEPvEENS_22__tree_node_destructorINS6_ISI_EEEEE5firstB8ue170006Ev, symObjAddr: 0x123C4, symBinAddr: 0x100016B64, symSize: 0x24 }
  - { offsetInCU: 0x4362B, offset: 0x5AA7F, size: 0x8, addend: 0x0, symName: __ZNSt3__122__compressed_pair_elemIPNS_11__tree_nodeINS_12__value_typeINS_12basic_stringIcNS_11char_traitsIcEENS_9allocatorIcEEEENS_3setINS_4pairIS8_S8_EENS_4lessISB_EENS6_ISB_EEEEEEPvEELi0ELb0EE5__getB8ue170006Ev, symObjAddr: 0x123E8, symBinAddr: 0x100016B88, symSize: 0x14 }
  - { offsetInCU: 0x43651, offset: 0x5AAA5, size: 0x8, addend: 0x0, symName: __ZNSt3__110unique_ptrINS_11__tree_nodeINS_12__value_typeINS_12basic_stringIcNS_11char_traitsIcEENS_9allocatorIcEEEENS_3setINS_4pairIS8_S8_EENS_4lessISB_EENS6_ISB_EEEEEEPvEENS_22__tree_node_destructorINS6_ISI_EEEEED2B8ue170006Ev, symObjAddr: 0x123FC, symBinAddr: 0x100016B9C, symSize: 0x30 }
  - { offsetInCU: 0x4367B, offset: 0x5AACF, size: 0x8, addend: 0x0, symName: __ZNSt3__110unique_ptrINS_11__tree_nodeINS_12__value_typeINS_12basic_stringIcNS_11char_traitsIcEENS_9allocatorIcEEEENS_3setINS_4pairIS8_S8_EENS_4lessISB_EENS6_ISB_EEEEEEPvEENS_22__tree_node_destructorINS6_ISI_EEEEE5resetB8ue170006EPSI_, symObjAddr: 0x1242C, symBinAddr: 0x100016BCC, symSize: 0x78 }
  - { offsetInCU: 0x436BF, offset: 0x5AB13, size: 0x8, addend: 0x0, symName: __ZNSt3__122__tree_node_destructorINS_9allocatorINS_11__tree_nodeINS_12__value_typeINS_12basic_stringIcNS_11char_traitsIcEENS1_IcEEEENS_3setINS_4pairIS8_S8_EENS_4lessISB_EENS1_ISB_EEEEEEPvEEEEEclB8ue170006EPSI_, symObjAddr: 0x124A4, symBinAddr: 0x100016C44, symSize: 0x98 }
  - { offsetInCU: 0x436F4, offset: 0x5AB48, size: 0x8, addend: 0x0, symName: __ZNSt3__115__tree_iteratorINS_12__value_typeINS_12basic_stringIcNS_11char_traitsIcEENS_9allocatorIcEEEENS_3setINS_4pairIS7_S7_EENS_4lessISA_EENS5_ISA_EEEEEEPNS_11__tree_nodeISF_PvEElEC2B8ue170006ESJ_, symObjAddr: 0x1253C, symBinAddr: 0x100016CDC, symSize: 0x20 }
  - { offsetInCU: 0x4372D, offset: 0x5AB81, size: 0x8, addend: 0x0, symName: __ZNSt3__14pairINS_15__tree_iteratorINS_12__value_typeINS_12basic_stringIcNS_11char_traitsIcEENS_9allocatorIcEEEENS_3setINS0_IS8_S8_EENS_4lessISA_EENS6_ISA_EEEEEEPNS_11__tree_nodeISF_PvEElEEbEC2B8ue170006ISK_RbLSH_0EEEOT_OT0_, symObjAddr: 0x1255C, symBinAddr: 0x100016CFC, symSize: 0x38 }
  - { offsetInCU: 0x4378C, offset: 0x5ABE0, size: 0x8, addend: 0x0, symName: __ZNSt3__14pairINS_14__map_iteratorINS_15__tree_iteratorINS_12__value_typeINS_12basic_stringIcNS_11char_traitsIcEENS_9allocatorIcEEEENS_3setINS0_IS9_S9_EENS_4lessISB_EENS7_ISB_EEEEEEPNS_11__tree_nodeISG_PvEElEEEEbEC2B8ue170006ISL_bLSI_0EEEONS0_IT_T0_EE, symObjAddr: 0x12594, symBinAddr: 0x100016D34, symSize: 0x50 }
  - { offsetInCU: 0x437DE, offset: 0x5AC32, size: 0x8, addend: 0x0, symName: __ZNSt3__114__map_iteratorINS_15__tree_iteratorINS_12__value_typeINS_12basic_stringIcNS_11char_traitsIcEENS_9allocatorIcEEEENS_3setINS_4pairIS8_S8_EENS_4lessISB_EENS6_ISB_EEEEEEPNS_11__tree_nodeISG_PvEElEEEC1B8ue170006ESL_, symObjAddr: 0x125E4, symBinAddr: 0x100016D84, symSize: 0x34 }
  - { offsetInCU: 0x43817, offset: 0x5AC6B, size: 0x8, addend: 0x0, symName: __ZNSt3__114__map_iteratorINS_15__tree_iteratorINS_12__value_typeINS_12basic_stringIcNS_11char_traitsIcEENS_9allocatorIcEEEENS_3setINS_4pairIS8_S8_EENS_4lessISB_EENS6_ISB_EEEEEEPNS_11__tree_nodeISG_PvEElEEEC2B8ue170006ESL_, symObjAddr: 0x12618, symBinAddr: 0x100016DB8, symSize: 0x20 }
  - { offsetInCU: 0x43864, offset: 0x5ACB8, size: 0x8, addend: 0x0, symName: __ZNSt3__16__treeINS_12__value_typeINS_12basic_stringIcNS_11char_traitsIcEENS_9allocatorIcEEEENS_4listIS7_NS5_IS7_EEEEEENS_19__map_value_compareIS7_SB_NS_4lessIS7_EELb1EEENS5_ISB_EEE25__emplace_unique_key_argsIS7_JRKNS_21piecewise_construct_tENS_5tupleIJRKS7_EEENSM_IJEEEEEENS_4pairINS_15__tree_iteratorISB_PNS_11__tree_nodeISB_PvEElEEbEERKT_DpOT0_, symObjAddr: 0x12638, symBinAddr: 0x100016DD8, symSize: 0x100 }
  - { offsetInCU: 0x4393A, offset: 0x5AD8E, size: 0x8, addend: 0x0, symName: __ZNKSt3__115__tree_iteratorINS_12__value_typeINS_12basic_stringIcNS_11char_traitsIcEENS_9allocatorIcEEEENS_4listIS7_NS5_IS7_EEEEEEPNS_11__tree_nodeISB_PvEElEptB8ue170006Ev, symObjAddr: 0x12768, symBinAddr: 0x100016F08, symSize: 0x2C }
  - { offsetInCU: 0x43960, offset: 0x5ADB4, size: 0x8, addend: 0x0, symName: __ZNSt3__16__treeINS_12__value_typeINS_12basic_stringIcNS_11char_traitsIcEENS_9allocatorIcEEEENS_4listIS7_NS5_IS7_EEEEEENS_19__map_value_compareIS7_SB_NS_4lessIS7_EELb1EEENS5_ISB_EEE16__construct_nodeIJRKNS_21piecewise_construct_tENS_5tupleIJRKS7_EEENSM_IJEEEEEENS_10unique_ptrINS_11__tree_nodeISB_PvEENS_22__tree_node_destructorINS5_ISU_EEEEEEDpOT_, symObjAddr: 0x12794, symBinAddr: 0x100016F34, symSize: 0x120 }
  - { offsetInCU: 0x439E9, offset: 0x5AE3D, size: 0x8, addend: 0x0, symName: __ZNSt3__116allocator_traitsINS_9allocatorINS_11__tree_nodeINS_12__value_typeINS_12basic_stringIcNS_11char_traitsIcEENS1_IcEEEENS_4listIS8_NS1_IS8_EEEEEEPvEEEEE9constructB8ue170006INS_4pairIKS8_SB_EEJRKNS_21piecewise_construct_tENS_5tupleIJRSJ_EEENSO_IJEEEEvvEEvRSF_PT_DpOT0_, symObjAddr: 0x128B4, symBinAddr: 0x100017054, symSize: 0x40 }
  - { offsetInCU: 0x43A66, offset: 0x5AEBA, size: 0x8, addend: 0x0, symName: __ZNSt3__14pairIKNS_12basic_stringIcNS_11char_traitsIcEENS_9allocatorIcEEEENS_4listIS6_NS4_IS6_EEEEEC1B8ue170006IJRS7_EJEEENS_21piecewise_construct_tENS_5tupleIJDpT_EEENSF_IJDpT0_EEE, symObjAddr: 0x12944, symBinAddr: 0x1000170E4, symSize: 0x3C }
  - { offsetInCU: 0x43ACD, offset: 0x5AF21, size: 0x8, addend: 0x0, symName: __ZNSt3__14pairIKNS_12basic_stringIcNS_11char_traitsIcEENS_9allocatorIcEEEENS_4listIS6_NS4_IS6_EEEEEC1B8ue170006IJRS7_EJEJLm0EEJEEENS_21piecewise_construct_tERNS_5tupleIJDpT_EEERNSF_IJDpT0_EEENS_15__tuple_indicesIJXspT1_EEEENSO_IJXspT2_EEEE, symObjAddr: 0x12980, symBinAddr: 0x100017120, symSize: 0x3C }
  - { offsetInCU: 0x43B5E, offset: 0x5AFB2, size: 0x8, addend: 0x0, symName: __ZNSt3__14pairIKNS_12basic_stringIcNS_11char_traitsIcEENS_9allocatorIcEEEENS_4listIS6_NS4_IS6_EEEEEC2B8ue170006IJRS7_EJEJLm0EEJEEENS_21piecewise_construct_tERNS_5tupleIJDpT_EEERNSF_IJDpT0_EEENS_15__tuple_indicesIJXspT1_EEEENSO_IJXspT2_EEEE, symObjAddr: 0x129BC, symBinAddr: 0x10001715C, symSize: 0x50 }
  - { offsetInCU: 0x43BEF, offset: 0x5B043, size: 0x8, addend: 0x0, symName: __ZNSt3__112__tuple_leafILm0ERKNS_12basic_stringIcNS_11char_traitsIcEENS_9allocatorIcEEEELb0EE3getB8ue170006Ev, symObjAddr: 0x12A30, symBinAddr: 0x1000171D0, symSize: 0x18 }
  - { offsetInCU: 0x43C15, offset: 0x5B069, size: 0x8, addend: 0x0, symName: __ZNSt3__15tupleIJRKNS_12basic_stringIcNS_11char_traitsIcEENS_9allocatorIcEEEEEEC1B8ue170006INS_4_AndELi0EEES8_, symObjAddr: 0x12A48, symBinAddr: 0x1000171E8, symSize: 0x34 }
  - { offsetInCU: 0x43C5E, offset: 0x5B0B2, size: 0x8, addend: 0x0, symName: __ZNSt3__15tupleIJRKNS_12basic_stringIcNS_11char_traitsIcEENS_9allocatorIcEEEEEEC2B8ue170006INS_4_AndELi0EEES8_, symObjAddr: 0x12A7C, symBinAddr: 0x10001721C, symSize: 0x34 }
  - { offsetInCU: 0x43CA7, offset: 0x5B0FB, size: 0x8, addend: 0x0, symName: __ZNSt3__112__tuple_implINS_15__tuple_indicesIJLm0EEEEJRKNS_12basic_stringIcNS_11char_traitsIcEENS_9allocatorIcEEEEEEC1B8ue170006IJLm0EEJSA_EJEJEJSA_EEENS1_IJXspT_EEEENS_13__tuple_typesIJDpT0_EEENS1_IJXspT1_EEEENSE_IJDpT2_EEEDpOT3_, symObjAddr: 0x12AB0, symBinAddr: 0x100017250, symSize: 0x34 }
  - { offsetInCU: 0x43D3D, offset: 0x5B191, size: 0x8, addend: 0x0, symName: __ZNSt3__112__tuple_implINS_15__tuple_indicesIJLm0EEEEJRKNS_12basic_stringIcNS_11char_traitsIcEENS_9allocatorIcEEEEEEC2B8ue170006IJLm0EEJSA_EJEJEJSA_EEENS1_IJXspT_EEEENS_13__tuple_typesIJDpT0_EEENS1_IJXspT1_EEEENSE_IJDpT2_EEEDpOT3_, symObjAddr: 0x12AE4, symBinAddr: 0x100017284, symSize: 0x34 }
  - { offsetInCU: 0x43DD3, offset: 0x5B227, size: 0x8, addend: 0x0, symName: __ZNSt3__112__tuple_leafILm0ERKNS_12basic_stringIcNS_11char_traitsIcEENS_9allocatorIcEEEELb0EEC2B8ue170006IS8_vEEOT_, symObjAddr: 0x12B18, symBinAddr: 0x1000172B8, symSize: 0x20 }
  - { offsetInCU: 0x43E16, offset: 0x5B26A, size: 0x8, addend: 0x0, symName: __ZNSt3__114pointer_traitsIPNS_12__value_typeINS_12basic_stringIcNS_11char_traitsIcEENS_9allocatorIcEEEENS_4listIS7_NS5_IS7_EEEEEEE10pointer_toB8ue170006ERSB_, symObjAddr: 0x12B38, symBinAddr: 0x1000172D8, symSize: 0x14 }
  - { offsetInCU: 0x43E39, offset: 0x5B28D, size: 0x8, addend: 0x0, symName: __ZNKSt3__115__tree_iteratorINS_12__value_typeINS_12basic_stringIcNS_11char_traitsIcEENS_9allocatorIcEEEENS_4listIS7_NS5_IS7_EEEEEEPNS_11__tree_nodeISB_PvEElE8__get_npB8ue170006Ev, symObjAddr: 0x12B4C, symBinAddr: 0x1000172EC, symSize: 0x18 }
  - { offsetInCU: 0x43E5F, offset: 0x5B2B3, size: 0x8, addend: 0x0, symName: __ZNSt3__14listINS_12basic_stringIcNS_11char_traitsIcEENS_9allocatorIcEEEENS4_IS6_EEE15__allocate_nodeB8ue170006ERNS4_INS_11__list_nodeIS6_PvEEEE, symObjAddr: 0x12B64, symBinAddr: 0x100017304, symSize: 0x70 }
  - { offsetInCU: 0x43EA3, offset: 0x5B2F7, size: 0x8, addend: 0x0, symName: __ZNSt3__116allocator_traitsINS_9allocatorINS_11__list_nodeINS_12basic_stringIcNS_11char_traitsIcEENS1_IcEEEEPvEEEEE9constructB8ue170006IS7_JRKS7_EvvEEvRSA_PT_DpOT0_, symObjAddr: 0x12BD4, symBinAddr: 0x100017374, symSize: 0x30 }
  - { offsetInCU: 0x43EF8, offset: 0x5B34C, size: 0x8, addend: 0x0, symName: __ZNKSt3__110unique_ptrINS_11__list_nodeINS_12basic_stringIcNS_11char_traitsIcEENS_9allocatorIcEEEEPvEENS_22__allocator_destructorINS5_IS9_EEEEEptB8ue170006Ev, symObjAddr: 0x12C04, symBinAddr: 0x1000173A4, symSize: 0x28 }
  - { offsetInCU: 0x43F1E, offset: 0x5B372, size: 0x8, addend: 0x0, symName: __ZNSt3__14listINS_12basic_stringIcNS_11char_traitsIcEENS_9allocatorIcEEEENS4_IS6_EEE20__link_nodes_at_backEPNS_16__list_node_baseIS6_PvEESC_, symObjAddr: 0x12C2C, symBinAddr: 0x1000173CC, symSize: 0x60 }
  - { offsetInCU: 0x43F64, offset: 0x5B3B8, size: 0x8, addend: 0x0, symName: __ZNKSt3__110unique_ptrINS_11__list_nodeINS_12basic_stringIcNS_11char_traitsIcEENS_9allocatorIcEEEEPvEENS_22__allocator_destructorINS5_IS9_EEEEE3getB8ue170006Ev, symObjAddr: 0x12C8C, symBinAddr: 0x10001742C, symSize: 0x28 }
  - { offsetInCU: 0x43F8A, offset: 0x5B3DE, size: 0x8, addend: 0x0, symName: __ZNSt3__111__list_nodeINS_12basic_stringIcNS_11char_traitsIcEENS_9allocatorIcEEEEPvE9__as_linkB8ue170006Ev, symObjAddr: 0x12CB4, symBinAddr: 0x100017454, symSize: 0x24 }
  - { offsetInCU: 0x43FB0, offset: 0x5B404, size: 0x8, addend: 0x0, symName: __ZNSt3__110unique_ptrINS_11__list_nodeINS_12basic_stringIcNS_11char_traitsIcEENS_9allocatorIcEEEEPvEENS_22__allocator_destructorINS5_IS9_EEEEE7releaseB8ue170006Ev, symObjAddr: 0x12CD8, symBinAddr: 0x100017478, symSize: 0x44 }
  - { offsetInCU: 0x43FE5, offset: 0x5B439, size: 0x8, addend: 0x0, symName: __ZNSt3__110unique_ptrINS_11__list_nodeINS_12basic_stringIcNS_11char_traitsIcEENS_9allocatorIcEEEEPvEENS_22__allocator_destructorINS5_IS9_EEEEED1B8ue170006Ev, symObjAddr: 0x12D1C, symBinAddr: 0x1000174BC, symSize: 0x2C }
  - { offsetInCU: 0x4400F, offset: 0x5B463, size: 0x8, addend: 0x0, symName: __ZNSt3__116allocator_traitsINS_9allocatorINS_11__list_nodeINS_12basic_stringIcNS_11char_traitsIcEENS1_IcEEEEPvEEEEE8allocateB8ue170006ERSA_m, symObjAddr: 0x12D48, symBinAddr: 0x1000174E8, symSize: 0x2C }
  - { offsetInCU: 0x44042, offset: 0x5B496, size: 0x8, addend: 0x0, symName: __ZNSt3__122__allocator_destructorINS_9allocatorINS_11__list_nodeINS_12basic_stringIcNS_11char_traitsIcEENS1_IcEEEEPvEEEEEC1B8ue170006ERSA_m, symObjAddr: 0x12D74, symBinAddr: 0x100017514, symSize: 0x3C }
  - { offsetInCU: 0x4408D, offset: 0x5B4E1, size: 0x8, addend: 0x0, symName: __ZNSt3__110unique_ptrINS_11__list_nodeINS_12basic_stringIcNS_11char_traitsIcEENS_9allocatorIcEEEEPvEENS_22__allocator_destructorINS5_IS9_EEEEEC1B8ue170006ILb1EvEEPS9_NS_16__dependent_typeINS_27__unique_ptr_deleter_sfinaeISC_EEXT_EE20__good_rval_ref_typeE, symObjAddr: 0x12DB0, symBinAddr: 0x100017550, symSize: 0x3C }
  - { offsetInCU: 0x440DE, offset: 0x5B532, size: 0x8, addend: 0x0, symName: __ZNSt3__19allocatorINS_11__list_nodeINS_12basic_stringIcNS_11char_traitsIcEENS0_IcEEEEPvEEE8allocateB8ue170006Em, symObjAddr: 0x12DEC, symBinAddr: 0x10001758C, symSize: 0x5C }
  - { offsetInCU: 0x4411C, offset: 0x5B570, size: 0x8, addend: 0x0, symName: __ZNSt3__116allocator_traitsINS_9allocatorINS_11__list_nodeINS_12basic_stringIcNS_11char_traitsIcEENS1_IcEEEEPvEEEEE8max_sizeB8ue170006ISA_vvEEmRKSA_, symObjAddr: 0x12E48, symBinAddr: 0x1000175E8, symSize: 0x28 }
  - { offsetInCU: 0x44148, offset: 0x5B59C, size: 0x8, addend: 0x0, symName: __ZNSt3__122__allocator_destructorINS_9allocatorINS_11__list_nodeINS_12basic_stringIcNS_11char_traitsIcEENS1_IcEEEEPvEEEEEC2B8ue170006ERSA_m, symObjAddr: 0x12E70, symBinAddr: 0x100017610, symSize: 0x2C }
  - { offsetInCU: 0x4418E, offset: 0x5B5E2, size: 0x8, addend: 0x0, symName: __ZNSt3__110unique_ptrINS_11__list_nodeINS_12basic_stringIcNS_11char_traitsIcEENS_9allocatorIcEEEEPvEENS_22__allocator_destructorINS5_IS9_EEEEEC2B8ue170006ILb1EvEEPS9_NS_16__dependent_typeINS_27__unique_ptr_deleter_sfinaeISC_EEXT_EE20__good_rval_ref_typeE, symObjAddr: 0x12E9C, symBinAddr: 0x10001763C, symSize: 0x48 }
  - { offsetInCU: 0x441DF, offset: 0x5B633, size: 0x8, addend: 0x0, symName: __ZNSt3__117__compressed_pairIPNS_11__list_nodeINS_12basic_stringIcNS_11char_traitsIcEENS_9allocatorIcEEEEPvEENS_22__allocator_destructorINS5_IS9_EEEEEC1B8ue170006IRSA_SD_EEOT_OT0_, symObjAddr: 0x12EE4, symBinAddr: 0x100017684, symSize: 0x3C }
  - { offsetInCU: 0x44237, offset: 0x5B68B, size: 0x8, addend: 0x0, symName: __ZNSt3__117__compressed_pairIPNS_11__list_nodeINS_12basic_stringIcNS_11char_traitsIcEENS_9allocatorIcEEEEPvEENS_22__allocator_destructorINS5_IS9_EEEEEC2B8ue170006IRSA_SD_EEOT_OT0_, symObjAddr: 0x12F20, symBinAddr: 0x1000176C0, symSize: 0x48 }
  - { offsetInCU: 0x4428F, offset: 0x5B6E3, size: 0x8, addend: 0x0, symName: __ZNSt3__122__compressed_pair_elemIPNS_11__list_nodeINS_12basic_stringIcNS_11char_traitsIcEENS_9allocatorIcEEEEPvEELi0ELb0EEC2B8ue170006IRSA_vEEOT_, symObjAddr: 0x12F68, symBinAddr: 0x100017708, symSize: 0x24 }
  - { offsetInCU: 0x442D1, offset: 0x5B725, size: 0x8, addend: 0x0, symName: __ZNSt3__122__compressed_pair_elemINS_22__allocator_destructorINS_9allocatorINS_11__list_nodeINS_12basic_stringIcNS_11char_traitsIcEENS2_IcEEEEPvEEEEEELi1ELb0EEC2B8ue170006ISC_vEEOT_, symObjAddr: 0x12F8C, symBinAddr: 0x10001772C, symSize: 0x24 }
  - { offsetInCU: 0x44313, offset: 0x5B767, size: 0x8, addend: 0x0, symName: __ZNKSt3__117__compressed_pairIPNS_11__list_nodeINS_12basic_stringIcNS_11char_traitsIcEENS_9allocatorIcEEEEPvEENS_22__allocator_destructorINS5_IS9_EEEEE5firstB8ue170006Ev, symObjAddr: 0x12FB0, symBinAddr: 0x100017750, symSize: 0x24 }
  - { offsetInCU: 0x44339, offset: 0x5B78D, size: 0x8, addend: 0x0, symName: __ZNKSt3__122__compressed_pair_elemIPNS_11__list_nodeINS_12basic_stringIcNS_11char_traitsIcEENS_9allocatorIcEEEEPvEELi0ELb0EE5__getB8ue170006Ev, symObjAddr: 0x12FD4, symBinAddr: 0x100017774, symSize: 0x14 }
  - { offsetInCU: 0x4435F, offset: 0x5B7B3, size: 0x8, addend: 0x0, symName: __ZNSt3__117__compressed_pairIPNS_11__list_nodeINS_12basic_stringIcNS_11char_traitsIcEENS_9allocatorIcEEEEPvEENS_22__allocator_destructorINS5_IS9_EEEEE5firstB8ue170006Ev, symObjAddr: 0x12FE8, symBinAddr: 0x100017788, symSize: 0x24 }
  - { offsetInCU: 0x44385, offset: 0x5B7D9, size: 0x8, addend: 0x0, symName: __ZNSt3__122__compressed_pair_elemIPNS_11__list_nodeINS_12basic_stringIcNS_11char_traitsIcEENS_9allocatorIcEEEEPvEELi0ELb0EE5__getB8ue170006Ev, symObjAddr: 0x1300C, symBinAddr: 0x1000177AC, symSize: 0x14 }
  - { offsetInCU: 0x443AB, offset: 0x5B7FF, size: 0x8, addend: 0x0, symName: __ZNSt3__110unique_ptrINS_11__list_nodeINS_12basic_stringIcNS_11char_traitsIcEENS_9allocatorIcEEEEPvEENS_22__allocator_destructorINS5_IS9_EEEEED2B8ue170006Ev, symObjAddr: 0x13020, symBinAddr: 0x1000177C0, symSize: 0x30 }
  - { offsetInCU: 0x443D5, offset: 0x5B829, size: 0x8, addend: 0x0, symName: __ZNSt3__110unique_ptrINS_11__list_nodeINS_12basic_stringIcNS_11char_traitsIcEENS_9allocatorIcEEEEPvEENS_22__allocator_destructorINS5_IS9_EEEEE5resetB8ue170006EPS9_, symObjAddr: 0x13050, symBinAddr: 0x1000177F0, symSize: 0x78 }
  - { offsetInCU: 0x44419, offset: 0x5B86D, size: 0x8, addend: 0x0, symName: __ZNSt3__117__compressed_pairIPNS_11__list_nodeINS_12basic_stringIcNS_11char_traitsIcEENS_9allocatorIcEEEEPvEENS_22__allocator_destructorINS5_IS9_EEEEE6secondB8ue170006Ev, symObjAddr: 0x130C8, symBinAddr: 0x100017868, symSize: 0x28 }
  - { offsetInCU: 0x4443F, offset: 0x5B893, size: 0x8, addend: 0x0, symName: __ZNSt3__122__allocator_destructorINS_9allocatorINS_11__list_nodeINS_12basic_stringIcNS_11char_traitsIcEENS1_IcEEEEPvEEEEEclB8ue170006EPS9_, symObjAddr: 0x130F0, symBinAddr: 0x100017890, symSize: 0x34 }
  - { offsetInCU: 0x44473, offset: 0x5B8C7, size: 0x8, addend: 0x0, symName: __ZNSt3__122__compressed_pair_elemINS_22__allocator_destructorINS_9allocatorINS_11__list_nodeINS_12basic_stringIcNS_11char_traitsIcEENS2_IcEEEEPvEEEEEELi1ELb0EE5__getB8ue170006Ev, symObjAddr: 0x13124, symBinAddr: 0x1000178C4, symSize: 0x14 }
  - { offsetInCU: 0x44499, offset: 0x5B8ED, size: 0x8, addend: 0x0, symName: __ZNSt3__16__treeINS_12__value_typeINS_12basic_stringIcNS_11char_traitsIcEENS_9allocatorIcEEEENS_3setINS_4pairIS7_S7_EENS_4lessISA_EENS5_ISA_EEEEEENS_19__map_value_compareIS7_SF_NSB_IS7_EELb1EEENS5_ISF_EEE25__emplace_unique_key_argsIS7_JRKNS_21piecewise_construct_tENS_5tupleIJRKS7_EEENSP_IJEEEEEENS9_INS_15__tree_iteratorISF_PNS_11__tree_nodeISF_PvEElEEbEERKT_DpOT0_, symObjAddr: 0x13138, symBinAddr: 0x1000178D8, symSize: 0x100 }
  - { offsetInCU: 0x4456F, offset: 0x5B9C3, size: 0x8, addend: 0x0, symName: __ZNKSt3__115__tree_iteratorINS_12__value_typeINS_12basic_stringIcNS_11char_traitsIcEENS_9allocatorIcEEEENS_3setINS_4pairIS7_S7_EENS_4lessISA_EENS5_ISA_EEEEEEPNS_11__tree_nodeISF_PvEElEptB8ue170006Ev, symObjAddr: 0x13238, symBinAddr: 0x1000179D8, symSize: 0x2C }
  - { offsetInCU: 0x44595, offset: 0x5B9E9, size: 0x8, addend: 0x0, symName: __ZNSt3__16__treeINS_12__value_typeINS_12basic_stringIcNS_11char_traitsIcEENS_9allocatorIcEEEENS_3setINS_4pairIS7_S7_EENS_4lessISA_EENS5_ISA_EEEEEENS_19__map_value_compareIS7_SF_NSB_IS7_EELb1EEENS5_ISF_EEE16__construct_nodeIJRKNS_21piecewise_construct_tENS_5tupleIJRKS7_EEENSP_IJEEEEEENS_10unique_ptrINS_11__tree_nodeISF_PvEENS_22__tree_node_destructorINS5_ISX_EEEEEEDpOT_, symObjAddr: 0x13264, symBinAddr: 0x100017A04, symSize: 0x120 }
  - { offsetInCU: 0x4461E, offset: 0x5BA72, size: 0x8, addend: 0x0, symName: __ZNSt3__116allocator_traitsINS_9allocatorINS_11__tree_nodeINS_12__value_typeINS_12basic_stringIcNS_11char_traitsIcEENS1_IcEEEENS_3setINS_4pairIS8_S8_EENS_4lessISB_EENS1_ISB_EEEEEEPvEEEEE9constructB8ue170006INSA_IKS8_SF_EEJRKNS_21piecewise_construct_tENS_5tupleIJRSM_EEENSR_IJEEEEvvEEvRSJ_PT_DpOT0_, symObjAddr: 0x13384, symBinAddr: 0x100017B24, symSize: 0x40 }
  - { offsetInCU: 0x4469B, offset: 0x5BAEF, size: 0x8, addend: 0x0, symName: __ZNSt3__14pairIKNS_12basic_stringIcNS_11char_traitsIcEENS_9allocatorIcEEEENS_3setINS0_IS6_S6_EENS_4lessIS9_EENS4_IS9_EEEEEC1B8ue170006IJRS7_EJEEENS_21piecewise_construct_tENS_5tupleIJDpT_EEENSI_IJDpT0_EEE, symObjAddr: 0x13414, symBinAddr: 0x100017BB4, symSize: 0x3C }
  - { offsetInCU: 0x44702, offset: 0x5BB56, size: 0x8, addend: 0x0, symName: __ZNSt3__14pairIKNS_12basic_stringIcNS_11char_traitsIcEENS_9allocatorIcEEEENS_3setINS0_IS6_S6_EENS_4lessIS9_EENS4_IS9_EEEEEC1B8ue170006IJRS7_EJEJLm0EEJEEENS_21piecewise_construct_tERNS_5tupleIJDpT_EEERNSI_IJDpT0_EEENS_15__tuple_indicesIJXspT1_EEEENSR_IJXspT2_EEEE, symObjAddr: 0x13450, symBinAddr: 0x100017BF0, symSize: 0x3C }
  - { offsetInCU: 0x44793, offset: 0x5BBE7, size: 0x8, addend: 0x0, symName: __ZNSt3__14pairIKNS_12basic_stringIcNS_11char_traitsIcEENS_9allocatorIcEEEENS_3setINS0_IS6_S6_EENS_4lessIS9_EENS4_IS9_EEEEEC2B8ue170006IJRS7_EJEJLm0EEJEEENS_21piecewise_construct_tERNS_5tupleIJDpT_EEERNSI_IJDpT0_EEENS_15__tuple_indicesIJXspT1_EEEENSR_IJXspT2_EEEE, symObjAddr: 0x1348C, symBinAddr: 0x100017C2C, symSize: 0x50 }
  - { offsetInCU: 0x44824, offset: 0x5BC78, size: 0x8, addend: 0x0, symName: __ZNSt3__114pointer_traitsIPNS_12__value_typeINS_12basic_stringIcNS_11char_traitsIcEENS_9allocatorIcEEEENS_3setINS_4pairIS7_S7_EENS_4lessISA_EENS5_ISA_EEEEEEE10pointer_toB8ue170006ERSF_, symObjAddr: 0x134DC, symBinAddr: 0x100017C7C, symSize: 0x14 }
  - { offsetInCU: 0x44847, offset: 0x5BC9B, size: 0x8, addend: 0x0, symName: __ZNKSt3__115__tree_iteratorINS_12__value_typeINS_12basic_stringIcNS_11char_traitsIcEENS_9allocatorIcEEEENS_3setINS_4pairIS7_S7_EENS_4lessISA_EENS5_ISA_EEEEEEPNS_11__tree_nodeISF_PvEElE8__get_npB8ue170006Ev, symObjAddr: 0x134F0, symBinAddr: 0x100017C90, symSize: 0x18 }
  - { offsetInCU: 0x4486D, offset: 0x5BCC1, size: 0x8, addend: 0x0, symName: __ZNSt3__16__treeINS_4pairINS_12basic_stringIcNS_11char_traitsIcEENS_9allocatorIcEEEES7_EENS_4lessIS8_EENS5_IS8_EEE15__insert_uniqueB8ue170006EOS8_, symObjAddr: 0x13508, symBinAddr: 0x100017CA8, symSize: 0x50 }
  - { offsetInCU: 0x448A2, offset: 0x5BCF6, size: 0x8, addend: 0x0, symName: __ZNSt3__14pairINS_21__tree_const_iteratorINS0_INS_12basic_stringIcNS_11char_traitsIcEENS_9allocatorIcEEEES7_EEPNS_11__tree_nodeIS8_PvEElEEbEC1B8ue170006INS_15__tree_iteratorIS8_SC_lEEbLSA_0EEEONS0_IT_T0_EE, symObjAddr: 0x13558, symBinAddr: 0x100017CF8, symSize: 0x34 }
  - { offsetInCU: 0x448F4, offset: 0x5BD48, size: 0x8, addend: 0x0, symName: __ZNSt3__16__treeINS_4pairINS_12basic_stringIcNS_11char_traitsIcEENS_9allocatorIcEEEES7_EENS_4lessIS8_EENS5_IS8_EEE25__emplace_unique_key_argsIS8_JS8_EEENS1_INS_15__tree_iteratorIS8_PNS_11__tree_nodeIS8_PvEElEEbEERKT_DpOT0_, symObjAddr: 0x1358C, symBinAddr: 0x100017D2C, symSize: 0xF0 }
  - { offsetInCU: 0x449A0, offset: 0x5BDF4, size: 0x8, addend: 0x0, symName: __ZNSt3__122__tree_key_value_typesINS_4pairINS_12basic_stringIcNS_11char_traitsIcEENS_9allocatorIcEEEES7_EEE9__get_keyB8ue170006ERKS8_, symObjAddr: 0x1367C, symBinAddr: 0x100017E1C, symSize: 0x14 }
  - { offsetInCU: 0x449C4, offset: 0x5BE18, size: 0x8, addend: 0x0, symName: __ZNSt3__16__treeINS_4pairINS_12basic_stringIcNS_11char_traitsIcEENS_9allocatorIcEEEES7_EENS_4lessIS8_EENS5_IS8_EEE12__find_equalIS8_EERPNS_16__tree_node_baseIPvEERPNS_15__tree_end_nodeISH_EERKT_, symObjAddr: 0x13690, symBinAddr: 0x100017E30, symSize: 0x184 }
  - { offsetInCU: 0x44A31, offset: 0x5BE85, size: 0x8, addend: 0x0, symName: __ZNSt3__16__treeINS_4pairINS_12basic_stringIcNS_11char_traitsIcEENS_9allocatorIcEEEES7_EENS_4lessIS8_EENS5_IS8_EEE16__construct_nodeIJS8_EEENS_10unique_ptrINS_11__tree_nodeIS8_PvEENS_22__tree_node_destructorINS5_ISH_EEEEEEDpOT_, symObjAddr: 0x13814, symBinAddr: 0x100017FB4, symSize: 0x108 }
  - { offsetInCU: 0x44A92, offset: 0x5BEE6, size: 0x8, addend: 0x0, symName: __ZNSt3__16__treeINS_4pairINS_12basic_stringIcNS_11char_traitsIcEENS_9allocatorIcEEEES7_EENS_4lessIS8_EENS5_IS8_EEE16__insert_node_atEPNS_15__tree_end_nodeIPNS_16__tree_node_baseIPvEEEERSH_SH_, symObjAddr: 0x1391C, symBinAddr: 0x1000180BC, symSize: 0xCC }
  - { offsetInCU: 0x44AE7, offset: 0x5BF3B, size: 0x8, addend: 0x0, symName: __ZNKSt3__110unique_ptrINS_11__tree_nodeINS_4pairINS_12basic_stringIcNS_11char_traitsIcEENS_9allocatorIcEEEES8_EEPvEENS_22__tree_node_destructorINS6_ISB_EEEEE3getB8ue170006Ev, symObjAddr: 0x139E8, symBinAddr: 0x100018188, symSize: 0x28 }
  - { offsetInCU: 0x44B0D, offset: 0x5BF61, size: 0x8, addend: 0x0, symName: __ZNSt3__110unique_ptrINS_11__tree_nodeINS_4pairINS_12basic_stringIcNS_11char_traitsIcEENS_9allocatorIcEEEES8_EEPvEENS_22__tree_node_destructorINS6_ISB_EEEEE7releaseB8ue170006Ev, symObjAddr: 0x13A10, symBinAddr: 0x1000181B0, symSize: 0x44 }
  - { offsetInCU: 0x44B42, offset: 0x5BF96, size: 0x8, addend: 0x0, symName: __ZNSt3__110unique_ptrINS_11__tree_nodeINS_4pairINS_12basic_stringIcNS_11char_traitsIcEENS_9allocatorIcEEEES8_EEPvEENS_22__tree_node_destructorINS6_ISB_EEEEED1B8ue170006Ev, symObjAddr: 0x13A54, symBinAddr: 0x1000181F4, symSize: 0x2C }
  - { offsetInCU: 0x44B6C, offset: 0x5BFC0, size: 0x8, addend: 0x0, symName: __ZNSt3__115__tree_iteratorINS_4pairINS_12basic_stringIcNS_11char_traitsIcEENS_9allocatorIcEEEES7_EEPNS_11__tree_nodeIS8_PvEElEC1B8ue170006ESC_, symObjAddr: 0x13A80, symBinAddr: 0x100018220, symSize: 0x34 }
  - { offsetInCU: 0x44BAA, offset: 0x5BFFE, size: 0x8, addend: 0x0, symName: __ZNSt3__14pairINS_15__tree_iteratorINS0_INS_12basic_stringIcNS_11char_traitsIcEENS_9allocatorIcEEEES7_EEPNS_11__tree_nodeIS8_PvEElEEbEC1B8ue170006ISD_RbLSA_0EEEOT_OT0_, symObjAddr: 0x13AB4, symBinAddr: 0x100018254, symSize: 0x3C }
  - { offsetInCU: 0x44C09, offset: 0x5C05D, size: 0x8, addend: 0x0, symName: __ZNKSt3__16__treeINS_4pairINS_12basic_stringIcNS_11char_traitsIcEENS_9allocatorIcEEEES7_EENS_4lessIS8_EENS5_IS8_EEE10__root_ptrB8ue170006Ev, symObjAddr: 0x13AF0, symBinAddr: 0x100018290, symSize: 0x24 }
  - { offsetInCU: 0x44C2F, offset: 0x5C083, size: 0x8, addend: 0x0, symName: __ZNSt3__16__treeINS_4pairINS_12basic_stringIcNS_11char_traitsIcEENS_9allocatorIcEEEES7_EENS_4lessIS8_EENS5_IS8_EEE10value_compB8ue170006Ev, symObjAddr: 0x13B14, symBinAddr: 0x1000182B4, symSize: 0x28 }
  - { offsetInCU: 0x44C55, offset: 0x5C0A9, size: 0x8, addend: 0x0, symName: __ZNKSt3__14lessINS_4pairINS_12basic_stringIcNS_11char_traitsIcEENS_9allocatorIcEEEES7_EEEclB8ue170006ERKS8_SB_, symObjAddr: 0x13B3C, symBinAddr: 0x1000182DC, symSize: 0x50 }
  - { offsetInCU: 0x44C99, offset: 0x5C0ED, size: 0x8, addend: 0x0, symName: __ZNSt3__117__compressed_pairImNS_4lessINS_4pairINS_12basic_stringIcNS_11char_traitsIcEENS_9allocatorIcEEEES8_EEEEE6secondB8ue170006Ev, symObjAddr: 0x13B8C, symBinAddr: 0x10001832C, symSize: 0x24 }
  - { offsetInCU: 0x44CBF, offset: 0x5C113, size: 0x8, addend: 0x0, symName: __ZNSt3__122__compressed_pair_elemINS_4lessINS_4pairINS_12basic_stringIcNS_11char_traitsIcEENS_9allocatorIcEEEES8_EEEELi1ELb1EE5__getB8ue170006Ev, symObjAddr: 0x13BB0, symBinAddr: 0x100018350, symSize: 0x14 }
  - { offsetInCU: 0x44CE5, offset: 0x5C139, size: 0x8, addend: 0x0, symName: __ZNSt3__116allocator_traitsINS_9allocatorINS_11__tree_nodeINS_4pairINS_12basic_stringIcNS_11char_traitsIcEENS1_IcEEEES8_EEPvEEEEE8allocateB8ue170006ERSC_m, symObjAddr: 0x13C98, symBinAddr: 0x100018438, symSize: 0x2C }
  - { offsetInCU: 0x44D18, offset: 0x5C16C, size: 0x8, addend: 0x0, symName: __ZNSt3__122__tree_node_destructorINS_9allocatorINS_11__tree_nodeINS_4pairINS_12basic_stringIcNS_11char_traitsIcEENS1_IcEEEES8_EEPvEEEEEC1B8ue170006ERSC_b, symObjAddr: 0x13CC4, symBinAddr: 0x100018464, symSize: 0x48 }
  - { offsetInCU: 0x44D65, offset: 0x5C1B9, size: 0x8, addend: 0x0, symName: __ZNSt3__110unique_ptrINS_11__tree_nodeINS_4pairINS_12basic_stringIcNS_11char_traitsIcEENS_9allocatorIcEEEES8_EEPvEENS_22__tree_node_destructorINS6_ISB_EEEEEC1B8ue170006ILb1EvEEPSB_NS_16__dependent_typeINS_27__unique_ptr_deleter_sfinaeISE_EEXT_EE20__good_rval_ref_typeE, symObjAddr: 0x13D0C, symBinAddr: 0x1000184AC, symSize: 0x3C }
  - { offsetInCU: 0x44DB6, offset: 0x5C20A, size: 0x8, addend: 0x0, symName: __ZNSt3__116allocator_traitsINS_9allocatorINS_11__tree_nodeINS_4pairINS_12basic_stringIcNS_11char_traitsIcEENS1_IcEEEES8_EEPvEEEEE9constructB8ue170006IS9_JS9_EvvEEvRSC_PT_DpOT0_, symObjAddr: 0x13D48, symBinAddr: 0x1000184E8, symSize: 0x30 }
  - { offsetInCU: 0x44E0B, offset: 0x5C25F, size: 0x8, addend: 0x0, symName: __ZNKSt3__110unique_ptrINS_11__tree_nodeINS_4pairINS_12basic_stringIcNS_11char_traitsIcEENS_9allocatorIcEEEES8_EEPvEENS_22__tree_node_destructorINS6_ISB_EEEEEptB8ue170006Ev, symObjAddr: 0x13D78, symBinAddr: 0x100018518, symSize: 0x28 }
  - { offsetInCU: 0x44E31, offset: 0x5C285, size: 0x8, addend: 0x0, symName: __ZNSt3__110unique_ptrINS_11__tree_nodeINS_4pairINS_12basic_stringIcNS_11char_traitsIcEENS_9allocatorIcEEEES8_EEPvEENS_22__tree_node_destructorINS6_ISB_EEEEE11get_deleterB8ue170006Ev, symObjAddr: 0x13DA0, symBinAddr: 0x100018540, symSize: 0x24 }
  - { offsetInCU: 0x44E57, offset: 0x5C2AB, size: 0x8, addend: 0x0, symName: __ZNSt3__19allocatorINS_11__tree_nodeINS_4pairINS_12basic_stringIcNS_11char_traitsIcEENS0_IcEEEES7_EEPvEEE8allocateB8ue170006Em, symObjAddr: 0x13DC4, symBinAddr: 0x100018564, symSize: 0x5C }
  - { offsetInCU: 0x44E95, offset: 0x5C2E9, size: 0x8, addend: 0x0, symName: __ZNSt3__116allocator_traitsINS_9allocatorINS_11__tree_nodeINS_4pairINS_12basic_stringIcNS_11char_traitsIcEENS1_IcEEEES8_EEPvEEEEE8max_sizeB8ue170006ISC_vvEEmRKSC_, symObjAddr: 0x13E20, symBinAddr: 0x1000185C0, symSize: 0x28 }
  - { offsetInCU: 0x44EC1, offset: 0x5C315, size: 0x8, addend: 0x0, symName: __ZNSt3__122__tree_node_destructorINS_9allocatorINS_11__tree_nodeINS_4pairINS_12basic_stringIcNS_11char_traitsIcEENS1_IcEEEES8_EEPvEEEEEC2B8ue170006ERSC_b, symObjAddr: 0x13E48, symBinAddr: 0x1000185E8, symSize: 0x38 }
  - { offsetInCU: 0x44F09, offset: 0x5C35D, size: 0x8, addend: 0x0, symName: __ZNSt3__110unique_ptrINS_11__tree_nodeINS_4pairINS_12basic_stringIcNS_11char_traitsIcEENS_9allocatorIcEEEES8_EEPvEENS_22__tree_node_destructorINS6_ISB_EEEEEC2B8ue170006ILb1EvEEPSB_NS_16__dependent_typeINS_27__unique_ptr_deleter_sfinaeISE_EEXT_EE20__good_rval_ref_typeE, symObjAddr: 0x13E80, symBinAddr: 0x100018620, symSize: 0x48 }
  - { offsetInCU: 0x44F5A, offset: 0x5C3AE, size: 0x8, addend: 0x0, symName: __ZNSt3__117__compressed_pairIPNS_11__tree_nodeINS_4pairINS_12basic_stringIcNS_11char_traitsIcEENS_9allocatorIcEEEES8_EEPvEENS_22__tree_node_destructorINS6_ISB_EEEEEC1B8ue170006IRSC_SF_EEOT_OT0_, symObjAddr: 0x13EC8, symBinAddr: 0x100018668, symSize: 0x3C }
  - { offsetInCU: 0x44FB2, offset: 0x5C406, size: 0x8, addend: 0x0, symName: __ZNSt3__117__compressed_pairIPNS_11__tree_nodeINS_4pairINS_12basic_stringIcNS_11char_traitsIcEENS_9allocatorIcEEEES8_EEPvEENS_22__tree_node_destructorINS6_ISB_EEEEEC2B8ue170006IRSC_SF_EEOT_OT0_, symObjAddr: 0x13F04, symBinAddr: 0x1000186A4, symSize: 0x48 }
  - { offsetInCU: 0x4500A, offset: 0x5C45E, size: 0x8, addend: 0x0, symName: __ZNSt3__122__compressed_pair_elemIPNS_11__tree_nodeINS_4pairINS_12basic_stringIcNS_11char_traitsIcEENS_9allocatorIcEEEES8_EEPvEELi0ELb0EEC2B8ue170006IRSC_vEEOT_, symObjAddr: 0x13F4C, symBinAddr: 0x1000186EC, symSize: 0x24 }
  - { offsetInCU: 0x4504C, offset: 0x5C4A0, size: 0x8, addend: 0x0, symName: __ZNSt3__122__compressed_pair_elemINS_22__tree_node_destructorINS_9allocatorINS_11__tree_nodeINS_4pairINS_12basic_stringIcNS_11char_traitsIcEENS2_IcEEEES9_EEPvEEEEEELi1ELb0EEC2B8ue170006ISE_vEEOT_, symObjAddr: 0x13F70, symBinAddr: 0x100018710, symSize: 0x24 }
  - { offsetInCU: 0x4508E, offset: 0x5C4E2, size: 0x8, addend: 0x0, symName: __ZNSt3__14pairINS_12basic_stringIcNS_11char_traitsIcEENS_9allocatorIcEEEES6_EC1B8ue170006EOS7_, symObjAddr: 0x13FD0, symBinAddr: 0x100018770, symSize: 0x34 }
  - { offsetInCU: 0x450C3, offset: 0x5C517, size: 0x8, addend: 0x0, symName: __ZNSt3__14pairINS_12basic_stringIcNS_11char_traitsIcEENS_9allocatorIcEEEES6_EC2B8ue170006EOS7_, symObjAddr: 0x14004, symBinAddr: 0x1000187A4, symSize: 0x48 }
  - { offsetInCU: 0x450F8, offset: 0x5C54C, size: 0x8, addend: 0x0, symName: __ZNKSt3__117__compressed_pairIPNS_11__tree_nodeINS_4pairINS_12basic_stringIcNS_11char_traitsIcEENS_9allocatorIcEEEES8_EEPvEENS_22__tree_node_destructorINS6_ISB_EEEEE5firstB8ue170006Ev, symObjAddr: 0x1404C, symBinAddr: 0x1000187EC, symSize: 0x24 }
  - { offsetInCU: 0x4511E, offset: 0x5C572, size: 0x8, addend: 0x0, symName: __ZNKSt3__122__compressed_pair_elemIPNS_11__tree_nodeINS_4pairINS_12basic_stringIcNS_11char_traitsIcEENS_9allocatorIcEEEES8_EEPvEELi0ELb0EE5__getB8ue170006Ev, symObjAddr: 0x14070, symBinAddr: 0x100018810, symSize: 0x14 }
  - { offsetInCU: 0x45144, offset: 0x5C598, size: 0x8, addend: 0x0, symName: __ZNSt3__117__compressed_pairIPNS_11__tree_nodeINS_4pairINS_12basic_stringIcNS_11char_traitsIcEENS_9allocatorIcEEEES8_EEPvEENS_22__tree_node_destructorINS6_ISB_EEEEE6secondB8ue170006Ev, symObjAddr: 0x14084, symBinAddr: 0x100018824, symSize: 0x28 }
  - { offsetInCU: 0x4516A, offset: 0x5C5BE, size: 0x8, addend: 0x0, symName: __ZNSt3__122__compressed_pair_elemINS_22__tree_node_destructorINS_9allocatorINS_11__tree_nodeINS_4pairINS_12basic_stringIcNS_11char_traitsIcEENS2_IcEEEES9_EEPvEEEEEELi1ELb0EE5__getB8ue170006Ev, symObjAddr: 0x140AC, symBinAddr: 0x10001884C, symSize: 0x14 }
  - { offsetInCU: 0x45190, offset: 0x5C5E4, size: 0x8, addend: 0x0, symName: __ZNSt3__117__compressed_pairIPNS_11__tree_nodeINS_4pairINS_12basic_stringIcNS_11char_traitsIcEENS_9allocatorIcEEEES8_EEPvEENS_22__tree_node_destructorINS6_ISB_EEEEE5firstB8ue170006Ev, symObjAddr: 0x140C0, symBinAddr: 0x100018860, symSize: 0x24 }
  - { offsetInCU: 0x451B6, offset: 0x5C60A, size: 0x8, addend: 0x0, symName: __ZNSt3__122__compressed_pair_elemIPNS_11__tree_nodeINS_4pairINS_12basic_stringIcNS_11char_traitsIcEENS_9allocatorIcEEEES8_EEPvEELi0ELb0EE5__getB8ue170006Ev, symObjAddr: 0x140E4, symBinAddr: 0x100018884, symSize: 0x14 }
  - { offsetInCU: 0x451DC, offset: 0x5C630, size: 0x8, addend: 0x0, symName: __ZNSt3__110unique_ptrINS_11__tree_nodeINS_4pairINS_12basic_stringIcNS_11char_traitsIcEENS_9allocatorIcEEEES8_EEPvEENS_22__tree_node_destructorINS6_ISB_EEEEED2B8ue170006Ev, symObjAddr: 0x140F8, symBinAddr: 0x100018898, symSize: 0x30 }
  - { offsetInCU: 0x45206, offset: 0x5C65A, size: 0x8, addend: 0x0, symName: __ZNSt3__110unique_ptrINS_11__tree_nodeINS_4pairINS_12basic_stringIcNS_11char_traitsIcEENS_9allocatorIcEEEES8_EEPvEENS_22__tree_node_destructorINS6_ISB_EEEEE5resetB8ue170006EPSB_, symObjAddr: 0x14128, symBinAddr: 0x1000188C8, symSize: 0x78 }
  - { offsetInCU: 0x4524A, offset: 0x5C69E, size: 0x8, addend: 0x0, symName: __ZNSt3__122__tree_node_destructorINS_9allocatorINS_11__tree_nodeINS_4pairINS_12basic_stringIcNS_11char_traitsIcEENS1_IcEEEES8_EEPvEEEEEclB8ue170006EPSB_, symObjAddr: 0x141A0, symBinAddr: 0x100018940, symSize: 0x90 }
  - { offsetInCU: 0x4527F, offset: 0x5C6D3, size: 0x8, addend: 0x0, symName: __ZNSt3__115__tree_iteratorINS_4pairINS_12basic_stringIcNS_11char_traitsIcEENS_9allocatorIcEEEES7_EEPNS_11__tree_nodeIS8_PvEElEC2B8ue170006ESC_, symObjAddr: 0x14230, symBinAddr: 0x1000189D0, symSize: 0x20 }
  - { offsetInCU: 0x452B8, offset: 0x5C70C, size: 0x8, addend: 0x0, symName: __ZNSt3__14pairINS_15__tree_iteratorINS0_INS_12basic_stringIcNS_11char_traitsIcEENS_9allocatorIcEEEES7_EEPNS_11__tree_nodeIS8_PvEElEEbEC2B8ue170006ISD_RbLSA_0EEEOT_OT0_, symObjAddr: 0x14250, symBinAddr: 0x1000189F0, symSize: 0x38 }
  - { offsetInCU: 0x45317, offset: 0x5C76B, size: 0x8, addend: 0x0, symName: __ZNSt3__14pairINS_21__tree_const_iteratorINS0_INS_12basic_stringIcNS_11char_traitsIcEENS_9allocatorIcEEEES7_EEPNS_11__tree_nodeIS8_PvEElEEbEC2B8ue170006INS_15__tree_iteratorIS8_SC_lEEbLSA_0EEEONS0_IT_T0_EE, symObjAddr: 0x14288, symBinAddr: 0x100018A28, symSize: 0x50 }
  - { offsetInCU: 0x45369, offset: 0x5C7BD, size: 0x8, addend: 0x0, symName: __ZNSt3__121__tree_const_iteratorINS_4pairINS_12basic_stringIcNS_11char_traitsIcEENS_9allocatorIcEEEES7_EEPNS_11__tree_nodeIS8_PvEElEC1B8ue170006ENS_15__tree_iteratorIS8_SC_lEE, symObjAddr: 0x142D8, symBinAddr: 0x100018A78, symSize: 0x34 }
  - { offsetInCU: 0x453A2, offset: 0x5C7F6, size: 0x8, addend: 0x0, symName: __ZNSt3__121__tree_const_iteratorINS_4pairINS_12basic_stringIcNS_11char_traitsIcEENS_9allocatorIcEEEES7_EEPNS_11__tree_nodeIS8_PvEElEC2B8ue170006ENS_15__tree_iteratorIS8_SC_lEE, symObjAddr: 0x1430C, symBinAddr: 0x100018AAC, symSize: 0x20 }
  - { offsetInCU: 0x453DB, offset: 0x5C82F, size: 0x8, addend: 0x0, symName: __ZNSt3__15queueINS_12basic_stringIcNS_11char_traitsIcEENS_9allocatorIcEEEENS_5dequeIS6_NS4_IS6_EEEEEC2B8ue170006Ev, symObjAddr: 0x1432C, symBinAddr: 0x100018ACC, symSize: 0x2C }
  - { offsetInCU: 0x45405, offset: 0x5C859, size: 0x8, addend: 0x0, symName: __ZNSt3__15dequeINS_12basic_stringIcNS_11char_traitsIcEENS_9allocatorIcEEEENS4_IS6_EEEC1B8ue170006Ev, symObjAddr: 0x14358, symBinAddr: 0x100018AF8, symSize: 0x2C }
  - { offsetInCU: 0x4542F, offset: 0x5C883, size: 0x8, addend: 0x0, symName: __ZNSt3__15dequeINS_12basic_stringIcNS_11char_traitsIcEENS_9allocatorIcEEEENS4_IS6_EEEC2B8ue170006Ev, symObjAddr: 0x14384, symBinAddr: 0x100018B24, symSize: 0x5C }
  - { offsetInCU: 0x45459, offset: 0x5C8AD, size: 0x8, addend: 0x0, symName: __ZNSt3__114__split_bufferIPNS_12basic_stringIcNS_11char_traitsIcEENS_9allocatorIcEEEENS4_IS7_EEEC1B8ue170006Ev, symObjAddr: 0x143E0, symBinAddr: 0x100018B80, symSize: 0x2C }
  - { offsetInCU: 0x45483, offset: 0x5C8D7, size: 0x8, addend: 0x0, symName: __ZNSt3__117__compressed_pairImNS_9allocatorINS_12basic_stringIcNS_11char_traitsIcEENS1_IcEEEEEEEC1B8ue170006IiNS_18__default_init_tagEEEOT_OT0_, symObjAddr: 0x1440C, symBinAddr: 0x100018BAC, symSize: 0x3C }
  - { offsetInCU: 0x454DB, offset: 0x5C92F, size: 0x8, addend: 0x0, symName: __ZNSt3__114__split_bufferIPNS_12basic_stringIcNS_11char_traitsIcEENS_9allocatorIcEEEENS4_IS7_EEEC2B8ue170006Ev, symObjAddr: 0x14448, symBinAddr: 0x100018BE8, symSize: 0x50 }
  - { offsetInCU: 0x45505, offset: 0x5C959, size: 0x8, addend: 0x0, symName: __ZNSt3__117__compressed_pairIPPNS_12basic_stringIcNS_11char_traitsIcEENS_9allocatorIcEEEENS4_IS7_EEEC1B8ue170006IDnNS_18__default_init_tagEEEOT_OT0_, symObjAddr: 0x14498, symBinAddr: 0x100018C38, symSize: 0x3C }
  - { offsetInCU: 0x4555D, offset: 0x5C9B1, size: 0x8, addend: 0x0, symName: __ZNSt3__117__compressed_pairIPPNS_12basic_stringIcNS_11char_traitsIcEENS_9allocatorIcEEEENS4_IS7_EEEC2B8ue170006IDnNS_18__default_init_tagEEEOT_OT0_, symObjAddr: 0x144D4, symBinAddr: 0x100018C74, symSize: 0x40 }
  - { offsetInCU: 0x455B5, offset: 0x5CA09, size: 0x8, addend: 0x0, symName: __ZNSt3__122__compressed_pair_elemIPPNS_12basic_stringIcNS_11char_traitsIcEENS_9allocatorIcEEEELi0ELb0EEC2B8ue170006IDnvEEOT_, symObjAddr: 0x14514, symBinAddr: 0x100018CB4, symSize: 0x1C }
  - { offsetInCU: 0x455F7, offset: 0x5CA4B, size: 0x8, addend: 0x0, symName: __ZNSt3__122__compressed_pair_elemINS_9allocatorIPNS_12basic_stringIcNS_11char_traitsIcEENS1_IcEEEEEELi1ELb1EEC2B8ue170006ENS_18__default_init_tagE, symObjAddr: 0x14530, symBinAddr: 0x100018CD0, symSize: 0x2C }
  - { offsetInCU: 0x4562C, offset: 0x5CA80, size: 0x8, addend: 0x0, symName: __ZNSt3__19allocatorIPNS_12basic_stringIcNS_11char_traitsIcEENS0_IcEEEEEC2B8ue170006Ev, symObjAddr: 0x1455C, symBinAddr: 0x100018CFC, symSize: 0x2C }
  - { offsetInCU: 0x45656, offset: 0x5CAAA, size: 0x8, addend: 0x0, symName: __ZNSt3__116__non_trivial_ifILb1ENS_9allocatorIPNS_12basic_stringIcNS_11char_traitsIcEENS1_IcEEEEEEEC2B8ue170006Ev, symObjAddr: 0x14588, symBinAddr: 0x100018D28, symSize: 0x14 }
  - { offsetInCU: 0x45680, offset: 0x5CAD4, size: 0x8, addend: 0x0, symName: __ZNSt3__117__compressed_pairImNS_9allocatorINS_12basic_stringIcNS_11char_traitsIcEENS1_IcEEEEEEEC2B8ue170006IiNS_18__default_init_tagEEEOT_OT0_, symObjAddr: 0x1459C, symBinAddr: 0x100018D3C, symSize: 0x40 }
  - { offsetInCU: 0x456D8, offset: 0x5CB2C, size: 0x8, addend: 0x0, symName: __ZNSt3__13mapINS_12basic_stringIcNS_11char_traitsIcEENS_9allocatorIcEEEES6_NS_4lessIS6_EENS4_INS_4pairIKS6_S6_EEEEEC2B8ue170006Ev, symObjAddr: 0x145DC, symBinAddr: 0x100018D7C, symSize: 0x40 }
  - { offsetInCU: 0x45702, offset: 0x5CB56, size: 0x8, addend: 0x0, symName: __ZNSt3__119__map_value_compareINS_12basic_stringIcNS_11char_traitsIcEENS_9allocatorIcEEEENS_12__value_typeIS6_S6_EENS_4lessIS6_EELb1EEC1B8ue170006ESA_, symObjAddr: 0x1461C, symBinAddr: 0x100018DBC, symSize: 0x2C }
  - { offsetInCU: 0x4573B, offset: 0x5CB8F, size: 0x8, addend: 0x0, symName: __ZNSt3__16__treeINS_12__value_typeINS_12basic_stringIcNS_11char_traitsIcEENS_9allocatorIcEEEES7_EENS_19__map_value_compareIS7_S8_NS_4lessIS7_EELb1EEENS5_IS8_EEEC1ERKSC_, symObjAddr: 0x14648, symBinAddr: 0x100018DE8, symSize: 0x34 }
  - { offsetInCU: 0x45776, offset: 0x5CBCA, size: 0x8, addend: 0x0, symName: __ZNSt3__119__map_value_compareINS_12basic_stringIcNS_11char_traitsIcEENS_9allocatorIcEEEENS_12__value_typeIS6_S6_EENS_4lessIS6_EELb1EEC2B8ue170006ESA_, symObjAddr: 0x1467C, symBinAddr: 0x100018E1C, symSize: 0x14 }
  - { offsetInCU: 0x457AF, offset: 0x5CC03, size: 0x8, addend: 0x0, symName: __ZNSt3__16__treeINS_12__value_typeINS_12basic_stringIcNS_11char_traitsIcEENS_9allocatorIcEEEES7_EENS_19__map_value_compareIS7_S8_NS_4lessIS7_EELb1EEENS5_IS8_EEEC2ERKSC_, symObjAddr: 0x14690, symBinAddr: 0x100018E30, symSize: 0x7C }
  - { offsetInCU: 0x457EA, offset: 0x5CC3E, size: 0x8, addend: 0x0, symName: __ZNSt3__117__compressed_pairINS_15__tree_end_nodeIPNS_16__tree_node_baseIPvEEEENS_9allocatorINS_11__tree_nodeINS_12__value_typeINS_12basic_stringIcNS_11char_traitsIcEENS7_IcEEEESE_EES3_EEEEEC1B8ue170006ILb1EvEEv, symObjAddr: 0x1470C, symBinAddr: 0x100018EAC, symSize: 0x2C }
  - { offsetInCU: 0x4581F, offset: 0x5CC73, size: 0x8, addend: 0x0, symName: __ZNSt3__117__compressed_pairImNS_19__map_value_compareINS_12basic_stringIcNS_11char_traitsIcEENS_9allocatorIcEEEENS_12__value_typeIS7_S7_EENS_4lessIS7_EELb1EEEEC1B8ue170006IiRKSC_EEOT_OT0_, symObjAddr: 0x14738, symBinAddr: 0x100018ED8, symSize: 0x3C }
  - { offsetInCU: 0x45877, offset: 0x5CCCB, size: 0x8, addend: 0x0, symName: __ZNSt3__16__treeINS_12__value_typeINS_12basic_stringIcNS_11char_traitsIcEENS_9allocatorIcEEEES7_EENS_19__map_value_compareIS7_S8_NS_4lessIS7_EELb1EEENS5_IS8_EEE10__end_nodeB8ue170006Ev, symObjAddr: 0x14774, symBinAddr: 0x100018F14, symSize: 0x2C }
  - { offsetInCU: 0x4589D, offset: 0x5CCF1, size: 0x8, addend: 0x0, symName: __ZNSt3__16__treeINS_12__value_typeINS_12basic_stringIcNS_11char_traitsIcEENS_9allocatorIcEEEES7_EENS_19__map_value_compareIS7_S8_NS_4lessIS7_EELb1EEENS5_IS8_EEE12__begin_nodeB8ue170006Ev, symObjAddr: 0x147A0, symBinAddr: 0x100018F40, symSize: 0x14 }
  - { offsetInCU: 0x458C3, offset: 0x5CD17, size: 0x8, addend: 0x0, symName: __ZNSt3__117__compressed_pairINS_15__tree_end_nodeIPNS_16__tree_node_baseIPvEEEENS_9allocatorINS_11__tree_nodeINS_12__value_typeINS_12basic_stringIcNS_11char_traitsIcEENS7_IcEEEESE_EES3_EEEEEC2B8ue170006ILb1EvEEv, symObjAddr: 0x147B4, symBinAddr: 0x100018F54, symSize: 0x34 }
  - { offsetInCU: 0x458F8, offset: 0x5CD4C, size: 0x8, addend: 0x0, symName: __ZNSt3__122__compressed_pair_elemINS_9allocatorINS_11__tree_nodeINS_12__value_typeINS_12basic_stringIcNS_11char_traitsIcEENS1_IcEEEES8_EEPvEEEELi1ELb1EEC2B8ue170006ENS_16__value_init_tagE, symObjAddr: 0x147E8, symBinAddr: 0x100018F88, symSize: 0x2C }
  - { offsetInCU: 0x4592D, offset: 0x5CD81, size: 0x8, addend: 0x0, symName: __ZNSt3__19allocatorINS_11__tree_nodeINS_12__value_typeINS_12basic_stringIcNS_11char_traitsIcEENS0_IcEEEES7_EEPvEEEC2B8ue170006Ev, symObjAddr: 0x14814, symBinAddr: 0x100018FB4, symSize: 0x2C }
  - { offsetInCU: 0x45957, offset: 0x5CDAB, size: 0x8, addend: 0x0, symName: __ZNSt3__116__non_trivial_ifILb1ENS_9allocatorINS_11__tree_nodeINS_12__value_typeINS_12basic_stringIcNS_11char_traitsIcEENS1_IcEEEES8_EEPvEEEEEC2B8ue170006Ev, symObjAddr: 0x14840, symBinAddr: 0x100018FE0, symSize: 0x14 }
  - { offsetInCU: 0x45981, offset: 0x5CDD5, size: 0x8, addend: 0x0, symName: __ZNSt3__117__compressed_pairImNS_19__map_value_compareINS_12basic_stringIcNS_11char_traitsIcEENS_9allocatorIcEEEENS_12__value_typeIS7_S7_EENS_4lessIS7_EELb1EEEEC2B8ue170006IiRKSC_EEOT_OT0_, symObjAddr: 0x14854, symBinAddr: 0x100018FF4, symSize: 0x44 }
  - { offsetInCU: 0x459D9, offset: 0x5CE2D, size: 0x8, addend: 0x0, symName: __ZNSt3__122__compressed_pair_elemINS_19__map_value_compareINS_12basic_stringIcNS_11char_traitsIcEENS_9allocatorIcEEEENS_12__value_typeIS7_S7_EENS_4lessIS7_EELb1EEELi1ELb1EEC2B8ue170006IRKSC_vEEOT_, symObjAddr: 0x14898, symBinAddr: 0x100019038, symSize: 0x18 }
  - { offsetInCU: 0x45A1B, offset: 0x5CE6F, size: 0x8, addend: 0x0, symName: __ZNSt3__117__compressed_pairINS_15__tree_end_nodeIPNS_16__tree_node_baseIPvEEEENS_9allocatorINS_11__tree_nodeINS_12__value_typeINS_12basic_stringIcNS_11char_traitsIcEENS7_IcEEEESE_EES3_EEEEE5firstB8ue170006Ev, symObjAddr: 0x148B0, symBinAddr: 0x100019050, symSize: 0x24 }
  - { offsetInCU: 0x45A41, offset: 0x5CE95, size: 0x8, addend: 0x0, symName: __ZNSt3__13mapINS_12basic_stringIcNS_11char_traitsIcEENS_9allocatorIcEEEES6_NS_4lessIS6_EENS4_INS_4pairIKS6_S6_EEEEED2B8ue170006Ev, symObjAddr: 0x148D4, symBinAddr: 0x100019074, symSize: 0x2C }
  - { offsetInCU: 0x45A6B, offset: 0x5CEBF, size: 0x8, addend: 0x0, symName: __ZNSt3__16__treeINS_12__value_typeINS_12basic_stringIcNS_11char_traitsIcEENS_9allocatorIcEEEES7_EENS_19__map_value_compareIS7_S8_NS_4lessIS7_EELb1EEENS5_IS8_EEED1Ev, symObjAddr: 0x14900, symBinAddr: 0x1000190A0, symSize: 0x2C }
  - { offsetInCU: 0x45A97, offset: 0x5CEEB, size: 0x8, addend: 0x0, symName: __ZNSt3__16__treeINS_12__value_typeINS_12basic_stringIcNS_11char_traitsIcEENS_9allocatorIcEEEES7_EENS_19__map_value_compareIS7_S8_NS_4lessIS7_EELb1EEENS5_IS8_EEED2Ev, symObjAddr: 0x1492C, symBinAddr: 0x1000190CC, symSize: 0x38 }
  - { offsetInCU: 0x45AC3, offset: 0x5CF17, size: 0x8, addend: 0x0, symName: __ZNSt3__16__treeINS_12__value_typeINS_12basic_stringIcNS_11char_traitsIcEENS_9allocatorIcEEEES7_EENS_19__map_value_compareIS7_S8_NS_4lessIS7_EELb1EEENS5_IS8_EEE7destroyEPNS_11__tree_nodeIS8_PvEE, symObjAddr: 0x14964, symBinAddr: 0x100019104, symSize: 0xAC }
  - { offsetInCU: 0x45B0F, offset: 0x5CF63, size: 0x8, addend: 0x0, symName: __ZNKSt3__16__treeINS_12__value_typeINS_12basic_stringIcNS_11char_traitsIcEENS_9allocatorIcEEEES7_EENS_19__map_value_compareIS7_S8_NS_4lessIS7_EELb1EEENS5_IS8_EEE6__rootB8ue170006Ev, symObjAddr: 0x14A10, symBinAddr: 0x1000191B0, symSize: 0x28 }
  - { offsetInCU: 0x45B35, offset: 0x5CF89, size: 0x8, addend: 0x0, symName: __ZNSt3__16__treeINS_12__value_typeINS_12basic_stringIcNS_11char_traitsIcEENS_9allocatorIcEEEES7_EENS_19__map_value_compareIS7_S8_NS_4lessIS7_EELb1EEENS5_IS8_EEE12__node_allocB8ue170006Ev, symObjAddr: 0x14A38, symBinAddr: 0x1000191D8, symSize: 0x28 }
  - { offsetInCU: 0x45B5B, offset: 0x5CFAF, size: 0x8, addend: 0x0, symName: __ZNSt3__116allocator_traitsINS_9allocatorINS_11__tree_nodeINS_12__value_typeINS_12basic_stringIcNS_11char_traitsIcEENS1_IcEEEES8_EEPvEEEEE7destroyB8ue170006INS_4pairIKS8_S8_EEvvEEvRSC_PT_, symObjAddr: 0x14A60, symBinAddr: 0x100019200, symSize: 0x28 }
  - { offsetInCU: 0x45B96, offset: 0x5CFEA, size: 0x8, addend: 0x0, symName: __ZNSt3__122__tree_key_value_typesINS_12__value_typeINS_12basic_stringIcNS_11char_traitsIcEENS_9allocatorIcEEEES7_EEE9__get_ptrB8ue170006ERS8_, symObjAddr: 0x14A88, symBinAddr: 0x100019228, symSize: 0x24 }
  - { offsetInCU: 0x45BBA, offset: 0x5D00E, size: 0x8, addend: 0x0, symName: __ZNSt3__116allocator_traitsINS_9allocatorINS_11__tree_nodeINS_12__value_typeINS_12basic_stringIcNS_11char_traitsIcEENS1_IcEEEES8_EEPvEEEEE10deallocateB8ue170006ERSC_PSB_m, symObjAddr: 0x14AAC, symBinAddr: 0x10001924C, symSize: 0x34 }
  - { offsetInCU: 0x45BFC, offset: 0x5D050, size: 0x8, addend: 0x0, symName: __ZNSt3__117__compressed_pairINS_15__tree_end_nodeIPNS_16__tree_node_baseIPvEEEENS_9allocatorINS_11__tree_nodeINS_12__value_typeINS_12basic_stringIcNS_11char_traitsIcEENS7_IcEEEESE_EES3_EEEEE6secondB8ue170006Ev, symObjAddr: 0x14AE0, symBinAddr: 0x100019280, symSize: 0x24 }
  - { offsetInCU: 0x45C22, offset: 0x5D076, size: 0x8, addend: 0x0, symName: __ZNSt3__122__compressed_pair_elemINS_9allocatorINS_11__tree_nodeINS_12__value_typeINS_12basic_stringIcNS_11char_traitsIcEENS1_IcEEEES8_EEPvEEEELi1ELb1EE5__getB8ue170006Ev, symObjAddr: 0x14B04, symBinAddr: 0x1000192A4, symSize: 0x14 }
  - { offsetInCU: 0x45C48, offset: 0x5D09C, size: 0x8, addend: 0x0, symName: __ZNSt3__112__value_typeINS_12basic_stringIcNS_11char_traitsIcEENS_9allocatorIcEEEES6_E11__get_valueB8ue170006Ev, symObjAddr: 0x14B60, symBinAddr: 0x100019300, symSize: 0x24 }
  - { offsetInCU: 0x45C6E, offset: 0x5D0C2, size: 0x8, addend: 0x0, symName: __ZNSt3__19allocatorINS_11__tree_nodeINS_12__value_typeINS_12basic_stringIcNS_11char_traitsIcEENS0_IcEEEES7_EEPvEEE10deallocateB8ue170006EPSA_m, symObjAddr: 0x14BBC, symBinAddr: 0x10001935C, symSize: 0x44 }
  - { offsetInCU: 0x45CB0, offset: 0x5D104, size: 0x8, addend: 0x0, symName: __ZNKSt3__16__treeINS_12__value_typeINS_12basic_stringIcNS_11char_traitsIcEENS_9allocatorIcEEEES7_EENS_19__map_value_compareIS7_S8_NS_4lessIS7_EELb1EEENS5_IS8_EEE10__end_nodeB8ue170006Ev, symObjAddr: 0x14C00, symBinAddr: 0x1000193A0, symSize: 0x2C }
  - { offsetInCU: 0x45CD6, offset: 0x5D12A, size: 0x8, addend: 0x0, symName: __ZNKSt3__117__compressed_pairINS_15__tree_end_nodeIPNS_16__tree_node_baseIPvEEEENS_9allocatorINS_11__tree_nodeINS_12__value_typeINS_12basic_stringIcNS_11char_traitsIcEENS7_IcEEEESE_EES3_EEEEE5firstB8ue170006Ev, symObjAddr: 0x14C2C, symBinAddr: 0x1000193CC, symSize: 0x24 }
  - { offsetInCU: 0x45CFC, offset: 0x5D150, size: 0x8, addend: 0x0, symName: __ZNSt3__15dequeINS_12basic_stringIcNS_11char_traitsIcEENS_9allocatorIcEEEENS4_IS6_EEE9push_backERKS6_, symObjAddr: 0x14C50, symBinAddr: 0x1000193F0, symSize: 0xAC }
  - { offsetInCU: 0x45D42, offset: 0x5D196, size: 0x8, addend: 0x0, symName: __ZNKSt3__15dequeINS_12basic_stringIcNS_11char_traitsIcEENS_9allocatorIcEEEENS4_IS6_EEE12__back_spareB8ue170006Ev, symObjAddr: 0x14CFC, symBinAddr: 0x10001949C, symSize: 0x54 }
  - { offsetInCU: 0x45D68, offset: 0x5D1BC, size: 0x8, addend: 0x0, symName: __ZNSt3__15dequeINS_12basic_stringIcNS_11char_traitsIcEENS_9allocatorIcEEEENS4_IS6_EEE19__add_back_capacityEv, symObjAddr: 0x14D50, symBinAddr: 0x1000194F0, symSize: 0x34C }
  - { offsetInCU: 0x45E1D, offset: 0x5D271, size: 0x8, addend: 0x0, symName: __ZNKSt3__15dequeINS_12basic_stringIcNS_11char_traitsIcEENS_9allocatorIcEEEENS4_IS6_EEE24__annotate_increase_backB8ue170006Em, symObjAddr: 0x1509C, symBinAddr: 0x10001983C, symSize: 0x7C }
  - { offsetInCU: 0x45E52, offset: 0x5D2A6, size: 0x8, addend: 0x0, symName: __ZNKSt3__15dequeINS_12basic_stringIcNS_11char_traitsIcEENS_9allocatorIcEEEENS4_IS6_EEE10__capacityB8ue170006Ev, symObjAddr: 0x15118, symBinAddr: 0x1000198B8, symSize: 0x64 }
  - { offsetInCU: 0x45E78, offset: 0x5D2CC, size: 0x8, addend: 0x0, symName: __ZNKSt3__15dequeINS_12basic_stringIcNS_11char_traitsIcEENS_9allocatorIcEEEENS4_IS6_EEE13__front_spareB8ue170006Ev, symObjAddr: 0x1517C, symBinAddr: 0x10001991C, symSize: 0x18 }
  - { offsetInCU: 0x45E9E, offset: 0x5D2F2, size: 0x8, addend: 0x0, symName: __ZNSt3__114__split_bufferIPNS_12basic_stringIcNS_11char_traitsIcEENS_9allocatorIcEEEENS4_IS7_EEE9push_backB8ue170006ERKS7_, symObjAddr: 0x15194, symBinAddr: 0x100019934, symSize: 0x260 }
  - { offsetInCU: 0x45F16, offset: 0x5D36A, size: 0x8, addend: 0x0, symName: __ZNKSt3__114__split_bufferIPNS_12basic_stringIcNS_11char_traitsIcEENS_9allocatorIcEEEENS4_IS7_EEE12__back_spareB8ue170006Ev, symObjAddr: 0x153F4, symBinAddr: 0x100019B94, symSize: 0x40 }
  - { offsetInCU: 0x45F3C, offset: 0x5D390, size: 0x8, addend: 0x0, symName: __ZNSt3__114__split_bufferIPNS_12basic_stringIcNS_11char_traitsIcEENS_9allocatorIcEEEENS4_IS7_EEE9push_backEOS7_, symObjAddr: 0x15434, symBinAddr: 0x100019BD4, symSize: 0x260 }
  - { offsetInCU: 0x45FB4, offset: 0x5D408, size: 0x8, addend: 0x0, symName: __ZNSt3__116allocator_traitsINS_9allocatorINS_12basic_stringIcNS_11char_traitsIcEENS1_IcEEEEEEE8allocateB8ue170006ERS7_m, symObjAddr: 0x15694, symBinAddr: 0x100019E34, symSize: 0x2C }
  - { offsetInCU: 0x45FE7, offset: 0x5D43B, size: 0x8, addend: 0x0, symName: __ZNSt3__114__split_bufferIPNS_12basic_stringIcNS_11char_traitsIcEENS_9allocatorIcEEEENS4_IS7_EEE10push_frontEOS7_, symObjAddr: 0x156C0, symBinAddr: 0x100019E60, symSize: 0x25C }
  - { offsetInCU: 0x4605F, offset: 0x5D4B3, size: 0x8, addend: 0x0, symName: __ZNSt3__114__split_bufferIPNS_12basic_stringIcNS_11char_traitsIcEENS_9allocatorIcEEEERNS4_IS7_EEEC1EmmS9_, symObjAddr: 0x1591C, symBinAddr: 0x10001A0BC, symSize: 0x44 }
  - { offsetInCU: 0x460BA, offset: 0x5D50E, size: 0x8, addend: 0x0, symName: __ZNSt3__122__allocator_destructorINS_9allocatorINS_12basic_stringIcNS_11char_traitsIcEENS1_IcEEEEEEEC1B8ue170006ERS7_m, symObjAddr: 0x15960, symBinAddr: 0x10001A100, symSize: 0x3C }
  - { offsetInCU: 0x46169, offset: 0x5D5BD, size: 0x8, addend: 0x0, symName: __ZNSt3__110unique_ptrIPNS_12basic_stringIcNS_11char_traitsIcEENS_9allocatorIcEEEENS_22__allocator_destructorINS4_IS6_EEEEEC1B8ue170006ILb1EvEES7_NS_16__dependent_typeINS_27__unique_ptr_deleter_sfinaeISA_EEXT_EE20__good_rval_ref_typeE, symObjAddr: 0x1599C, symBinAddr: 0x10001A13C, symSize: 0x3C }
  - { offsetInCU: 0x461BA, offset: 0x5D60E, size: 0x8, addend: 0x0, symName: __ZNSt3__114__split_bufferIPNS_12basic_stringIcNS_11char_traitsIcEENS_9allocatorIcEEEERNS4_IS7_EEE9push_backEOS7_, symObjAddr: 0x159D8, symBinAddr: 0x10001A178, symSize: 0x260 }
  - { offsetInCU: 0x46232, offset: 0x5D686, size: 0x8, addend: 0x0, symName: __ZNKSt3__110unique_ptrIPNS_12basic_stringIcNS_11char_traitsIcEENS_9allocatorIcEEEENS_22__allocator_destructorINS4_IS6_EEEEE3getB8ue170006Ev, symObjAddr: 0x15C38, symBinAddr: 0x10001A3D8, symSize: 0x28 }
  - { offsetInCU: 0x46258, offset: 0x5D6AC, size: 0x8, addend: 0x0, symName: __ZNSt3__110unique_ptrIPNS_12basic_stringIcNS_11char_traitsIcEENS_9allocatorIcEEEENS_22__allocator_destructorINS4_IS6_EEEEE7releaseB8ue170006Ev, symObjAddr: 0x15C60, symBinAddr: 0x10001A400, symSize: 0x44 }
  - { offsetInCU: 0x4628D, offset: 0x5D6E1, size: 0x8, addend: 0x0, symName: __ZNSt3__114__split_bufferIPNS_12basic_stringIcNS_11char_traitsIcEENS_9allocatorIcEEEERNS4_IS7_EEE10push_frontERKS7_, symObjAddr: 0x15CA4, symBinAddr: 0x10001A444, symSize: 0x25C }
  - { offsetInCU: 0x46305, offset: 0x5D759, size: 0x8, addend: 0x0, symName: __ZNSt3__114__split_bufferIPNS_12basic_stringIcNS_11char_traitsIcEENS_9allocatorIcEEEENS4_IS7_EEE9__end_capB8ue170006Ev, symObjAddr: 0x15F3C, symBinAddr: 0x10001A6DC, symSize: 0x28 }
  - { offsetInCU: 0x4632B, offset: 0x5D77F, size: 0x8, addend: 0x0, symName: __ZNSt3__114__split_bufferIPNS_12basic_stringIcNS_11char_traitsIcEENS_9allocatorIcEEEERNS4_IS7_EEE9__end_capB8ue170006Ev, symObjAddr: 0x15F64, symBinAddr: 0x10001A704, symSize: 0x28 }
  - { offsetInCU: 0x46351, offset: 0x5D7A5, size: 0x8, addend: 0x0, symName: __ZNSt3__110unique_ptrIPNS_12basic_stringIcNS_11char_traitsIcEENS_9allocatorIcEEEENS_22__allocator_destructorINS4_IS6_EEEEED1B8ue170006Ev, symObjAddr: 0x15F8C, symBinAddr: 0x10001A72C, symSize: 0x2C }
  - { offsetInCU: 0x4637B, offset: 0x5D7CF, size: 0x8, addend: 0x0, symName: __ZNSt3__114__split_bufferIPNS_12basic_stringIcNS_11char_traitsIcEENS_9allocatorIcEEEERNS4_IS7_EEED1Ev, symObjAddr: 0x15FB8, symBinAddr: 0x10001A758, symSize: 0x2C }
  - { offsetInCU: 0x463A7, offset: 0x5D7FB, size: 0x8, addend: 0x0, symName: __ZNSt3__114__split_bufferIPNS_12basic_stringIcNS_11char_traitsIcEENS_9allocatorIcEEEERNS4_IS7_EEE18__construct_at_endINS_13move_iteratorIPS7_EEEENS_9enable_ifIXsr31__has_forward_iterator_categoryIT_EE5valueEvE4typeESG_SG_, symObjAddr: 0x16024, symBinAddr: 0x10001A7C4, symSize: 0x60 }
  - { offsetInCU: 0x463F4, offset: 0x5D848, size: 0x8, addend: 0x0, symName: __ZNSt3__113move_iteratorIPPNS_12basic_stringIcNS_11char_traitsIcEENS_9allocatorIcEEEEEC1B8ue170006ES8_, symObjAddr: 0x16084, symBinAddr: 0x10001A824, symSize: 0x34 }
  - { offsetInCU: 0x4642C, offset: 0x5D880, size: 0x8, addend: 0x0, symName: __ZNSt3__116allocator_traitsINS_9allocatorIPNS_12basic_stringIcNS_11char_traitsIcEENS1_IcEEEEEEE9constructB8ue170006IS7_JRKS7_EvvEEvRS8_PT_DpOT0_, symObjAddr: 0x160B8, symBinAddr: 0x10001A858, symSize: 0x30 }
  - { offsetInCU: 0x464A4, offset: 0x5D8F8, size: 0x8, addend: 0x0, symName: __ZNKSt3__114__move_trivialclB8ue170006IPNS_12basic_stringIcNS_11char_traitsIcEENS_9allocatorIcEEEES8_Li0EEENS_4pairIPT_PT0_EESB_SB_SD_, symObjAddr: 0x16260, symBinAddr: 0x10001AA00, symSize: 0x48 }
  - { offsetInCU: 0x4650C, offset: 0x5D960, size: 0x8, addend: 0x0, symName: __ZNSt3__119__unwrap_range_implIPPNS_12basic_stringIcNS_11char_traitsIcEENS_9allocatorIcEEEES8_E8__unwrapB8ue170006ES8_S8_, symObjAddr: 0x1636C, symBinAddr: 0x10001AB0C, symSize: 0x58 }
  - { offsetInCU: 0x46542, offset: 0x5D996, size: 0x8, addend: 0x0, symName: __ZNSt3__14pairIPPNS_12basic_stringIcNS_11char_traitsIcEENS_9allocatorIcEEEES8_EC1B8ue170006IS8_S8_LPv0EEEOT_OT0_, symObjAddr: 0x163C4, symBinAddr: 0x10001AB64, symSize: 0x3C }
  - { offsetInCU: 0x465A1, offset: 0x5D9F5, size: 0x8, addend: 0x0, symName: __ZNSt3__14pairIPPNS_12basic_stringIcNS_11char_traitsIcEENS_9allocatorIcEEEES8_EC2B8ue170006IS8_S8_LPv0EEEOT_OT0_, symObjAddr: 0x16400, symBinAddr: 0x10001ABA0, symSize: 0x34 }
  - { offsetInCU: 0x46600, offset: 0x5DA54, size: 0x8, addend: 0x0, symName: __ZNSt3__14pairIPPNS_12basic_stringIcNS_11char_traitsIcEENS_9allocatorIcEEEES8_EC1B8ue170006IRS8_S8_LPv0EEEOT_OT0_, symObjAddr: 0x16550, symBinAddr: 0x10001ACF0, symSize: 0x3C }
  - { offsetInCU: 0x4665F, offset: 0x5DAB3, size: 0x8, addend: 0x0, symName: __ZNSt3__14pairIPPNS_12basic_stringIcNS_11char_traitsIcEENS_9allocatorIcEEEES8_EC2B8ue170006IRS8_S8_LPv0EEEOT_OT0_, symObjAddr: 0x1658C, symBinAddr: 0x10001AD2C, symSize: 0x34 }
  - { offsetInCU: 0x466BE, offset: 0x5DB12, size: 0x8, addend: 0x0, symName: __ZNSt3__118__unwrap_iter_implIPPNS_12basic_stringIcNS_11char_traitsIcEENS_9allocatorIcEEEELb1EE8__unwrapB8ue170006ES8_, symObjAddr: 0x165C0, symBinAddr: 0x10001AD60, symSize: 0x24 }
  - { offsetInCU: 0x466E1, offset: 0x5DB35, size: 0x8, addend: 0x0, symName: __ZNSt3__119__unwrap_range_implIPPNS_12basic_stringIcNS_11char_traitsIcEENS_9allocatorIcEEEES8_E8__rewrapB8ue170006ES8_S8_, symObjAddr: 0x165E4, symBinAddr: 0x10001AD84, symSize: 0x2C }
  - { offsetInCU: 0x46712, offset: 0x5DB66, size: 0x8, addend: 0x0, symName: __ZNSt3__118__unwrap_iter_implIPPNS_12basic_stringIcNS_11char_traitsIcEENS_9allocatorIcEEEELb1EE8__rewrapB8ue170006ES8_S8_, symObjAddr: 0x16610, symBinAddr: 0x10001ADB0, symSize: 0x50 }
  - { offsetInCU: 0x46743, offset: 0x5DB97, size: 0x8, addend: 0x0, symName: __ZNSt3__114__split_bufferIPNS_12basic_stringIcNS_11char_traitsIcEENS_9allocatorIcEEEERNS4_IS7_EEE28__construct_at_end_with_sizeINS_13move_iteratorIPS7_EEEEvT_m, symObjAddr: 0x16660, symBinAddr: 0x10001AE00, symSize: 0xDC }
  - { offsetInCU: 0x467A9, offset: 0x5DBFD, size: 0x8, addend: 0x0, symName: __ZNSt3__114__split_bufferIPNS_12basic_stringIcNS_11char_traitsIcEENS_9allocatorIcEEEERNS4_IS7_EEE21_ConstructTransactionC1B8ue170006EPPS7_m, symObjAddr: 0x16778, symBinAddr: 0x10001AF18, symSize: 0x3C }
  - { offsetInCU: 0x467EF, offset: 0x5DC43, size: 0x8, addend: 0x0, symName: __ZNSt3__116allocator_traitsINS_9allocatorIPNS_12basic_stringIcNS_11char_traitsIcEENS1_IcEEEEEEE9constructB8ue170006IS7_JS7_EvvEEvRS8_PT_DpOT0_, symObjAddr: 0x167B4, symBinAddr: 0x10001AF54, symSize: 0x30 }
  - { offsetInCU: 0x46844, offset: 0x5DC98, size: 0x8, addend: 0x0, symName: __ZNSt3__114__split_bufferIPNS_12basic_stringIcNS_11char_traitsIcEENS_9allocatorIcEEEERNS4_IS7_EEE7__allocB8ue170006Ev, symObjAddr: 0x167E4, symBinAddr: 0x10001AF84, symSize: 0x28 }
  - { offsetInCU: 0x4686A, offset: 0x5DCBE, size: 0x8, addend: 0x0, symName: __ZNKSt3__113move_iteratorIPPNS_12basic_stringIcNS_11char_traitsIcEENS_9allocatorIcEEEEEdeB8ue170006Ev, symObjAddr: 0x1680C, symBinAddr: 0x10001AFAC, symSize: 0x2C }
  - { offsetInCU: 0x46890, offset: 0x5DCE4, size: 0x8, addend: 0x0, symName: __ZNSt3__113move_iteratorIPPNS_12basic_stringIcNS_11char_traitsIcEENS_9allocatorIcEEEEEppB8ue170006Ev, symObjAddr: 0x16838, symBinAddr: 0x10001AFD8, symSize: 0x20 }
  - { offsetInCU: 0x468B6, offset: 0x5DD0A, size: 0x8, addend: 0x0, symName: __ZNSt3__114__split_bufferIPNS_12basic_stringIcNS_11char_traitsIcEENS_9allocatorIcEEEERNS4_IS7_EEE21_ConstructTransactionD1B8ue170006Ev, symObjAddr: 0x16858, symBinAddr: 0x10001AFF8, symSize: 0x2C }
  - { offsetInCU: 0x468E0, offset: 0x5DD34, size: 0x8, addend: 0x0, symName: __ZNSt3__114__split_bufferIPNS_12basic_stringIcNS_11char_traitsIcEENS_9allocatorIcEEEERNS4_IS7_EEE21_ConstructTransactionC2B8ue170006EPPS7_m, symObjAddr: 0x16884, symBinAddr: 0x10001B024, symSize: 0x44 }
  - { offsetInCU: 0x46926, offset: 0x5DD7A, size: 0x8, addend: 0x0, symName: __ZNSt3__117__compressed_pairIPPNS_12basic_stringIcNS_11char_traitsIcEENS_9allocatorIcEEEERNS4_IS7_EEE6secondB8ue170006Ev, symObjAddr: 0x168F4, symBinAddr: 0x10001B094, symSize: 0x28 }
  - { offsetInCU: 0x4694C, offset: 0x5DDA0, size: 0x8, addend: 0x0, symName: __ZNSt3__122__compressed_pair_elemIRNS_9allocatorIPNS_12basic_stringIcNS_11char_traitsIcEENS1_IcEEEEEELi1ELb0EE5__getB8ue170006Ev, symObjAddr: 0x1691C, symBinAddr: 0x10001B0BC, symSize: 0x18 }
  - { offsetInCU: 0x46977, offset: 0x5DDCB, size: 0x8, addend: 0x0, symName: __ZNKSt3__16ranges11__iter_move4__fnclB8ue170006IRKPPNS_12basic_stringIcNS_11char_traitsIcEENS_9allocatorIcEEEEEEDTclsr3stdE4movedeclsr3stdE7forwardIT_Efp_EEEOSE_, symObjAddr: 0x16934, symBinAddr: 0x10001B0D4, symSize: 0x1C }
  - { offsetInCU: 0x469B4, offset: 0x5DE08, size: 0x8, addend: 0x0, symName: __ZNSt3__114__split_bufferIPNS_12basic_stringIcNS_11char_traitsIcEENS_9allocatorIcEEEERNS4_IS7_EEE21_ConstructTransactionD2B8ue170006Ev, symObjAddr: 0x16950, symBinAddr: 0x10001B0F0, symSize: 0x20 }
  - { offsetInCU: 0x469DE, offset: 0x5DE32, size: 0x8, addend: 0x0, symName: __ZNKRSt3__113move_iteratorIPPNS_12basic_stringIcNS_11char_traitsIcEENS_9allocatorIcEEEEE4baseB8ue170006Ev, symObjAddr: 0x169EC, symBinAddr: 0x10001B18C, symSize: 0x14 }
  - { offsetInCU: 0x46A04, offset: 0x5DE58, size: 0x8, addend: 0x0, symName: __ZNSt3__113move_iteratorIPPNS_12basic_stringIcNS_11char_traitsIcEENS_9allocatorIcEEEEEC2B8ue170006ES8_, symObjAddr: 0x16A00, symBinAddr: 0x10001B1A0, symSize: 0x20 }
  - { offsetInCU: 0x46A46, offset: 0x5DE9A, size: 0x8, addend: 0x0, symName: __ZNKSt3__123__move_backward_trivialclB8ue170006IPNS_12basic_stringIcNS_11char_traitsIcEENS_9allocatorIcEEEES8_Li0EEENS_4pairIPT_PT0_EESB_SB_SD_, symObjAddr: 0x16BC8, symBinAddr: 0x10001B368, symSize: 0x48 }
  - { offsetInCU: 0x46AAE, offset: 0x5DF02, size: 0x8, addend: 0x0, symName: __ZNSt3__14pairIPPNS_12basic_stringIcNS_11char_traitsIcEENS_9allocatorIcEEEES8_EC1B8ue170006IRS8_SB_LPv0EEEOT_OT0_, symObjAddr: 0x16CD8, symBinAddr: 0x10001B478, symSize: 0x3C }
  - { offsetInCU: 0x46B0D, offset: 0x5DF61, size: 0x8, addend: 0x0, symName: __ZNSt3__14pairIPPNS_12basic_stringIcNS_11char_traitsIcEENS_9allocatorIcEEEES8_EC2B8ue170006IRS8_SB_LPv0EEEOT_OT0_, symObjAddr: 0x16D14, symBinAddr: 0x10001B4B4, symSize: 0x34 }
  - { offsetInCU: 0x46B6C, offset: 0x5DFC0, size: 0x8, addend: 0x0, symName: __ZNSt3__114__split_bufferIPNS_12basic_stringIcNS_11char_traitsIcEENS_9allocatorIcEEEERNS4_IS7_EEEC2EmmS9_, symObjAddr: 0x16D48, symBinAddr: 0x10001B4E8, symSize: 0xD4 }
  - { offsetInCU: 0x46BDF, offset: 0x5E033, size: 0x8, addend: 0x0, symName: __ZNSt3__117__compressed_pairIPPNS_12basic_stringIcNS_11char_traitsIcEENS_9allocatorIcEEEERNS4_IS7_EEEC1B8ue170006IDnSA_EEOT_OT0_, symObjAddr: 0x16E1C, symBinAddr: 0x10001B5BC, symSize: 0x3C }
  - { offsetInCU: 0x46C37, offset: 0x5E08B, size: 0x8, addend: 0x0, symName: __ZNSt3__117__compressed_pairIPPNS_12basic_stringIcNS_11char_traitsIcEENS_9allocatorIcEEEERNS4_IS7_EEEC2B8ue170006IDnSA_EEOT_OT0_, symObjAddr: 0x16E98, symBinAddr: 0x10001B638, symSize: 0x48 }
  - { offsetInCU: 0x46C8F, offset: 0x5E0E3, size: 0x8, addend: 0x0, symName: __ZNSt3__122__compressed_pair_elemIRNS_9allocatorIPNS_12basic_stringIcNS_11char_traitsIcEENS1_IcEEEEEELi1ELb0EEC2B8ue170006IS9_vEEOT_, symObjAddr: 0x16EE0, symBinAddr: 0x10001B680, symSize: 0x20 }
  - { offsetInCU: 0x46CD1, offset: 0x5E125, size: 0x8, addend: 0x0, symName: __ZNSt3__19allocatorIPNS_12basic_stringIcNS_11char_traitsIcEENS0_IcEEEEE8allocateB8ue170006Em, symObjAddr: 0x16F00, symBinAddr: 0x10001B6A0, symSize: 0x58 }
  - { offsetInCU: 0x46D0F, offset: 0x5E163, size: 0x8, addend: 0x0, symName: __ZNSt3__116allocator_traitsINS_9allocatorIPNS_12basic_stringIcNS_11char_traitsIcEENS1_IcEEEEEEE8max_sizeB8ue170006IS8_vvEEmRKS8_, symObjAddr: 0x16F58, symBinAddr: 0x10001B6F8, symSize: 0x28 }
  - { offsetInCU: 0x46D3B, offset: 0x5E18F, size: 0x8, addend: 0x0, symName: __ZNSt3__122__allocator_destructorINS_9allocatorINS_12basic_stringIcNS_11char_traitsIcEENS1_IcEEEEEEEC2B8ue170006ERS7_m, symObjAddr: 0x16F80, symBinAddr: 0x10001B720, symSize: 0x2C }
  - { offsetInCU: 0x46D81, offset: 0x5E1D5, size: 0x8, addend: 0x0, symName: __ZNSt3__110unique_ptrIPNS_12basic_stringIcNS_11char_traitsIcEENS_9allocatorIcEEEENS_22__allocator_destructorINS4_IS6_EEEEEC2B8ue170006ILb1EvEES7_NS_16__dependent_typeINS_27__unique_ptr_deleter_sfinaeISA_EEXT_EE20__good_rval_ref_typeE, symObjAddr: 0x16FAC, symBinAddr: 0x10001B74C, symSize: 0x48 }
  - { offsetInCU: 0x46DD2, offset: 0x5E226, size: 0x8, addend: 0x0, symName: __ZNSt3__117__compressed_pairIPNS_12basic_stringIcNS_11char_traitsIcEENS_9allocatorIcEEEENS_22__allocator_destructorINS4_IS6_EEEEEC1B8ue170006IRS7_SA_EEOT_OT0_, symObjAddr: 0x16FF4, symBinAddr: 0x10001B794, symSize: 0x3C }
  - { offsetInCU: 0x46E2A, offset: 0x5E27E, size: 0x8, addend: 0x0, symName: __ZNSt3__117__compressed_pairIPNS_12basic_stringIcNS_11char_traitsIcEENS_9allocatorIcEEEENS_22__allocator_destructorINS4_IS6_EEEEEC2B8ue170006IRS7_SA_EEOT_OT0_, symObjAddr: 0x17030, symBinAddr: 0x10001B7D0, symSize: 0x48 }
  - { offsetInCU: 0x46E82, offset: 0x5E2D6, size: 0x8, addend: 0x0, symName: __ZNSt3__122__compressed_pair_elemIPNS_12basic_stringIcNS_11char_traitsIcEENS_9allocatorIcEEEELi0ELb0EEC2B8ue170006IRS7_vEEOT_, symObjAddr: 0x17078, symBinAddr: 0x10001B818, symSize: 0x24 }
  - { offsetInCU: 0x46EC4, offset: 0x5E318, size: 0x8, addend: 0x0, symName: __ZNSt3__122__compressed_pair_elemINS_22__allocator_destructorINS_9allocatorINS_12basic_stringIcNS_11char_traitsIcEENS2_IcEEEEEEEELi1ELb0EEC2B8ue170006IS9_vEEOT_, symObjAddr: 0x1709C, symBinAddr: 0x10001B83C, symSize: 0x24 }
  - { offsetInCU: 0x46F06, offset: 0x5E35A, size: 0x8, addend: 0x0, symName: __ZNKSt3__117__compressed_pairIPNS_12basic_stringIcNS_11char_traitsIcEENS_9allocatorIcEEEENS_22__allocator_destructorINS4_IS6_EEEEE5firstB8ue170006Ev, symObjAddr: 0x170C0, symBinAddr: 0x10001B860, symSize: 0x24 }
  - { offsetInCU: 0x46F2C, offset: 0x5E380, size: 0x8, addend: 0x0, symName: __ZNSt3__117__compressed_pairIPNS_12basic_stringIcNS_11char_traitsIcEENS_9allocatorIcEEEENS_22__allocator_destructorINS4_IS6_EEEEE5firstB8ue170006Ev, symObjAddr: 0x170E4, symBinAddr: 0x10001B884, symSize: 0x24 }
  - { offsetInCU: 0x46F52, offset: 0x5E3A6, size: 0x8, addend: 0x0, symName: __ZNSt3__117__compressed_pairIPPNS_12basic_stringIcNS_11char_traitsIcEENS_9allocatorIcEEEENS4_IS7_EEE5firstB8ue170006Ev, symObjAddr: 0x17108, symBinAddr: 0x10001B8A8, symSize: 0x24 }
  - { offsetInCU: 0x46F78, offset: 0x5E3CC, size: 0x8, addend: 0x0, symName: __ZNSt3__122__compressed_pair_elemIPPNS_12basic_stringIcNS_11char_traitsIcEENS_9allocatorIcEEEELi0ELb0EE5__getB8ue170006Ev, symObjAddr: 0x1712C, symBinAddr: 0x10001B8CC, symSize: 0x14 }
  - { offsetInCU: 0x46F9E, offset: 0x5E3F2, size: 0x8, addend: 0x0, symName: __ZNSt3__117__compressed_pairIPPNS_12basic_stringIcNS_11char_traitsIcEENS_9allocatorIcEEEERNS4_IS7_EEE5firstB8ue170006Ev, symObjAddr: 0x17140, symBinAddr: 0x10001B8E0, symSize: 0x24 }
  - { offsetInCU: 0x46FC4, offset: 0x5E418, size: 0x8, addend: 0x0, symName: __ZNSt3__110unique_ptrIPNS_12basic_stringIcNS_11char_traitsIcEENS_9allocatorIcEEEENS_22__allocator_destructorINS4_IS6_EEEEED2B8ue170006Ev, symObjAddr: 0x17164, symBinAddr: 0x10001B904, symSize: 0x30 }
  - { offsetInCU: 0x46FEE, offset: 0x5E442, size: 0x8, addend: 0x0, symName: __ZNSt3__110unique_ptrIPNS_12basic_stringIcNS_11char_traitsIcEENS_9allocatorIcEEEENS_22__allocator_destructorINS4_IS6_EEEEE5resetB8ue170006ES7_, symObjAddr: 0x17194, symBinAddr: 0x10001B934, symSize: 0x78 }
  - { offsetInCU: 0x47032, offset: 0x5E486, size: 0x8, addend: 0x0, symName: __ZNSt3__117__compressed_pairIPNS_12basic_stringIcNS_11char_traitsIcEENS_9allocatorIcEEEENS_22__allocator_destructorINS4_IS6_EEEEE6secondB8ue170006Ev, symObjAddr: 0x1720C, symBinAddr: 0x10001B9AC, symSize: 0x28 }
  - { offsetInCU: 0x47058, offset: 0x5E4AC, size: 0x8, addend: 0x0, symName: __ZNSt3__122__allocator_destructorINS_9allocatorINS_12basic_stringIcNS_11char_traitsIcEENS1_IcEEEEEEEclB8ue170006EPS6_, symObjAddr: 0x17234, symBinAddr: 0x10001B9D4, symSize: 0x34 }
  - { offsetInCU: 0x4708C, offset: 0x5E4E0, size: 0x8, addend: 0x0, symName: __ZNSt3__122__compressed_pair_elemINS_22__allocator_destructorINS_9allocatorINS_12basic_stringIcNS_11char_traitsIcEENS2_IcEEEEEEEELi1ELb0EE5__getB8ue170006Ev, symObjAddr: 0x17268, symBinAddr: 0x10001BA08, symSize: 0x14 }
  - { offsetInCU: 0x470B2, offset: 0x5E506, size: 0x8, addend: 0x0, symName: __ZNSt3__114__split_bufferIPNS_12basic_stringIcNS_11char_traitsIcEENS_9allocatorIcEEEERNS4_IS7_EEED2Ev, symObjAddr: 0x1727C, symBinAddr: 0x10001BA1C, symSize: 0x8C }
  - { offsetInCU: 0x470DE, offset: 0x5E532, size: 0x8, addend: 0x0, symName: __ZNSt3__114__split_bufferIPNS_12basic_stringIcNS_11char_traitsIcEENS_9allocatorIcEEEERNS4_IS7_EEE5clearB8ue170006Ev, symObjAddr: 0x17308, symBinAddr: 0x10001BAA8, symSize: 0x28 }
  - { offsetInCU: 0x47104, offset: 0x5E558, size: 0x8, addend: 0x0, symName: __ZNKSt3__114__split_bufferIPNS_12basic_stringIcNS_11char_traitsIcEENS_9allocatorIcEEEERNS4_IS7_EEE8capacityB8ue170006Ev, symObjAddr: 0x17330, symBinAddr: 0x10001BAD0, symSize: 0x40 }
  - { offsetInCU: 0x4712A, offset: 0x5E57E, size: 0x8, addend: 0x0, symName: __ZNSt3__114__split_bufferIPNS_12basic_stringIcNS_11char_traitsIcEENS_9allocatorIcEEEERNS4_IS7_EEE17__destruct_at_endB8ue170006EPS7_, symObjAddr: 0x17370, symBinAddr: 0x10001BB10, symSize: 0x2C }
  - { offsetInCU: 0x4715E, offset: 0x5E5B2, size: 0x8, addend: 0x0, symName: __ZNSt3__114__split_bufferIPNS_12basic_stringIcNS_11char_traitsIcEENS_9allocatorIcEEEERNS4_IS7_EEE17__destruct_at_endB8ue170006EPS7_NS_17integral_constantIbLb0EEE, symObjAddr: 0x1739C, symBinAddr: 0x10001BB3C, symSize: 0x80 }
  - { offsetInCU: 0x4719F, offset: 0x5E5F3, size: 0x8, addend: 0x0, symName: __ZNKSt3__114__split_bufferIPNS_12basic_stringIcNS_11char_traitsIcEENS_9allocatorIcEEEERNS4_IS7_EEE9__end_capB8ue170006Ev, symObjAddr: 0x1741C, symBinAddr: 0x10001BBBC, symSize: 0x28 }
  - { offsetInCU: 0x471C5, offset: 0x5E619, size: 0x8, addend: 0x0, symName: __ZNKSt3__117__compressed_pairIPPNS_12basic_stringIcNS_11char_traitsIcEENS_9allocatorIcEEEERNS4_IS7_EEE5firstB8ue170006Ev, symObjAddr: 0x17444, symBinAddr: 0x10001BBE4, symSize: 0x24 }
  - { offsetInCU: 0x471EB, offset: 0x5E63F, size: 0x8, addend: 0x0, symName: __ZNSt3__16__treeINS_12__value_typeINS_12basic_stringIcNS_11char_traitsIcEENS_9allocatorIcEEEES7_EENS_19__map_value_compareIS7_S8_NS_4lessIS7_EELb1EEENS5_IS8_EEE15__insert_uniqueB8ue170006EONS_4pairIKS7_S7_EE, symObjAddr: 0x17468, symBinAddr: 0x10001BC08, symSize: 0x50 }
  - { offsetInCU: 0x47220, offset: 0x5E674, size: 0x8, addend: 0x0, symName: __ZNSt3__14pairINS_14__map_iteratorINS_15__tree_iteratorINS_12__value_typeINS_12basic_stringIcNS_11char_traitsIcEENS_9allocatorIcEEEES9_EEPNS_11__tree_nodeISA_PvEElEEEEbEC1B8ue170006ISF_bLSC_0EEEONS0_IT_T0_EE, symObjAddr: 0x174B8, symBinAddr: 0x10001BC58, symSize: 0x34 }
  - { offsetInCU: 0x47272, offset: 0x5E6C6, size: 0x8, addend: 0x0, symName: __ZNSt3__16__treeINS_12__value_typeINS_12basic_stringIcNS_11char_traitsIcEENS_9allocatorIcEEEES7_EENS_19__map_value_compareIS7_S8_NS_4lessIS7_EELb1EEENS5_IS8_EEE25__emplace_unique_key_argsIS7_JNS_4pairIKS7_S7_EEEEENSG_INS_15__tree_iteratorIS8_PNS_11__tree_nodeIS8_PvEElEEbEERKT_DpOT0_, symObjAddr: 0x174EC, symBinAddr: 0x10001BC8C, symSize: 0xF0 }
  - { offsetInCU: 0x4731E, offset: 0x5E772, size: 0x8, addend: 0x0, symName: __ZNSt3__122__tree_key_value_typesINS_12__value_typeINS_12basic_stringIcNS_11char_traitsIcEENS_9allocatorIcEEEES7_EEE9__get_keyB8ue170006INS_4pairIKS7_S7_EEEENS_9enable_ifIXsr17__is_same_uncvrefIT_SD_EE5valueERSC_E4typeERSF_, symObjAddr: 0x175DC, symBinAddr: 0x10001BD7C, symSize: 0x14 }
  - { offsetInCU: 0x4734B, offset: 0x5E79F, size: 0x8, addend: 0x0, symName: __ZNSt3__16__treeINS_12__value_typeINS_12basic_stringIcNS_11char_traitsIcEENS_9allocatorIcEEEES7_EENS_19__map_value_compareIS7_S8_NS_4lessIS7_EELb1EEENS5_IS8_EEE12__find_equalIS7_EERPNS_16__tree_node_baseIPvEERPNS_15__tree_end_nodeISJ_EERKT_, symObjAddr: 0x175F0, symBinAddr: 0x10001BD90, symSize: 0x184 }
  - { offsetInCU: 0x473B8, offset: 0x5E80C, size: 0x8, addend: 0x0, symName: __ZNSt3__16__treeINS_12__value_typeINS_12basic_stringIcNS_11char_traitsIcEENS_9allocatorIcEEEES7_EENS_19__map_value_compareIS7_S8_NS_4lessIS7_EELb1EEENS5_IS8_EEE16__construct_nodeIJNS_4pairIKS7_S7_EEEEENS_10unique_ptrINS_11__tree_nodeIS8_PvEENS_22__tree_node_destructorINS5_ISM_EEEEEEDpOT_, symObjAddr: 0x17774, symBinAddr: 0x10001BF14, symSize: 0x110 }
  - { offsetInCU: 0x47419, offset: 0x5E86D, size: 0x8, addend: 0x0, symName: __ZNSt3__16__treeINS_12__value_typeINS_12basic_stringIcNS_11char_traitsIcEENS_9allocatorIcEEEES7_EENS_19__map_value_compareIS7_S8_NS_4lessIS7_EELb1EEENS5_IS8_EEE16__insert_node_atEPNS_15__tree_end_nodeIPNS_16__tree_node_baseIPvEEEERSJ_SJ_, symObjAddr: 0x17884, symBinAddr: 0x10001C024, symSize: 0xCC }
  - { offsetInCU: 0x4746E, offset: 0x5E8C2, size: 0x8, addend: 0x0, symName: __ZNKSt3__110unique_ptrINS_11__tree_nodeINS_12__value_typeINS_12basic_stringIcNS_11char_traitsIcEENS_9allocatorIcEEEES8_EEPvEENS_22__tree_node_destructorINS6_ISB_EEEEE3getB8ue170006Ev, symObjAddr: 0x17950, symBinAddr: 0x10001C0F0, symSize: 0x28 }
  - { offsetInCU: 0x47494, offset: 0x5E8E8, size: 0x8, addend: 0x0, symName: __ZNSt3__110unique_ptrINS_11__tree_nodeINS_12__value_typeINS_12basic_stringIcNS_11char_traitsIcEENS_9allocatorIcEEEES8_EEPvEENS_22__tree_node_destructorINS6_ISB_EEEEE7releaseB8ue170006Ev, symObjAddr: 0x17978, symBinAddr: 0x10001C118, symSize: 0x44 }
  - { offsetInCU: 0x474C9, offset: 0x5E91D, size: 0x8, addend: 0x0, symName: __ZNSt3__110unique_ptrINS_11__tree_nodeINS_12__value_typeINS_12basic_stringIcNS_11char_traitsIcEENS_9allocatorIcEEEES8_EEPvEENS_22__tree_node_destructorINS6_ISB_EEEEED1B8ue170006Ev, symObjAddr: 0x179BC, symBinAddr: 0x10001C15C, symSize: 0x2C }
  - { offsetInCU: 0x474F3, offset: 0x5E947, size: 0x8, addend: 0x0, symName: __ZNSt3__115__tree_iteratorINS_12__value_typeINS_12basic_stringIcNS_11char_traitsIcEENS_9allocatorIcEEEES7_EEPNS_11__tree_nodeIS8_PvEElEC1B8ue170006ESC_, symObjAddr: 0x179E8, symBinAddr: 0x10001C188, symSize: 0x34 }
  - { offsetInCU: 0x47531, offset: 0x5E985, size: 0x8, addend: 0x0, symName: __ZNSt3__14pairINS_15__tree_iteratorINS_12__value_typeINS_12basic_stringIcNS_11char_traitsIcEENS_9allocatorIcEEEES8_EEPNS_11__tree_nodeIS9_PvEElEEbEC1B8ue170006ISE_RbLSB_0EEEOT_OT0_, symObjAddr: 0x17A1C, symBinAddr: 0x10001C1BC, symSize: 0x3C }
  - { offsetInCU: 0x47590, offset: 0x5E9E4, size: 0x8, addend: 0x0, symName: __ZNKSt3__16__treeINS_12__value_typeINS_12basic_stringIcNS_11char_traitsIcEENS_9allocatorIcEEEES7_EENS_19__map_value_compareIS7_S8_NS_4lessIS7_EELb1EEENS5_IS8_EEE10__root_ptrB8ue170006Ev, symObjAddr: 0x17A58, symBinAddr: 0x10001C1F8, symSize: 0x24 }
  - { offsetInCU: 0x475B6, offset: 0x5EA0A, size: 0x8, addend: 0x0, symName: __ZNSt3__16__treeINS_12__value_typeINS_12basic_stringIcNS_11char_traitsIcEENS_9allocatorIcEEEES7_EENS_19__map_value_compareIS7_S8_NS_4lessIS7_EELb1EEENS5_IS8_EEE10value_compB8ue170006Ev, symObjAddr: 0x17A7C, symBinAddr: 0x10001C21C, symSize: 0x28 }
  - { offsetInCU: 0x475DC, offset: 0x5EA30, size: 0x8, addend: 0x0, symName: __ZNKSt3__119__map_value_compareINS_12basic_stringIcNS_11char_traitsIcEENS_9allocatorIcEEEENS_12__value_typeIS6_S6_EENS_4lessIS6_EELb1EEclB8ue170006ERKS6_RKS8_, symObjAddr: 0x17AA4, symBinAddr: 0x10001C244, symSize: 0x50 }
  - { offsetInCU: 0x47620, offset: 0x5EA74, size: 0x8, addend: 0x0, symName: __ZNKSt3__119__map_value_compareINS_12basic_stringIcNS_11char_traitsIcEENS_9allocatorIcEEEENS_12__value_typeIS6_S6_EENS_4lessIS6_EELb1EEclB8ue170006ERKS8_RKS6_, symObjAddr: 0x17AF4, symBinAddr: 0x10001C294, symSize: 0x48 }
  - { offsetInCU: 0x47664, offset: 0x5EAB8, size: 0x8, addend: 0x0, symName: __ZNSt3__117__compressed_pairImNS_19__map_value_compareINS_12basic_stringIcNS_11char_traitsIcEENS_9allocatorIcEEEENS_12__value_typeIS7_S7_EENS_4lessIS7_EELb1EEEE6secondB8ue170006Ev, symObjAddr: 0x17B3C, symBinAddr: 0x10001C2DC, symSize: 0x24 }
  - { offsetInCU: 0x4768A, offset: 0x5EADE, size: 0x8, addend: 0x0, symName: __ZNSt3__122__compressed_pair_elemINS_19__map_value_compareINS_12basic_stringIcNS_11char_traitsIcEENS_9allocatorIcEEEENS_12__value_typeIS7_S7_EENS_4lessIS7_EELb1EEELi1ELb1EE5__getB8ue170006Ev, symObjAddr: 0x17B60, symBinAddr: 0x10001C300, symSize: 0x14 }
  - { offsetInCU: 0x476B0, offset: 0x5EB04, size: 0x8, addend: 0x0, symName: __ZNKSt3__112__value_typeINS_12basic_stringIcNS_11char_traitsIcEENS_9allocatorIcEEEES6_E11__get_valueB8ue170006Ev, symObjAddr: 0x17B74, symBinAddr: 0x10001C314, symSize: 0x24 }
  - { offsetInCU: 0x476D6, offset: 0x5EB2A, size: 0x8, addend: 0x0, symName: __ZNSt3__116allocator_traitsINS_9allocatorINS_11__tree_nodeINS_12__value_typeINS_12basic_stringIcNS_11char_traitsIcEENS1_IcEEEES8_EEPvEEEEE8allocateB8ue170006ERSC_m, symObjAddr: 0x17BD0, symBinAddr: 0x10001C370, symSize: 0x2C }
  - { offsetInCU: 0x47709, offset: 0x5EB5D, size: 0x8, addend: 0x0, symName: __ZNSt3__122__tree_node_destructorINS_9allocatorINS_11__tree_nodeINS_12__value_typeINS_12basic_stringIcNS_11char_traitsIcEENS1_IcEEEES8_EEPvEEEEEC1B8ue170006ERSC_b, symObjAddr: 0x17BFC, symBinAddr: 0x10001C39C, symSize: 0x48 }
  - { offsetInCU: 0x47756, offset: 0x5EBAA, size: 0x8, addend: 0x0, symName: __ZNSt3__110unique_ptrINS_11__tree_nodeINS_12__value_typeINS_12basic_stringIcNS_11char_traitsIcEENS_9allocatorIcEEEES8_EEPvEENS_22__tree_node_destructorINS6_ISB_EEEEEC1B8ue170006ILb1EvEEPSB_NS_16__dependent_typeINS_27__unique_ptr_deleter_sfinaeISE_EEXT_EE20__good_rval_ref_typeE, symObjAddr: 0x17C44, symBinAddr: 0x10001C3E4, symSize: 0x3C }
  - { offsetInCU: 0x477A7, offset: 0x5EBFB, size: 0x8, addend: 0x0, symName: __ZNSt3__116allocator_traitsINS_9allocatorINS_11__tree_nodeINS_12__value_typeINS_12basic_stringIcNS_11char_traitsIcEENS1_IcEEEES8_EEPvEEEEE9constructB8ue170006INS_4pairIKS8_S8_EEJSH_EvvEEvRSC_PT_DpOT0_, symObjAddr: 0x17C80, symBinAddr: 0x10001C420, symSize: 0x30 }
  - { offsetInCU: 0x477FC, offset: 0x5EC50, size: 0x8, addend: 0x0, symName: __ZNKSt3__110unique_ptrINS_11__tree_nodeINS_12__value_typeINS_12basic_stringIcNS_11char_traitsIcEENS_9allocatorIcEEEES8_EEPvEENS_22__tree_node_destructorINS6_ISB_EEEEEptB8ue170006Ev, symObjAddr: 0x17CB0, symBinAddr: 0x10001C450, symSize: 0x28 }
  - { offsetInCU: 0x47822, offset: 0x5EC76, size: 0x8, addend: 0x0, symName: __ZNSt3__110unique_ptrINS_11__tree_nodeINS_12__value_typeINS_12basic_stringIcNS_11char_traitsIcEENS_9allocatorIcEEEES8_EEPvEENS_22__tree_node_destructorINS6_ISB_EEEEE11get_deleterB8ue170006Ev, symObjAddr: 0x17CD8, symBinAddr: 0x10001C478, symSize: 0x24 }
  - { offsetInCU: 0x47848, offset: 0x5EC9C, size: 0x8, addend: 0x0, symName: __ZNSt3__19allocatorINS_11__tree_nodeINS_12__value_typeINS_12basic_stringIcNS_11char_traitsIcEENS0_IcEEEES7_EEPvEEE8allocateB8ue170006Em, symObjAddr: 0x17CFC, symBinAddr: 0x10001C49C, symSize: 0x5C }
  - { offsetInCU: 0x47886, offset: 0x5ECDA, size: 0x8, addend: 0x0, symName: __ZNSt3__116allocator_traitsINS_9allocatorINS_11__tree_nodeINS_12__value_typeINS_12basic_stringIcNS_11char_traitsIcEENS1_IcEEEES8_EEPvEEEEE8max_sizeB8ue170006ISC_vvEEmRKSC_, symObjAddr: 0x17D58, symBinAddr: 0x10001C4F8, symSize: 0x28 }
  - { offsetInCU: 0x478B2, offset: 0x5ED06, size: 0x8, addend: 0x0, symName: __ZNSt3__122__tree_node_destructorINS_9allocatorINS_11__tree_nodeINS_12__value_typeINS_12basic_stringIcNS_11char_traitsIcEENS1_IcEEEES8_EEPvEEEEEC2B8ue170006ERSC_b, symObjAddr: 0x17D80, symBinAddr: 0x10001C520, symSize: 0x38 }
  - { offsetInCU: 0x478FA, offset: 0x5ED4E, size: 0x8, addend: 0x0, symName: __ZNSt3__110unique_ptrINS_11__tree_nodeINS_12__value_typeINS_12basic_stringIcNS_11char_traitsIcEENS_9allocatorIcEEEES8_EEPvEENS_22__tree_node_destructorINS6_ISB_EEEEEC2B8ue170006ILb1EvEEPSB_NS_16__dependent_typeINS_27__unique_ptr_deleter_sfinaeISE_EEXT_EE20__good_rval_ref_typeE, symObjAddr: 0x17DB8, symBinAddr: 0x10001C558, symSize: 0x48 }
  - { offsetInCU: 0x4794B, offset: 0x5ED9F, size: 0x8, addend: 0x0, symName: __ZNSt3__117__compressed_pairIPNS_11__tree_nodeINS_12__value_typeINS_12basic_stringIcNS_11char_traitsIcEENS_9allocatorIcEEEES8_EEPvEENS_22__tree_node_destructorINS6_ISB_EEEEEC1B8ue170006IRSC_SF_EEOT_OT0_, symObjAddr: 0x17E00, symBinAddr: 0x10001C5A0, symSize: 0x3C }
  - { offsetInCU: 0x479A3, offset: 0x5EDF7, size: 0x8, addend: 0x0, symName: __ZNSt3__117__compressed_pairIPNS_11__tree_nodeINS_12__value_typeINS_12basic_stringIcNS_11char_traitsIcEENS_9allocatorIcEEEES8_EEPvEENS_22__tree_node_destructorINS6_ISB_EEEEEC2B8ue170006IRSC_SF_EEOT_OT0_, symObjAddr: 0x17E3C, symBinAddr: 0x10001C5DC, symSize: 0x48 }
  - { offsetInCU: 0x479FB, offset: 0x5EE4F, size: 0x8, addend: 0x0, symName: __ZNSt3__122__compressed_pair_elemIPNS_11__tree_nodeINS_12__value_typeINS_12basic_stringIcNS_11char_traitsIcEENS_9allocatorIcEEEES8_EEPvEELi0ELb0EEC2B8ue170006IRSC_vEEOT_, symObjAddr: 0x17E84, symBinAddr: 0x10001C624, symSize: 0x24 }
  - { offsetInCU: 0x47A3D, offset: 0x5EE91, size: 0x8, addend: 0x0, symName: __ZNSt3__122__compressed_pair_elemINS_22__tree_node_destructorINS_9allocatorINS_11__tree_nodeINS_12__value_typeINS_12basic_stringIcNS_11char_traitsIcEENS2_IcEEEES9_EEPvEEEEEELi1ELb0EEC2B8ue170006ISE_vEEOT_, symObjAddr: 0x17EA8, symBinAddr: 0x10001C648, symSize: 0x24 }
  - { offsetInCU: 0x47A7F, offset: 0x5EED3, size: 0x8, addend: 0x0, symName: __ZNSt3__14pairIKNS_12basic_stringIcNS_11char_traitsIcEENS_9allocatorIcEEEES6_EC1B8ue170006EOS8_, symObjAddr: 0x17F08, symBinAddr: 0x10001C6A8, symSize: 0x34 }
  - { offsetInCU: 0x47AB4, offset: 0x5EF08, size: 0x8, addend: 0x0, symName: __ZNSt3__14pairIKNS_12basic_stringIcNS_11char_traitsIcEENS_9allocatorIcEEEES6_EC2B8ue170006EOS8_, symObjAddr: 0x17F3C, symBinAddr: 0x10001C6DC, symSize: 0x48 }
  - { offsetInCU: 0x47AE9, offset: 0x5EF3D, size: 0x8, addend: 0x0, symName: __ZNKSt3__117__compressed_pairIPNS_11__tree_nodeINS_12__value_typeINS_12basic_stringIcNS_11char_traitsIcEENS_9allocatorIcEEEES8_EEPvEENS_22__tree_node_destructorINS6_ISB_EEEEE5firstB8ue170006Ev, symObjAddr: 0x17F84, symBinAddr: 0x10001C724, symSize: 0x24 }
  - { offsetInCU: 0x47B0F, offset: 0x5EF63, size: 0x8, addend: 0x0, symName: __ZNKSt3__122__compressed_pair_elemIPNS_11__tree_nodeINS_12__value_typeINS_12basic_stringIcNS_11char_traitsIcEENS_9allocatorIcEEEES8_EEPvEELi0ELb0EE5__getB8ue170006Ev, symObjAddr: 0x17FA8, symBinAddr: 0x10001C748, symSize: 0x14 }
  - { offsetInCU: 0x47B35, offset: 0x5EF89, size: 0x8, addend: 0x0, symName: __ZNSt3__117__compressed_pairIPNS_11__tree_nodeINS_12__value_typeINS_12basic_stringIcNS_11char_traitsIcEENS_9allocatorIcEEEES8_EEPvEENS_22__tree_node_destructorINS6_ISB_EEEEE6secondB8ue170006Ev, symObjAddr: 0x17FBC, symBinAddr: 0x10001C75C, symSize: 0x28 }
  - { offsetInCU: 0x47B5B, offset: 0x5EFAF, size: 0x8, addend: 0x0, symName: __ZNSt3__122__compressed_pair_elemINS_22__tree_node_destructorINS_9allocatorINS_11__tree_nodeINS_12__value_typeINS_12basic_stringIcNS_11char_traitsIcEENS2_IcEEEES9_EEPvEEEEEELi1ELb0EE5__getB8ue170006Ev, symObjAddr: 0x17FE4, symBinAddr: 0x10001C784, symSize: 0x14 }
  - { offsetInCU: 0x47B81, offset: 0x5EFD5, size: 0x8, addend: 0x0, symName: __ZNSt3__16__treeINS_12__value_typeINS_12basic_stringIcNS_11char_traitsIcEENS_9allocatorIcEEEES7_EENS_19__map_value_compareIS7_S8_NS_4lessIS7_EELb1EEENS5_IS8_EEE4sizeB8ue170006Ev, symObjAddr: 0x17FF8, symBinAddr: 0x10001C798, symSize: 0x28 }
  - { offsetInCU: 0x47BA7, offset: 0x5EFFB, size: 0x8, addend: 0x0, symName: __ZNSt3__117__compressed_pairImNS_19__map_value_compareINS_12basic_stringIcNS_11char_traitsIcEENS_9allocatorIcEEEENS_12__value_typeIS7_S7_EENS_4lessIS7_EELb1EEEE5firstB8ue170006Ev, symObjAddr: 0x18020, symBinAddr: 0x10001C7C0, symSize: 0x24 }
  - { offsetInCU: 0x47BCD, offset: 0x5F021, size: 0x8, addend: 0x0, symName: __ZNSt3__117__compressed_pairIPNS_11__tree_nodeINS_12__value_typeINS_12basic_stringIcNS_11char_traitsIcEENS_9allocatorIcEEEES8_EEPvEENS_22__tree_node_destructorINS6_ISB_EEEEE5firstB8ue170006Ev, symObjAddr: 0x18044, symBinAddr: 0x10001C7E4, symSize: 0x24 }
  - { offsetInCU: 0x47BF3, offset: 0x5F047, size: 0x8, addend: 0x0, symName: __ZNSt3__122__compressed_pair_elemIPNS_11__tree_nodeINS_12__value_typeINS_12basic_stringIcNS_11char_traitsIcEENS_9allocatorIcEEEES8_EEPvEELi0ELb0EE5__getB8ue170006Ev, symObjAddr: 0x18068, symBinAddr: 0x10001C808, symSize: 0x14 }
  - { offsetInCU: 0x47C19, offset: 0x5F06D, size: 0x8, addend: 0x0, symName: __ZNSt3__110unique_ptrINS_11__tree_nodeINS_12__value_typeINS_12basic_stringIcNS_11char_traitsIcEENS_9allocatorIcEEEES8_EEPvEENS_22__tree_node_destructorINS6_ISB_EEEEED2B8ue170006Ev, symObjAddr: 0x1807C, symBinAddr: 0x10001C81C, symSize: 0x30 }
  - { offsetInCU: 0x47C43, offset: 0x5F097, size: 0x8, addend: 0x0, symName: __ZNSt3__110unique_ptrINS_11__tree_nodeINS_12__value_typeINS_12basic_stringIcNS_11char_traitsIcEENS_9allocatorIcEEEES8_EEPvEENS_22__tree_node_destructorINS6_ISB_EEEEE5resetB8ue170006EPSB_, symObjAddr: 0x180AC, symBinAddr: 0x10001C84C, symSize: 0x78 }
  - { offsetInCU: 0x47C87, offset: 0x5F0DB, size: 0x8, addend: 0x0, symName: __ZNSt3__122__tree_node_destructorINS_9allocatorINS_11__tree_nodeINS_12__value_typeINS_12basic_stringIcNS_11char_traitsIcEENS1_IcEEEES8_EEPvEEEEEclB8ue170006EPSB_, symObjAddr: 0x18124, symBinAddr: 0x10001C8C4, symSize: 0x98 }
  - { offsetInCU: 0x47CBC, offset: 0x5F110, size: 0x8, addend: 0x0, symName: __ZNSt3__115__tree_iteratorINS_12__value_typeINS_12basic_stringIcNS_11char_traitsIcEENS_9allocatorIcEEEES7_EEPNS_11__tree_nodeIS8_PvEElEC2B8ue170006ESC_, symObjAddr: 0x181BC, symBinAddr: 0x10001C95C, symSize: 0x20 }
  - { offsetInCU: 0x47CF5, offset: 0x5F149, size: 0x8, addend: 0x0, symName: __ZNSt3__14pairINS_15__tree_iteratorINS_12__value_typeINS_12basic_stringIcNS_11char_traitsIcEENS_9allocatorIcEEEES8_EEPNS_11__tree_nodeIS9_PvEElEEbEC2B8ue170006ISE_RbLSB_0EEEOT_OT0_, symObjAddr: 0x181DC, symBinAddr: 0x10001C97C, symSize: 0x38 }
  - { offsetInCU: 0x47D54, offset: 0x5F1A8, size: 0x8, addend: 0x0, symName: __ZNSt3__14pairINS_14__map_iteratorINS_15__tree_iteratorINS_12__value_typeINS_12basic_stringIcNS_11char_traitsIcEENS_9allocatorIcEEEES9_EEPNS_11__tree_nodeISA_PvEElEEEEbEC2B8ue170006ISF_bLSC_0EEEONS0_IT_T0_EE, symObjAddr: 0x18214, symBinAddr: 0x10001C9B4, symSize: 0x50 }
  - { offsetInCU: 0x47DA6, offset: 0x5F1FA, size: 0x8, addend: 0x0, symName: __ZNSt3__114__map_iteratorINS_15__tree_iteratorINS_12__value_typeINS_12basic_stringIcNS_11char_traitsIcEENS_9allocatorIcEEEES8_EEPNS_11__tree_nodeIS9_PvEElEEEC1B8ue170006ESE_, symObjAddr: 0x18264, symBinAddr: 0x10001CA04, symSize: 0x34 }
  - { offsetInCU: 0x47DDF, offset: 0x5F233, size: 0x8, addend: 0x0, symName: __ZNSt3__114__map_iteratorINS_15__tree_iteratorINS_12__value_typeINS_12basic_stringIcNS_11char_traitsIcEENS_9allocatorIcEEEES8_EEPNS_11__tree_nodeIS9_PvEElEEEC2B8ue170006ESE_, symObjAddr: 0x18298, symBinAddr: 0x10001CA38, symSize: 0x20 }
  - { offsetInCU: 0x47E18, offset: 0x5F26C, size: 0x8, addend: 0x0, symName: __ZNSt3__15dequeINS_12basic_stringIcNS_11char_traitsIcEENS_9allocatorIcEEEENS4_IS6_EEE5frontEv, symObjAddr: 0x182B8, symBinAddr: 0x10001CA58, symSize: 0x58 }
  - { offsetInCU: 0x47E40, offset: 0x5F294, size: 0x8, addend: 0x0, symName: __ZNKSt3__16__treeINS_12__value_typeINS_12basic_stringIcNS_11char_traitsIcEENS_9allocatorIcEEEENS_4listIS7_NS5_IS7_EEEEEENS_19__map_value_compareIS7_SB_NS_4lessIS7_EELb1EEENS5_ISB_EEE12__find_equalB8ue170006IS7_EERPNS_16__tree_node_baseIPvEERPNS_15__tree_end_nodeISM_EERKT_, symObjAddr: 0x18310, symBinAddr: 0x10001CAB0, symSize: 0x34 }
  - { offsetInCU: 0x47E8D, offset: 0x5F2E1, size: 0x8, addend: 0x0, symName: __ZNKSt3__110__list_impINS_12basic_stringIcNS_11char_traitsIcEENS_9allocatorIcEEEENS4_IS6_EEE5beginB8ue170006Ev, symObjAddr: 0x18344, symBinAddr: 0x10001CAE4, symSize: 0x30 }
  - { offsetInCU: 0x47EB3, offset: 0x5F307, size: 0x8, addend: 0x0, symName: __ZNSt3__121__list_const_iteratorINS_12basic_stringIcNS_11char_traitsIcEENS_9allocatorIcEEEEPvEC1B8ue170006EPNS_16__list_node_baseIS6_S7_EE, symObjAddr: 0x18374, symBinAddr: 0x10001CB14, symSize: 0x34 }
  - { offsetInCU: 0x47EEC, offset: 0x5F340, size: 0x8, addend: 0x0, symName: __ZNSt3__121__list_const_iteratorINS_12basic_stringIcNS_11char_traitsIcEENS_9allocatorIcEEEEPvEC2B8ue170006EPNS_16__list_node_baseIS6_S7_EE, symObjAddr: 0x183A8, symBinAddr: 0x10001CB48, symSize: 0x20 }
  - { offsetInCU: 0x47F25, offset: 0x5F379, size: 0x8, addend: 0x0, symName: __ZNKSt3__110__list_impINS_12basic_stringIcNS_11char_traitsIcEENS_9allocatorIcEEEENS4_IS6_EEE3endB8ue170006Ev, symObjAddr: 0x183C8, symBinAddr: 0x10001CB68, symSize: 0x34 }
  - { offsetInCU: 0x47F4B, offset: 0x5F39F, size: 0x8, addend: 0x0, symName: __ZNKSt3__16__treeINS_12__value_typeINS_12basic_stringIcNS_11char_traitsIcEENS_9allocatorIcEEEES7_EENS_19__map_value_compareIS7_S8_NS_4lessIS7_EELb1EEENS5_IS8_EEE14__count_uniqueIS7_EEmRKT_, symObjAddr: 0x1842C, symBinAddr: 0x10001CBCC, symSize: 0xC8 }
  - { offsetInCU: 0x47F9A, offset: 0x5F3EE, size: 0x8, addend: 0x0, symName: __ZNKSt3__16__treeINS_12__value_typeINS_12basic_stringIcNS_11char_traitsIcEENS_9allocatorIcEEEES7_EENS_19__map_value_compareIS7_S8_NS_4lessIS7_EELb1EEENS5_IS8_EEE10value_compB8ue170006Ev, symObjAddr: 0x184F4, symBinAddr: 0x10001CC94, symSize: 0x28 }
  - { offsetInCU: 0x47FC0, offset: 0x5F414, size: 0x8, addend: 0x0, symName: __ZNKSt3__117__compressed_pairImNS_19__map_value_compareINS_12basic_stringIcNS_11char_traitsIcEENS_9allocatorIcEEEENS_12__value_typeIS7_S7_EENS_4lessIS7_EELb1EEEE6secondB8ue170006Ev, symObjAddr: 0x1851C, symBinAddr: 0x10001CCBC, symSize: 0x24 }
  - { offsetInCU: 0x47FE6, offset: 0x5F43A, size: 0x8, addend: 0x0, symName: __ZNKSt3__122__compressed_pair_elemINS_19__map_value_compareINS_12basic_stringIcNS_11char_traitsIcEENS_9allocatorIcEEEENS_12__value_typeIS7_S7_EENS_4lessIS7_EELb1EEELi1ELb1EE5__getB8ue170006Ev, symObjAddr: 0x18540, symBinAddr: 0x10001CCE0, symSize: 0x14 }
  - { offsetInCU: 0x4800C, offset: 0x5F460, size: 0x8, addend: 0x0, symName: __ZNSt3__15dequeINS_12basic_stringIcNS_11char_traitsIcEENS_9allocatorIcEEEENS4_IS6_EEE9pop_frontEv, symObjAddr: 0x18554, symBinAddr: 0x10001CCF4, symSize: 0xDC }
  - { offsetInCU: 0x48061, offset: 0x5F4B5, size: 0x8, addend: 0x0, symName: __ZNKSt3__15dequeINS_12basic_stringIcNS_11char_traitsIcEENS_9allocatorIcEEEENS4_IS6_EEE23__annotate_shrink_frontB8ue170006Emm, symObjAddr: 0x18630, symBinAddr: 0x10001CDD0, symSize: 0x70 }
  - { offsetInCU: 0x480A5, offset: 0x5F4F9, size: 0x8, addend: 0x0, symName: __ZNSt3__15dequeINS_12basic_stringIcNS_11char_traitsIcEENS_9allocatorIcEEEENS4_IS6_EEE26__maybe_remove_front_spareB8ue170006Eb, symObjAddr: 0x186A0, symBinAddr: 0x10001CE40, symSize: 0xEC }
  - { offsetInCU: 0x480DA, offset: 0x5F52E, size: 0x8, addend: 0x0, symName: __ZNKSt3__15dequeINS_12basic_stringIcNS_11char_traitsIcEENS_9allocatorIcEEEENS4_IS6_EEE20__front_spare_blocksB8ue170006Ev, symObjAddr: 0x1878C, symBinAddr: 0x10001CF2C, symSize: 0x2C }
  - { offsetInCU: 0x48100, offset: 0x5F554, size: 0x8, addend: 0x0, symName: __ZNKSt3__16__treeINS_12__value_typeINS_12basic_stringIcNS_11char_traitsIcEENS_9allocatorIcEEEENS_3setINS_4pairIS7_S7_EENS_4lessISA_EENS5_ISA_EEEEEENS_19__map_value_compareIS7_SF_NSB_IS7_EELb1EEENS5_ISF_EEE12__find_equalB8ue170006IS7_EERPNS_16__tree_node_baseIPvEERPNS_15__tree_end_nodeISP_EERKT_, symObjAddr: 0x187B8, symBinAddr: 0x10001CF58, symSize: 0x34 }
  - { offsetInCU: 0x4814D, offset: 0x5F5A1, size: 0x8, addend: 0x0, symName: __ZNKSt3__16__treeINS_4pairINS_12basic_stringIcNS_11char_traitsIcEENS_9allocatorIcEEEES7_EENS_4lessIS8_EENS5_IS8_EEE5beginB8ue170006Ev, symObjAddr: 0x187EC, symBinAddr: 0x10001CF8C, symSize: 0x34 }
  - { offsetInCU: 0x48173, offset: 0x5F5C7, size: 0x8, addend: 0x0, symName: __ZNKSt3__16__treeINS_4pairINS_12basic_stringIcNS_11char_traitsIcEENS_9allocatorIcEEEES7_EENS_4lessIS8_EENS5_IS8_EEE12__begin_nodeB8ue170006Ev, symObjAddr: 0x18820, symBinAddr: 0x10001CFC0, symSize: 0x14 }
  - { offsetInCU: 0x48199, offset: 0x5F5ED, size: 0x8, addend: 0x0, symName: __ZNSt3__121__tree_const_iteratorINS_4pairINS_12basic_stringIcNS_11char_traitsIcEENS_9allocatorIcEEEES7_EEPNS_11__tree_nodeIS8_PvEElEC1B8ue170006EPNS_15__tree_end_nodeIPNS_16__tree_node_baseISA_EEEE, symObjAddr: 0x18834, symBinAddr: 0x10001CFD4, symSize: 0x34 }
  - { offsetInCU: 0x481D2, offset: 0x5F626, size: 0x8, addend: 0x0, symName: __ZNSt3__121__tree_const_iteratorINS_4pairINS_12basic_stringIcNS_11char_traitsIcEENS_9allocatorIcEEEES7_EEPNS_11__tree_nodeIS8_PvEElEC2B8ue170006EPNS_15__tree_end_nodeIPNS_16__tree_node_baseISA_EEEE, symObjAddr: 0x18868, symBinAddr: 0x10001D008, symSize: 0x20 }
  - { offsetInCU: 0x4820B, offset: 0x5F65F, size: 0x8, addend: 0x0, symName: __ZNKSt3__16__treeINS_4pairINS_12basic_stringIcNS_11char_traitsIcEENS_9allocatorIcEEEES7_EENS_4lessIS8_EENS5_IS8_EEE3endB8ue170006Ev, symObjAddr: 0x18888, symBinAddr: 0x10001D028, symSize: 0x34 }
  - { offsetInCU: 0x48231, offset: 0x5F685, size: 0x8, addend: 0x0, symName: __ZNKSt3__121__tree_const_iteratorINS_4pairINS_12basic_stringIcNS_11char_traitsIcEENS_9allocatorIcEEEES7_EEPNS_11__tree_nodeIS8_PvEElE8__get_npB8ue170006Ev, symObjAddr: 0x188EC, symBinAddr: 0x10001D08C, symSize: 0x18 }
  - { offsetInCU: 0x48257, offset: 0x5F6AB, size: 0x8, addend: 0x0, symName: __ZNSt3__15queueINS_4pairINS_12basic_stringIcNS_11char_traitsIcEENS_9allocatorIcEEEEiEENS_5dequeIS8_NS5_IS8_EEEEEC2B8ue170006Ev, symObjAddr: 0x18904, symBinAddr: 0x10001D0A4, symSize: 0x2C }
  - { offsetInCU: 0x48281, offset: 0x5F6D5, size: 0x8, addend: 0x0, symName: __ZNSt3__15dequeINS_4pairINS_12basic_stringIcNS_11char_traitsIcEENS_9allocatorIcEEEEiEENS5_IS8_EEEC1B8ue170006Ev, symObjAddr: 0x18930, symBinAddr: 0x10001D0D0, symSize: 0x2C }
  - { offsetInCU: 0x482AB, offset: 0x5F6FF, size: 0x8, addend: 0x0, symName: __ZNSt3__15dequeINS_4pairINS_12basic_stringIcNS_11char_traitsIcEENS_9allocatorIcEEEEiEENS5_IS8_EEEC2B8ue170006Ev, symObjAddr: 0x1895C, symBinAddr: 0x10001D0FC, symSize: 0x5C }
  - { offsetInCU: 0x482D5, offset: 0x5F729, size: 0x8, addend: 0x0, symName: __ZNSt3__114__split_bufferIPNS_4pairINS_12basic_stringIcNS_11char_traitsIcEENS_9allocatorIcEEEEiEENS5_IS9_EEEC1B8ue170006Ev, symObjAddr: 0x189B8, symBinAddr: 0x10001D158, symSize: 0x2C }
  - { offsetInCU: 0x482FF, offset: 0x5F753, size: 0x8, addend: 0x0, symName: __ZNSt3__117__compressed_pairImNS_9allocatorINS_4pairINS_12basic_stringIcNS_11char_traitsIcEENS1_IcEEEEiEEEEEC1B8ue170006IiNS_18__default_init_tagEEEOT_OT0_, symObjAddr: 0x189E4, symBinAddr: 0x10001D184, symSize: 0x3C }
  - { offsetInCU: 0x48357, offset: 0x5F7AB, size: 0x8, addend: 0x0, symName: __ZNSt3__114__split_bufferIPNS_4pairINS_12basic_stringIcNS_11char_traitsIcEENS_9allocatorIcEEEEiEENS5_IS9_EEEC2B8ue170006Ev, symObjAddr: 0x18A20, symBinAddr: 0x10001D1C0, symSize: 0x50 }
  - { offsetInCU: 0x48381, offset: 0x5F7D5, size: 0x8, addend: 0x0, symName: __ZNSt3__117__compressed_pairIPPNS_4pairINS_12basic_stringIcNS_11char_traitsIcEENS_9allocatorIcEEEEiEENS5_IS9_EEEC1B8ue170006IDnNS_18__default_init_tagEEEOT_OT0_, symObjAddr: 0x18A70, symBinAddr: 0x10001D210, symSize: 0x3C }
  - { offsetInCU: 0x483D9, offset: 0x5F82D, size: 0x8, addend: 0x0, symName: __ZNSt3__117__compressed_pairIPPNS_4pairINS_12basic_stringIcNS_11char_traitsIcEENS_9allocatorIcEEEEiEENS5_IS9_EEEC2B8ue170006IDnNS_18__default_init_tagEEEOT_OT0_, symObjAddr: 0x18AAC, symBinAddr: 0x10001D24C, symSize: 0x40 }
  - { offsetInCU: 0x48431, offset: 0x5F885, size: 0x8, addend: 0x0, symName: __ZNSt3__122__compressed_pair_elemIPPNS_4pairINS_12basic_stringIcNS_11char_traitsIcEENS_9allocatorIcEEEEiEELi0ELb0EEC2B8ue170006IDnvEEOT_, symObjAddr: 0x18AEC, symBinAddr: 0x10001D28C, symSize: 0x1C }
  - { offsetInCU: 0x48473, offset: 0x5F8C7, size: 0x8, addend: 0x0, symName: __ZNSt3__122__compressed_pair_elemINS_9allocatorIPNS_4pairINS_12basic_stringIcNS_11char_traitsIcEENS1_IcEEEEiEEEELi1ELb1EEC2B8ue170006ENS_18__default_init_tagE, symObjAddr: 0x18B08, symBinAddr: 0x10001D2A8, symSize: 0x2C }
  - { offsetInCU: 0x484A8, offset: 0x5F8FC, size: 0x8, addend: 0x0, symName: __ZNSt3__19allocatorIPNS_4pairINS_12basic_stringIcNS_11char_traitsIcEENS0_IcEEEEiEEEC2B8ue170006Ev, symObjAddr: 0x18B34, symBinAddr: 0x10001D2D4, symSize: 0x2C }
  - { offsetInCU: 0x484D2, offset: 0x5F926, size: 0x8, addend: 0x0, symName: __ZNSt3__116__non_trivial_ifILb1ENS_9allocatorIPNS_4pairINS_12basic_stringIcNS_11char_traitsIcEENS1_IcEEEEiEEEEEC2B8ue170006Ev, symObjAddr: 0x18B60, symBinAddr: 0x10001D300, symSize: 0x14 }
  - { offsetInCU: 0x484FC, offset: 0x5F950, size: 0x8, addend: 0x0, symName: __ZNSt3__117__compressed_pairImNS_9allocatorINS_4pairINS_12basic_stringIcNS_11char_traitsIcEENS1_IcEEEEiEEEEEC2B8ue170006IiNS_18__default_init_tagEEEOT_OT0_, symObjAddr: 0x18B74, symBinAddr: 0x10001D314, symSize: 0x40 }
  - { offsetInCU: 0x48554, offset: 0x5F9A8, size: 0x8, addend: 0x0, symName: __ZNSt3__122__compressed_pair_elemINS_9allocatorINS_4pairINS_12basic_stringIcNS_11char_traitsIcEENS1_IcEEEEiEEEELi1ELb1EEC2B8ue170006ENS_18__default_init_tagE, symObjAddr: 0x18BB4, symBinAddr: 0x10001D354, symSize: 0x2C }
  - { offsetInCU: 0x48589, offset: 0x5F9DD, size: 0x8, addend: 0x0, symName: __ZNSt3__19allocatorINS_4pairINS_12basic_stringIcNS_11char_traitsIcEENS0_IcEEEEiEEEC2B8ue170006Ev, symObjAddr: 0x18BE0, symBinAddr: 0x10001D380, symSize: 0x2C }
  - { offsetInCU: 0x485B3, offset: 0x5FA07, size: 0x8, addend: 0x0, symName: __ZNSt3__116__non_trivial_ifILb1ENS_9allocatorINS_4pairINS_12basic_stringIcNS_11char_traitsIcEENS1_IcEEEEiEEEEEC2B8ue170006Ev, symObjAddr: 0x18C0C, symBinAddr: 0x10001D3AC, symSize: 0x14 }
  - { offsetInCU: 0x485DD, offset: 0x5FA31, size: 0x8, addend: 0x0, symName: __ZNSt3__113unordered_mapINS_12basic_stringIcNS_11char_traitsIcEENS_9allocatorIcEEEES6_NS_4hashIS6_EENS_8equal_toIS6_EENS4_INS_4pairIKS6_S6_EEEEEC2B8ue170006Ev, symObjAddr: 0x18C20, symBinAddr: 0x10001D3C0, symSize: 0x2C }
  - { offsetInCU: 0x48607, offset: 0x5FA5B, size: 0x8, addend: 0x0, symName: __ZNSt3__112__hash_tableINS_17__hash_value_typeINS_12basic_stringIcNS_11char_traitsIcEENS_9allocatorIcEEEES7_EENS_22__unordered_map_hasherIS7_S8_NS_4hashIS7_EENS_8equal_toIS7_EELb1EEENS_21__unordered_map_equalIS7_S8_SD_SB_Lb1EEENS5_IS8_EEEC1Ev, symObjAddr: 0x18C4C, symBinAddr: 0x10001D3EC, symSize: 0x2C }
  - { offsetInCU: 0x48633, offset: 0x5FA87, size: 0x8, addend: 0x0, symName: __ZNSt3__112__hash_tableINS_17__hash_value_typeINS_12basic_stringIcNS_11char_traitsIcEENS_9allocatorIcEEEES7_EENS_22__unordered_map_hasherIS7_S8_NS_4hashIS7_EENS_8equal_toIS7_EELb1EEENS_21__unordered_map_equalIS7_S8_SD_SB_Lb1EEENS5_IS8_EEEC2Ev, symObjAddr: 0x18C78, symBinAddr: 0x10001D418, symSize: 0x7C }
  - { offsetInCU: 0x4865F, offset: 0x5FAB3, size: 0x8, addend: 0x0, symName: __ZNSt3__110unique_ptrIA_PNS_16__hash_node_baseIPNS_11__hash_nodeINS_17__hash_value_typeINS_12basic_stringIcNS_11char_traitsIcEENS_9allocatorIcEEEES9_EEPvEEEENS_25__bucket_list_deallocatorINS7_ISF_EEEEEC1B8ue170006ILb1EvEEv, symObjAddr: 0x18CF4, symBinAddr: 0x10001D494, symSize: 0x2C }
  - { offsetInCU: 0x48694, offset: 0x5FAE8, size: 0x8, addend: 0x0, symName: __ZNSt3__117__compressed_pairINS_16__hash_node_baseIPNS_11__hash_nodeINS_17__hash_value_typeINS_12basic_stringIcNS_11char_traitsIcEENS_9allocatorIcEEEES9_EEPvEEEENS7_ISC_EEEC1B8ue170006ILb1EvEEv, symObjAddr: 0x18D20, symBinAddr: 0x10001D4C0, symSize: 0x2C }
  - { offsetInCU: 0x486C9, offset: 0x5FB1D, size: 0x8, addend: 0x0, symName: __ZNSt3__117__compressed_pairImNS_22__unordered_map_hasherINS_12basic_stringIcNS_11char_traitsIcEENS_9allocatorIcEEEENS_17__hash_value_typeIS7_S7_EENS_4hashIS7_EENS_8equal_toIS7_EELb1EEEEC1B8ue170006IiNS_18__default_init_tagEEEOT_OT0_, symObjAddr: 0x18D4C, symBinAddr: 0x10001D4EC, symSize: 0x3C }
  - { offsetInCU: 0x48726, offset: 0x5FB7A, size: 0x8, addend: 0x0, symName: __ZNSt3__117__compressed_pairIfNS_21__unordered_map_equalINS_12basic_stringIcNS_11char_traitsIcEENS_9allocatorIcEEEENS_17__hash_value_typeIS7_S7_EENS_8equal_toIS7_EENS_4hashIS7_EELb1EEEEC1B8ue170006IfNS_18__default_init_tagEEEOT_OT0_, symObjAddr: 0x18D88, symBinAddr: 0x10001D528, symSize: 0x3C }
  - { offsetInCU: 0x4877E, offset: 0x5FBD2, size: 0x8, addend: 0x0, symName: __ZNSt3__110unique_ptrIA_PNS_16__hash_node_baseIPNS_11__hash_nodeINS_17__hash_value_typeINS_12basic_stringIcNS_11char_traitsIcEENS_9allocatorIcEEEES9_EEPvEEEENS_25__bucket_list_deallocatorINS7_ISF_EEEEEC2B8ue170006ILb1EvEEv, symObjAddr: 0x18DC4, symBinAddr: 0x10001D564, symSize: 0x3C }
  - { offsetInCU: 0x487B8, offset: 0x5FC0C, size: 0x8, addend: 0x0, symName: __ZNSt3__117__compressed_pairIPPNS_16__hash_node_baseIPNS_11__hash_nodeINS_17__hash_value_typeINS_12basic_stringIcNS_11char_traitsIcEENS_9allocatorIcEEEES9_EEPvEEEENS_25__bucket_list_deallocatorINS7_ISF_EEEEEC1B8ue170006INS_16__value_init_tagESM_EEOT_OT0_, symObjAddr: 0x18E00, symBinAddr: 0x10001D5A0, symSize: 0x3C }
  - { offsetInCU: 0x48810, offset: 0x5FC64, size: 0x8, addend: 0x0, symName: __ZNSt3__117__compressed_pairIPPNS_16__hash_node_baseIPNS_11__hash_nodeINS_17__hash_value_typeINS_12basic_stringIcNS_11char_traitsIcEENS_9allocatorIcEEEES9_EEPvEEEENS_25__bucket_list_deallocatorINS7_ISF_EEEEEC2B8ue170006INS_16__value_init_tagESM_EEOT_OT0_, symObjAddr: 0x18E3C, symBinAddr: 0x10001D5DC, symSize: 0x40 }
  - { offsetInCU: 0x48868, offset: 0x5FCBC, size: 0x8, addend: 0x0, symName: __ZNSt3__122__compressed_pair_elemIPPNS_16__hash_node_baseIPNS_11__hash_nodeINS_17__hash_value_typeINS_12basic_stringIcNS_11char_traitsIcEENS_9allocatorIcEEEES9_EEPvEEEELi0ELb0EEC2B8ue170006ENS_16__value_init_tagE, symObjAddr: 0x18E7C, symBinAddr: 0x10001D61C, symSize: 0x18 }
  - { offsetInCU: 0x4889D, offset: 0x5FCF1, size: 0x8, addend: 0x0, symName: __ZNSt3__122__compressed_pair_elemINS_25__bucket_list_deallocatorINS_9allocatorIPNS_16__hash_node_baseIPNS_11__hash_nodeINS_17__hash_value_typeINS_12basic_stringIcNS_11char_traitsIcEENS2_IcEEEESA_EEPvEEEEEEEELi1ELb0EEC2B8ue170006ENS_16__value_init_tagE, symObjAddr: 0x18E94, symBinAddr: 0x10001D634, symSize: 0x2C }
  - { offsetInCU: 0x488D2, offset: 0x5FD26, size: 0x8, addend: 0x0, symName: __ZNSt3__125__bucket_list_deallocatorINS_9allocatorIPNS_16__hash_node_baseIPNS_11__hash_nodeINS_17__hash_value_typeINS_12basic_stringIcNS_11char_traitsIcEENS1_IcEEEES9_EEPvEEEEEEEC1B8ue170006Ev, symObjAddr: 0x18EC0, symBinAddr: 0x10001D660, symSize: 0x2C }
  - { offsetInCU: 0x488FC, offset: 0x5FD50, size: 0x8, addend: 0x0, symName: __ZNSt3__125__bucket_list_deallocatorINS_9allocatorIPNS_16__hash_node_baseIPNS_11__hash_nodeINS_17__hash_value_typeINS_12basic_stringIcNS_11char_traitsIcEENS1_IcEEEES9_EEPvEEEEEEEC2B8ue170006Ev, symObjAddr: 0x18EEC, symBinAddr: 0x10001D68C, symSize: 0x40 }
  - { offsetInCU: 0x48926, offset: 0x5FD7A, size: 0x8, addend: 0x0, symName: __ZNSt3__117__compressed_pairImNS_9allocatorIPNS_16__hash_node_baseIPNS_11__hash_nodeINS_17__hash_value_typeINS_12basic_stringIcNS_11char_traitsIcEENS1_IcEEEES9_EEPvEEEEEEEC1B8ue170006IiNS_18__default_init_tagEEEOT_OT0_, symObjAddr: 0x18F2C, symBinAddr: 0x10001D6CC, symSize: 0x3C }
  - { offsetInCU: 0x4897E, offset: 0x5FDD2, size: 0x8, addend: 0x0, symName: __ZNSt3__117__compressed_pairImNS_9allocatorIPNS_16__hash_node_baseIPNS_11__hash_nodeINS_17__hash_value_typeINS_12basic_stringIcNS_11char_traitsIcEENS1_IcEEEES9_EEPvEEEEEEEC2B8ue170006IiNS_18__default_init_tagEEEOT_OT0_, symObjAddr: 0x18F68, symBinAddr: 0x10001D708, symSize: 0x40 }
  - { offsetInCU: 0x489D6, offset: 0x5FE2A, size: 0x8, addend: 0x0, symName: __ZNSt3__122__compressed_pair_elemINS_9allocatorIPNS_16__hash_node_baseIPNS_11__hash_nodeINS_17__hash_value_typeINS_12basic_stringIcNS_11char_traitsIcEENS1_IcEEEES9_EEPvEEEEEELi1ELb1EEC2B8ue170006ENS_18__default_init_tagE, symObjAddr: 0x18FA8, symBinAddr: 0x10001D748, symSize: 0x2C }
  - { offsetInCU: 0x48A0B, offset: 0x5FE5F, size: 0x8, addend: 0x0, symName: __ZNSt3__19allocatorIPNS_16__hash_node_baseIPNS_11__hash_nodeINS_17__hash_value_typeINS_12basic_stringIcNS_11char_traitsIcEENS0_IcEEEES8_EEPvEEEEEC2B8ue170006Ev, symObjAddr: 0x18FD4, symBinAddr: 0x10001D774, symSize: 0x2C }
  - { offsetInCU: 0x48A35, offset: 0x5FE89, size: 0x8, addend: 0x0, symName: __ZNSt3__116__non_trivial_ifILb1ENS_9allocatorIPNS_16__hash_node_baseIPNS_11__hash_nodeINS_17__hash_value_typeINS_12basic_stringIcNS_11char_traitsIcEENS1_IcEEEES9_EEPvEEEEEEEC2B8ue170006Ev, symObjAddr: 0x19000, symBinAddr: 0x10001D7A0, symSize: 0x14 }
  - { offsetInCU: 0x48A5F, offset: 0x5FEB3, size: 0x8, addend: 0x0, symName: __ZNSt3__117__compressed_pairINS_16__hash_node_baseIPNS_11__hash_nodeINS_17__hash_value_typeINS_12basic_stringIcNS_11char_traitsIcEENS_9allocatorIcEEEES9_EEPvEEEENS7_ISC_EEEC2B8ue170006ILb1EvEEv, symObjAddr: 0x19014, symBinAddr: 0x10001D7B4, symSize: 0x34 }
  - { offsetInCU: 0x48A94, offset: 0x5FEE8, size: 0x8, addend: 0x0, symName: __ZNSt3__122__compressed_pair_elemINS_16__hash_node_baseIPNS_11__hash_nodeINS_17__hash_value_typeINS_12basic_stringIcNS_11char_traitsIcEENS_9allocatorIcEEEES9_EEPvEEEELi0ELb0EEC2B8ue170006ENS_16__value_init_tagE, symObjAddr: 0x19048, symBinAddr: 0x10001D7E8, symSize: 0x2C }
  - { offsetInCU: 0x48AC9, offset: 0x5FF1D, size: 0x8, addend: 0x0, symName: __ZNSt3__122__compressed_pair_elemINS_9allocatorINS_11__hash_nodeINS_17__hash_value_typeINS_12basic_stringIcNS_11char_traitsIcEENS1_IcEEEES8_EEPvEEEELi1ELb1EEC2B8ue170006ENS_16__value_init_tagE, symObjAddr: 0x19074, symBinAddr: 0x10001D814, symSize: 0x2C }
  - { offsetInCU: 0x48AFE, offset: 0x5FF52, size: 0x8, addend: 0x0, symName: __ZNSt3__116__hash_node_baseIPNS_11__hash_nodeINS_17__hash_value_typeINS_12basic_stringIcNS_11char_traitsIcEENS_9allocatorIcEEEES8_EEPvEEEC1B8ue170006Ev, symObjAddr: 0x190A0, symBinAddr: 0x10001D840, symSize: 0x2C }
  - { offsetInCU: 0x48B28, offset: 0x5FF7C, size: 0x8, addend: 0x0, symName: __ZNSt3__116__hash_node_baseIPNS_11__hash_nodeINS_17__hash_value_typeINS_12basic_stringIcNS_11char_traitsIcEENS_9allocatorIcEEEES8_EEPvEEEC2B8ue170006Ev, symObjAddr: 0x190CC, symBinAddr: 0x10001D86C, symSize: 0x18 }
  - { offsetInCU: 0x48B52, offset: 0x5FFA6, size: 0x8, addend: 0x0, symName: __ZNSt3__19allocatorINS_11__hash_nodeINS_17__hash_value_typeINS_12basic_stringIcNS_11char_traitsIcEENS0_IcEEEES7_EEPvEEEC2B8ue170006Ev, symObjAddr: 0x190E4, symBinAddr: 0x10001D884, symSize: 0x2C }
  - { offsetInCU: 0x48B7C, offset: 0x5FFD0, size: 0x8, addend: 0x0, symName: __ZNSt3__116__non_trivial_ifILb1ENS_9allocatorINS_11__hash_nodeINS_17__hash_value_typeINS_12basic_stringIcNS_11char_traitsIcEENS1_IcEEEES8_EEPvEEEEEC2B8ue170006Ev, symObjAddr: 0x19110, symBinAddr: 0x10001D8B0, symSize: 0x14 }
  - { offsetInCU: 0x48BA6, offset: 0x5FFFA, size: 0x8, addend: 0x0, symName: __ZNSt3__117__compressed_pairImNS_22__unordered_map_hasherINS_12basic_stringIcNS_11char_traitsIcEENS_9allocatorIcEEEENS_17__hash_value_typeIS7_S7_EENS_4hashIS7_EENS_8equal_toIS7_EELb1EEEEC2B8ue170006IiNS_18__default_init_tagEEEOT_OT0_, symObjAddr: 0x19124, symBinAddr: 0x10001D8C4, symSize: 0x40 }
  - { offsetInCU: 0x48BFE, offset: 0x60052, size: 0x8, addend: 0x0, symName: __ZNSt3__122__compressed_pair_elemINS_22__unordered_map_hasherINS_12basic_stringIcNS_11char_traitsIcEENS_9allocatorIcEEEENS_17__hash_value_typeIS7_S7_EENS_4hashIS7_EENS_8equal_toIS7_EELb1EEELi1ELb1EEC2B8ue170006ENS_18__default_init_tagE, symObjAddr: 0x19164, symBinAddr: 0x10001D904, symSize: 0x2C }
  - { offsetInCU: 0x48C33, offset: 0x60087, size: 0x8, addend: 0x0, symName: __ZNSt3__122__unordered_map_hasherINS_12basic_stringIcNS_11char_traitsIcEENS_9allocatorIcEEEENS_17__hash_value_typeIS6_S6_EENS_4hashIS6_EENS_8equal_toIS6_EELb1EEC2B8ue170006Ev, symObjAddr: 0x19190, symBinAddr: 0x10001D930, symSize: 0x14 }
  - { offsetInCU: 0x48C5D, offset: 0x600B1, size: 0x8, addend: 0x0, symName: __ZNSt3__117__compressed_pairIfNS_21__unordered_map_equalINS_12basic_stringIcNS_11char_traitsIcEENS_9allocatorIcEEEENS_17__hash_value_typeIS7_S7_EENS_8equal_toIS7_EENS_4hashIS7_EELb1EEEEC2B8ue170006IfNS_18__default_init_tagEEEOT_OT0_, symObjAddr: 0x191A4, symBinAddr: 0x10001D944, symSize: 0x40 }
  - { offsetInCU: 0x48CB5, offset: 0x60109, size: 0x8, addend: 0x0, symName: __ZNSt3__122__compressed_pair_elemIfLi0ELb0EEC2B8ue170006IfvEEOT_, symObjAddr: 0x191E4, symBinAddr: 0x10001D984, symSize: 0x24 }
  - { offsetInCU: 0x48CF7, offset: 0x6014B, size: 0x8, addend: 0x0, symName: __ZNSt3__122__compressed_pair_elemINS_21__unordered_map_equalINS_12basic_stringIcNS_11char_traitsIcEENS_9allocatorIcEEEENS_17__hash_value_typeIS7_S7_EENS_8equal_toIS7_EENS_4hashIS7_EELb1EEELi1ELb1EEC2B8ue170006ENS_18__default_init_tagE, symObjAddr: 0x19208, symBinAddr: 0x10001D9A8, symSize: 0x2C }
  - { offsetInCU: 0x48D2C, offset: 0x60180, size: 0x8, addend: 0x0, symName: __ZNSt3__121__unordered_map_equalINS_12basic_stringIcNS_11char_traitsIcEENS_9allocatorIcEEEENS_17__hash_value_typeIS6_S6_EENS_8equal_toIS6_EENS_4hashIS6_EELb1EEC2B8ue170006Ev, symObjAddr: 0x19234, symBinAddr: 0x10001D9D4, symSize: 0x14 }
  - { offsetInCU: 0x48D56, offset: 0x601AA, size: 0x8, addend: 0x0, symName: __ZNSt3__113unordered_mapINS_12basic_stringIcNS_11char_traitsIcEENS_9allocatorIcEEEES6_NS_4hashIS6_EENS_8equal_toIS6_EENS4_INS_4pairIKS6_S6_EEEEED2B8ue170006Ev, symObjAddr: 0x19248, symBinAddr: 0x10001D9E8, symSize: 0x2C }
  - { offsetInCU: 0x48D80, offset: 0x601D4, size: 0x8, addend: 0x0, symName: __ZNSt3__112__hash_tableINS_17__hash_value_typeINS_12basic_stringIcNS_11char_traitsIcEENS_9allocatorIcEEEES7_EENS_22__unordered_map_hasherIS7_S8_NS_4hashIS7_EENS_8equal_toIS7_EELb1EEENS_21__unordered_map_equalIS7_S8_SD_SB_Lb1EEENS5_IS8_EEED1Ev, symObjAddr: 0x19274, symBinAddr: 0x10001DA14, symSize: 0x2C }
  - { offsetInCU: 0x48DAC, offset: 0x60200, size: 0x8, addend: 0x0, symName: __ZNSt3__112__hash_tableINS_17__hash_value_typeINS_12basic_stringIcNS_11char_traitsIcEENS_9allocatorIcEEEES7_EENS_22__unordered_map_hasherIS7_S8_NS_4hashIS7_EENS_8equal_toIS7_EELb1EEENS_21__unordered_map_equalIS7_S8_SD_SB_Lb1EEENS5_IS8_EEED2Ev, symObjAddr: 0x192A0, symBinAddr: 0x10001DA40, symSize: 0x48 }
  - { offsetInCU: 0x48DD8, offset: 0x6022C, size: 0x8, addend: 0x0, symName: __ZNSt3__112__hash_tableINS_17__hash_value_typeINS_12basic_stringIcNS_11char_traitsIcEENS_9allocatorIcEEEES7_EENS_22__unordered_map_hasherIS7_S8_NS_4hashIS7_EENS_8equal_toIS7_EELb1EEENS_21__unordered_map_equalIS7_S8_SD_SB_Lb1EEENS5_IS8_EEE17__deallocate_nodeEPNS_16__hash_node_baseIPNS_11__hash_nodeIS8_PvEEEE, symObjAddr: 0x192E8, symBinAddr: 0x10001DA88, symSize: 0xA8 }
  - { offsetInCU: 0x48E42, offset: 0x60296, size: 0x8, addend: 0x0, symName: __ZNSt3__117__compressed_pairINS_16__hash_node_baseIPNS_11__hash_nodeINS_17__hash_value_typeINS_12basic_stringIcNS_11char_traitsIcEENS_9allocatorIcEEEES9_EEPvEEEENS7_ISC_EEE5firstB8ue170006Ev, symObjAddr: 0x19390, symBinAddr: 0x10001DB30, symSize: 0x24 }
  - { offsetInCU: 0x48E68, offset: 0x602BC, size: 0x8, addend: 0x0, symName: __ZNSt3__110unique_ptrIA_PNS_16__hash_node_baseIPNS_11__hash_nodeINS_17__hash_value_typeINS_12basic_stringIcNS_11char_traitsIcEENS_9allocatorIcEEEES9_EEPvEEEENS_25__bucket_list_deallocatorINS7_ISF_EEEEED1B8ue170006Ev, symObjAddr: 0x193B4, symBinAddr: 0x10001DB54, symSize: 0x2C }
  - { offsetInCU: 0x48E92, offset: 0x602E6, size: 0x8, addend: 0x0, symName: __ZNSt3__112__hash_tableINS_17__hash_value_typeINS_12basic_stringIcNS_11char_traitsIcEENS_9allocatorIcEEEES7_EENS_22__unordered_map_hasherIS7_S8_NS_4hashIS7_EENS_8equal_toIS7_EELb1EEENS_21__unordered_map_equalIS7_S8_SD_SB_Lb1EEENS5_IS8_EEE12__node_allocB8ue170006Ev, symObjAddr: 0x193E0, symBinAddr: 0x10001DB80, symSize: 0x28 }
  - { offsetInCU: 0x48EB8, offset: 0x6030C, size: 0x8, addend: 0x0, symName: __ZNSt3__116__hash_node_baseIPNS_11__hash_nodeINS_17__hash_value_typeINS_12basic_stringIcNS_11char_traitsIcEENS_9allocatorIcEEEES8_EEPvEEE8__upcastB8ue170006Ev, symObjAddr: 0x19408, symBinAddr: 0x10001DBA8, symSize: 0x24 }
  - { offsetInCU: 0x48EDE, offset: 0x60332, size: 0x8, addend: 0x0, symName: __ZNSt3__116allocator_traitsINS_9allocatorINS_11__hash_nodeINS_17__hash_value_typeINS_12basic_stringIcNS_11char_traitsIcEENS1_IcEEEES8_EEPvEEEEE7destroyB8ue170006INS_4pairIKS8_S8_EEvvEEvRSC_PT_, symObjAddr: 0x1942C, symBinAddr: 0x10001DBCC, symSize: 0x28 }
  - { offsetInCU: 0x48F19, offset: 0x6036D, size: 0x8, addend: 0x0, symName: __ZNSt3__122__hash_key_value_typesINS_17__hash_value_typeINS_12basic_stringIcNS_11char_traitsIcEENS_9allocatorIcEEEES7_EEE9__get_ptrB8ue170006ERS8_, symObjAddr: 0x19454, symBinAddr: 0x10001DBF4, symSize: 0x24 }
  - { offsetInCU: 0x48F3C, offset: 0x60390, size: 0x8, addend: 0x0, symName: __ZNSt3__116allocator_traitsINS_9allocatorINS_11__hash_nodeINS_17__hash_value_typeINS_12basic_stringIcNS_11char_traitsIcEENS1_IcEEEES8_EEPvEEEEE10deallocateB8ue170006ERSC_PSB_m, symObjAddr: 0x19478, symBinAddr: 0x10001DC18, symSize: 0x34 }
  - { offsetInCU: 0x48F7E, offset: 0x603D2, size: 0x8, addend: 0x0, symName: __ZNSt3__117__compressed_pairINS_16__hash_node_baseIPNS_11__hash_nodeINS_17__hash_value_typeINS_12basic_stringIcNS_11char_traitsIcEENS_9allocatorIcEEEES9_EEPvEEEENS7_ISC_EEE6secondB8ue170006Ev, symObjAddr: 0x194AC, symBinAddr: 0x10001DC4C, symSize: 0x24 }
  - { offsetInCU: 0x48FA4, offset: 0x603F8, size: 0x8, addend: 0x0, symName: __ZNSt3__122__compressed_pair_elemINS_9allocatorINS_11__hash_nodeINS_17__hash_value_typeINS_12basic_stringIcNS_11char_traitsIcEENS1_IcEEEES8_EEPvEEEELi1ELb1EE5__getB8ue170006Ev, symObjAddr: 0x194D0, symBinAddr: 0x10001DC70, symSize: 0x14 }
  - { offsetInCU: 0x48FCA, offset: 0x6041E, size: 0x8, addend: 0x0, symName: __ZNSt3__114pointer_traitsIPNS_16__hash_node_baseIPNS_11__hash_nodeINS_17__hash_value_typeINS_12basic_stringIcNS_11char_traitsIcEENS_9allocatorIcEEEES9_EEPvEEEEE10pointer_toB8ue170006ERSE_, symObjAddr: 0x194E4, symBinAddr: 0x10001DC84, symSize: 0x14 }
  - { offsetInCU: 0x48FED, offset: 0x60441, size: 0x8, addend: 0x0, symName: __ZNSt3__117__hash_value_typeINS_12basic_stringIcNS_11char_traitsIcEENS_9allocatorIcEEEES6_E11__get_valueB8ue170006Ev, symObjAddr: 0x194F8, symBinAddr: 0x10001DC98, symSize: 0x24 }
  - { offsetInCU: 0x49013, offset: 0x60467, size: 0x8, addend: 0x0, symName: __ZNSt3__19allocatorINS_11__hash_nodeINS_17__hash_value_typeINS_12basic_stringIcNS_11char_traitsIcEENS0_IcEEEES7_EEPvEEE10deallocateB8ue170006EPSA_m, symObjAddr: 0x1951C, symBinAddr: 0x10001DCBC, symSize: 0x40 }
  - { offsetInCU: 0x49055, offset: 0x604A9, size: 0x8, addend: 0x0, symName: __ZNSt3__122__compressed_pair_elemINS_16__hash_node_baseIPNS_11__hash_nodeINS_17__hash_value_typeINS_12basic_stringIcNS_11char_traitsIcEENS_9allocatorIcEEEES9_EEPvEEEELi0ELb0EE5__getB8ue170006Ev, symObjAddr: 0x1955C, symBinAddr: 0x10001DCFC, symSize: 0x14 }
  - { offsetInCU: 0x4907B, offset: 0x604CF, size: 0x8, addend: 0x0, symName: __ZNSt3__110unique_ptrIA_PNS_16__hash_node_baseIPNS_11__hash_nodeINS_17__hash_value_typeINS_12basic_stringIcNS_11char_traitsIcEENS_9allocatorIcEEEES9_EEPvEEEENS_25__bucket_list_deallocatorINS7_ISF_EEEEED2B8ue170006Ev, symObjAddr: 0x19570, symBinAddr: 0x10001DD10, symSize: 0x30 }
  - { offsetInCU: 0x490A5, offset: 0x604F9, size: 0x8, addend: 0x0, symName: __ZNSt3__110unique_ptrIA_PNS_16__hash_node_baseIPNS_11__hash_nodeINS_17__hash_value_typeINS_12basic_stringIcNS_11char_traitsIcEENS_9allocatorIcEEEES9_EEPvEEEENS_25__bucket_list_deallocatorINS7_ISF_EEEEE5resetB8ue170006EDn, symObjAddr: 0x195A0, symBinAddr: 0x10001DD40, symSize: 0x6C }
  - { offsetInCU: 0x490E6, offset: 0x6053A, size: 0x8, addend: 0x0, symName: __ZNSt3__117__compressed_pairIPPNS_16__hash_node_baseIPNS_11__hash_nodeINS_17__hash_value_typeINS_12basic_stringIcNS_11char_traitsIcEENS_9allocatorIcEEEES9_EEPvEEEENS_25__bucket_list_deallocatorINS7_ISF_EEEEE5firstB8ue170006Ev, symObjAddr: 0x1960C, symBinAddr: 0x10001DDAC, symSize: 0x24 }
  - { offsetInCU: 0x4910C, offset: 0x60560, size: 0x8, addend: 0x0, symName: __ZNSt3__117__compressed_pairIPPNS_16__hash_node_baseIPNS_11__hash_nodeINS_17__hash_value_typeINS_12basic_stringIcNS_11char_traitsIcEENS_9allocatorIcEEEES9_EEPvEEEENS_25__bucket_list_deallocatorINS7_ISF_EEEEE6secondB8ue170006Ev, symObjAddr: 0x19630, symBinAddr: 0x10001DDD0, symSize: 0x28 }
  - { offsetInCU: 0x49132, offset: 0x60586, size: 0x8, addend: 0x0, symName: __ZNSt3__125__bucket_list_deallocatorINS_9allocatorIPNS_16__hash_node_baseIPNS_11__hash_nodeINS_17__hash_value_typeINS_12basic_stringIcNS_11char_traitsIcEENS1_IcEEEES9_EEPvEEEEEEEclB8ue170006EPSF_, symObjAddr: 0x19658, symBinAddr: 0x10001DDF8, symSize: 0x58 }
  - { offsetInCU: 0x49167, offset: 0x605BB, size: 0x8, addend: 0x0, symName: __ZNSt3__122__compressed_pair_elemIPPNS_16__hash_node_baseIPNS_11__hash_nodeINS_17__hash_value_typeINS_12basic_stringIcNS_11char_traitsIcEENS_9allocatorIcEEEES9_EEPvEEEELi0ELb0EE5__getB8ue170006Ev, symObjAddr: 0x196B0, symBinAddr: 0x10001DE50, symSize: 0x14 }
  - { offsetInCU: 0x4918D, offset: 0x605E1, size: 0x8, addend: 0x0, symName: __ZNSt3__122__compressed_pair_elemINS_25__bucket_list_deallocatorINS_9allocatorIPNS_16__hash_node_baseIPNS_11__hash_nodeINS_17__hash_value_typeINS_12basic_stringIcNS_11char_traitsIcEENS2_IcEEEESA_EEPvEEEEEEEELi1ELb0EE5__getB8ue170006Ev, symObjAddr: 0x196C4, symBinAddr: 0x10001DE64, symSize: 0x14 }
  - { offsetInCU: 0x491B3, offset: 0x60607, size: 0x8, addend: 0x0, symName: __ZNSt3__116allocator_traitsINS_9allocatorIPNS_16__hash_node_baseIPNS_11__hash_nodeINS_17__hash_value_typeINS_12basic_stringIcNS_11char_traitsIcEENS1_IcEEEES9_EEPvEEEEEEE10deallocateB8ue170006ERSG_PSF_m, symObjAddr: 0x196D8, symBinAddr: 0x10001DE78, symSize: 0x34 }
  - { offsetInCU: 0x491F5, offset: 0x60649, size: 0x8, addend: 0x0, symName: __ZNSt3__125__bucket_list_deallocatorINS_9allocatorIPNS_16__hash_node_baseIPNS_11__hash_nodeINS_17__hash_value_typeINS_12basic_stringIcNS_11char_traitsIcEENS1_IcEEEES9_EEPvEEEEEEE7__allocB8ue170006Ev, symObjAddr: 0x1970C, symBinAddr: 0x10001DEAC, symSize: 0x24 }
  - { offsetInCU: 0x4921B, offset: 0x6066F, size: 0x8, addend: 0x0, symName: __ZNSt3__125__bucket_list_deallocatorINS_9allocatorIPNS_16__hash_node_baseIPNS_11__hash_nodeINS_17__hash_value_typeINS_12basic_stringIcNS_11char_traitsIcEENS1_IcEEEES9_EEPvEEEEEEE4sizeB8ue170006Ev, symObjAddr: 0x19730, symBinAddr: 0x10001DED0, symSize: 0x24 }
  - { offsetInCU: 0x49241, offset: 0x60695, size: 0x8, addend: 0x0, symName: __ZNSt3__19allocatorIPNS_16__hash_node_baseIPNS_11__hash_nodeINS_17__hash_value_typeINS_12basic_stringIcNS_11char_traitsIcEENS0_IcEEEES8_EEPvEEEEE10deallocateB8ue170006EPSE_m, symObjAddr: 0x19754, symBinAddr: 0x10001DEF4, symSize: 0x40 }
  - { offsetInCU: 0x49283, offset: 0x606D7, size: 0x8, addend: 0x0, symName: __ZNSt3__117__compressed_pairImNS_9allocatorIPNS_16__hash_node_baseIPNS_11__hash_nodeINS_17__hash_value_typeINS_12basic_stringIcNS_11char_traitsIcEENS1_IcEEEES9_EEPvEEEEEEE6secondB8ue170006Ev, symObjAddr: 0x19794, symBinAddr: 0x10001DF34, symSize: 0x24 }
  - { offsetInCU: 0x492A9, offset: 0x606FD, size: 0x8, addend: 0x0, symName: __ZNSt3__122__compressed_pair_elemINS_9allocatorIPNS_16__hash_node_baseIPNS_11__hash_nodeINS_17__hash_value_typeINS_12basic_stringIcNS_11char_traitsIcEENS1_IcEEEES9_EEPvEEEEEELi1ELb1EE5__getB8ue170006Ev, symObjAddr: 0x197B8, symBinAddr: 0x10001DF58, symSize: 0x14 }
  - { offsetInCU: 0x492CF, offset: 0x60723, size: 0x8, addend: 0x0, symName: __ZNSt3__117__compressed_pairImNS_9allocatorIPNS_16__hash_node_baseIPNS_11__hash_nodeINS_17__hash_value_typeINS_12basic_stringIcNS_11char_traitsIcEENS1_IcEEEES9_EEPvEEEEEEE5firstB8ue170006Ev, symObjAddr: 0x197CC, symBinAddr: 0x10001DF6C, symSize: 0x24 }
  - { offsetInCU: 0x492F5, offset: 0x60749, size: 0x8, addend: 0x0, symName: __ZNSt3__15dequeINS_4pairINS_12basic_stringIcNS_11char_traitsIcEENS_9allocatorIcEEEEiEENS5_IS8_EEE9push_backEOS8_, symObjAddr: 0x197F0, symBinAddr: 0x10001DF90, symSize: 0xAC }
  - { offsetInCU: 0x4933B, offset: 0x6078F, size: 0x8, addend: 0x0, symName: __ZNKSt3__15dequeINS_4pairINS_12basic_stringIcNS_11char_traitsIcEENS_9allocatorIcEEEEiEENS5_IS8_EEE12__back_spareB8ue170006Ev, symObjAddr: 0x1989C, symBinAddr: 0x10001E03C, symSize: 0x54 }
  - { offsetInCU: 0x49361, offset: 0x607B5, size: 0x8, addend: 0x0, symName: __ZNSt3__15dequeINS_4pairINS_12basic_stringIcNS_11char_traitsIcEENS_9allocatorIcEEEEiEENS5_IS8_EEE19__add_back_capacityEv, symObjAddr: 0x198F0, symBinAddr: 0x10001E090, symSize: 0x34C }
  - { offsetInCU: 0x49416, offset: 0x6086A, size: 0x8, addend: 0x0, symName: __ZNKSt3__15dequeINS_4pairINS_12basic_stringIcNS_11char_traitsIcEENS_9allocatorIcEEEEiEENS5_IS8_EEE24__annotate_increase_backB8ue170006Em, symObjAddr: 0x19C3C, symBinAddr: 0x10001E3DC, symSize: 0x7C }
  - { offsetInCU: 0x4944B, offset: 0x6089F, size: 0x8, addend: 0x0, symName: __ZNSt3__116allocator_traitsINS_9allocatorINS_4pairINS_12basic_stringIcNS_11char_traitsIcEENS1_IcEEEEiEEEEE9constructB8ue170006IS8_JS8_EvvEEvRS9_PT_DpOT0_, symObjAddr: 0x19CB8, symBinAddr: 0x10001E458, symSize: 0x30 }
  - { offsetInCU: 0x494A0, offset: 0x608F4, size: 0x8, addend: 0x0, symName: __ZNKSt3__15dequeINS_4pairINS_12basic_stringIcNS_11char_traitsIcEENS_9allocatorIcEEEEiEENS5_IS8_EEE10__capacityB8ue170006Ev, symObjAddr: 0x19CE8, symBinAddr: 0x10001E488, symSize: 0x60 }
  - { offsetInCU: 0x494C6, offset: 0x6091A, size: 0x8, addend: 0x0, symName: __ZNKSt3__15dequeINS_4pairINS_12basic_stringIcNS_11char_traitsIcEENS_9allocatorIcEEEEiEENS5_IS8_EEE13__front_spareB8ue170006Ev, symObjAddr: 0x19D48, symBinAddr: 0x10001E4E8, symSize: 0x18 }
  - { offsetInCU: 0x494EC, offset: 0x60940, size: 0x8, addend: 0x0, symName: __ZNSt3__114__split_bufferIPNS_4pairINS_12basic_stringIcNS_11char_traitsIcEENS_9allocatorIcEEEEiEENS5_IS9_EEE9push_backB8ue170006ERKS9_, symObjAddr: 0x19D60, symBinAddr: 0x10001E500, symSize: 0x260 }
  - { offsetInCU: 0x49564, offset: 0x609B8, size: 0x8, addend: 0x0, symName: __ZNKSt3__114__split_bufferIPNS_4pairINS_12basic_stringIcNS_11char_traitsIcEENS_9allocatorIcEEEEiEENS5_IS9_EEE12__back_spareB8ue170006Ev, symObjAddr: 0x19FC0, symBinAddr: 0x10001E760, symSize: 0x40 }
  - { offsetInCU: 0x4958A, offset: 0x609DE, size: 0x8, addend: 0x0, symName: __ZNSt3__114__split_bufferIPNS_4pairINS_12basic_stringIcNS_11char_traitsIcEENS_9allocatorIcEEEEiEENS5_IS9_EEE9push_backEOS9_, symObjAddr: 0x1A000, symBinAddr: 0x10001E7A0, symSize: 0x260 }
  - { offsetInCU: 0x49602, offset: 0x60A56, size: 0x8, addend: 0x0, symName: __ZNSt3__116allocator_traitsINS_9allocatorINS_4pairINS_12basic_stringIcNS_11char_traitsIcEENS1_IcEEEEiEEEEE8allocateB8ue170006ERS9_m, symObjAddr: 0x1A260, symBinAddr: 0x10001EA00, symSize: 0x2C }
  - { offsetInCU: 0x49635, offset: 0x60A89, size: 0x8, addend: 0x0, symName: __ZNSt3__114__split_bufferIPNS_4pairINS_12basic_stringIcNS_11char_traitsIcEENS_9allocatorIcEEEEiEENS5_IS9_EEE10push_frontEOS9_, symObjAddr: 0x1A28C, symBinAddr: 0x10001EA2C, symSize: 0x25C }
  - { offsetInCU: 0x496AD, offset: 0x60B01, size: 0x8, addend: 0x0, symName: __ZNSt3__114__split_bufferIPNS_4pairINS_12basic_stringIcNS_11char_traitsIcEENS_9allocatorIcEEEEiEERNS5_IS9_EEEC1EmmSB_, symObjAddr: 0x1A4E8, symBinAddr: 0x10001EC88, symSize: 0x44 }
  - { offsetInCU: 0x49708, offset: 0x60B5C, size: 0x8, addend: 0x0, symName: __ZNSt3__122__allocator_destructorINS_9allocatorINS_4pairINS_12basic_stringIcNS_11char_traitsIcEENS1_IcEEEEiEEEEEC1B8ue170006ERS9_m, symObjAddr: 0x1A52C, symBinAddr: 0x10001ECCC, symSize: 0x3C }
  - { offsetInCU: 0x497D0, offset: 0x60C24, size: 0x8, addend: 0x0, symName: __ZNSt3__110unique_ptrIPNS_4pairINS_12basic_stringIcNS_11char_traitsIcEENS_9allocatorIcEEEEiEENS_22__allocator_destructorINS5_IS8_EEEEEC1B8ue170006ILb1EvEES9_NS_16__dependent_typeINS_27__unique_ptr_deleter_sfinaeISC_EEXT_EE20__good_rval_ref_typeE, symObjAddr: 0x1A568, symBinAddr: 0x10001ED08, symSize: 0x3C }
  - { offsetInCU: 0x49821, offset: 0x60C75, size: 0x8, addend: 0x0, symName: __ZNSt3__114__split_bufferIPNS_4pairINS_12basic_stringIcNS_11char_traitsIcEENS_9allocatorIcEEEEiEERNS5_IS9_EEE9push_backEOS9_, symObjAddr: 0x1A5A4, symBinAddr: 0x10001ED44, symSize: 0x260 }
  - { offsetInCU: 0x49899, offset: 0x60CED, size: 0x8, addend: 0x0, symName: __ZNKSt3__110unique_ptrIPNS_4pairINS_12basic_stringIcNS_11char_traitsIcEENS_9allocatorIcEEEEiEENS_22__allocator_destructorINS5_IS8_EEEEE3getB8ue170006Ev, symObjAddr: 0x1A804, symBinAddr: 0x10001EFA4, symSize: 0x28 }
  - { offsetInCU: 0x498BF, offset: 0x60D13, size: 0x8, addend: 0x0, symName: __ZNSt3__110unique_ptrIPNS_4pairINS_12basic_stringIcNS_11char_traitsIcEENS_9allocatorIcEEEEiEENS_22__allocator_destructorINS5_IS8_EEEEE7releaseB8ue170006Ev, symObjAddr: 0x1A82C, symBinAddr: 0x10001EFCC, symSize: 0x44 }
  - { offsetInCU: 0x498F4, offset: 0x60D48, size: 0x8, addend: 0x0, symName: __ZNSt3__114__split_bufferIPNS_4pairINS_12basic_stringIcNS_11char_traitsIcEENS_9allocatorIcEEEEiEERNS5_IS9_EEE10push_frontERKS9_, symObjAddr: 0x1A870, symBinAddr: 0x10001F010, symSize: 0x25C }
  - { offsetInCU: 0x4996C, offset: 0x60DC0, size: 0x8, addend: 0x0, symName: __ZNSt3__114__split_bufferIPNS_4pairINS_12basic_stringIcNS_11char_traitsIcEENS_9allocatorIcEEEEiEENS5_IS9_EEE9__end_capB8ue170006Ev, symObjAddr: 0x1AB08, symBinAddr: 0x10001F2A8, symSize: 0x28 }
  - { offsetInCU: 0x49992, offset: 0x60DE6, size: 0x8, addend: 0x0, symName: __ZNSt3__114__split_bufferIPNS_4pairINS_12basic_stringIcNS_11char_traitsIcEENS_9allocatorIcEEEEiEERNS5_IS9_EEE9__end_capB8ue170006Ev, symObjAddr: 0x1AB30, symBinAddr: 0x10001F2D0, symSize: 0x28 }
  - { offsetInCU: 0x499B8, offset: 0x60E0C, size: 0x8, addend: 0x0, symName: __ZNSt3__110unique_ptrIPNS_4pairINS_12basic_stringIcNS_11char_traitsIcEENS_9allocatorIcEEEEiEENS_22__allocator_destructorINS5_IS8_EEEEED1B8ue170006Ev, symObjAddr: 0x1AB58, symBinAddr: 0x10001F2F8, symSize: 0x2C }
  - { offsetInCU: 0x499E2, offset: 0x60E36, size: 0x8, addend: 0x0, symName: __ZNSt3__114__split_bufferIPNS_4pairINS_12basic_stringIcNS_11char_traitsIcEENS_9allocatorIcEEEEiEERNS5_IS9_EEED1Ev, symObjAddr: 0x1AB84, symBinAddr: 0x10001F324, symSize: 0x2C }
  - { offsetInCU: 0x49A0E, offset: 0x60E62, size: 0x8, addend: 0x0, symName: __ZNSt3__114__split_bufferIPNS_4pairINS_12basic_stringIcNS_11char_traitsIcEENS_9allocatorIcEEEEiEERNS5_IS9_EEE18__construct_at_endINS_13move_iteratorIPS9_EEEENS_9enable_ifIXsr31__has_forward_iterator_categoryIT_EE5valueEvE4typeESI_SI_, symObjAddr: 0x1ABF0, symBinAddr: 0x10001F390, symSize: 0x60 }
  - { offsetInCU: 0x49A5B, offset: 0x60EAF, size: 0x8, addend: 0x0, symName: __ZNSt3__113move_iteratorIPPNS_4pairINS_12basic_stringIcNS_11char_traitsIcEENS_9allocatorIcEEEEiEEEC1B8ue170006ESA_, symObjAddr: 0x1AC50, symBinAddr: 0x10001F3F0, symSize: 0x34 }
  - { offsetInCU: 0x49A93, offset: 0x60EE7, size: 0x8, addend: 0x0, symName: __ZNSt3__116allocator_traitsINS_9allocatorIPNS_4pairINS_12basic_stringIcNS_11char_traitsIcEENS1_IcEEEEiEEEEE9constructB8ue170006IS9_JRKS9_EvvEEvRSA_PT_DpOT0_, symObjAddr: 0x1AC84, symBinAddr: 0x10001F424, symSize: 0x30 }
  - { offsetInCU: 0x49B01, offset: 0x60F55, size: 0x8, addend: 0x0, symName: __ZNKSt3__114__move_trivialclB8ue170006IPNS_4pairINS_12basic_stringIcNS_11char_traitsIcEENS_9allocatorIcEEEEiEESA_Li0EEENS2_IPT_PT0_EESC_SC_SE_, symObjAddr: 0x1AE2C, symBinAddr: 0x10001F5CC, symSize: 0x48 }
  - { offsetInCU: 0x49B69, offset: 0x60FBD, size: 0x8, addend: 0x0, symName: __ZNSt3__119__unwrap_range_implIPPNS_4pairINS_12basic_stringIcNS_11char_traitsIcEENS_9allocatorIcEEEEiEESA_E8__unwrapB8ue170006ESA_SA_, symObjAddr: 0x1AF38, symBinAddr: 0x10001F6D8, symSize: 0x58 }
  - { offsetInCU: 0x49B9F, offset: 0x60FF3, size: 0x8, addend: 0x0, symName: __ZNSt3__14pairIPPNS0_INS_12basic_stringIcNS_11char_traitsIcEENS_9allocatorIcEEEEiEES9_EC1B8ue170006IS9_S9_LPv0EEEOT_OT0_, symObjAddr: 0x1AF90, symBinAddr: 0x10001F730, symSize: 0x3C }
  - { offsetInCU: 0x49BFE, offset: 0x61052, size: 0x8, addend: 0x0, symName: __ZNSt3__14pairIPPNS0_INS_12basic_stringIcNS_11char_traitsIcEENS_9allocatorIcEEEEiEES9_EC2B8ue170006IS9_S9_LPv0EEEOT_OT0_, symObjAddr: 0x1AFCC, symBinAddr: 0x10001F76C, symSize: 0x34 }
  - { offsetInCU: 0x49C5D, offset: 0x610B1, size: 0x8, addend: 0x0, symName: __ZNSt3__14pairIPPNS0_INS_12basic_stringIcNS_11char_traitsIcEENS_9allocatorIcEEEEiEES9_EC1B8ue170006IRS9_S9_LPv0EEEOT_OT0_, symObjAddr: 0x1B11C, symBinAddr: 0x10001F8BC, symSize: 0x3C }
  - { offsetInCU: 0x49CBC, offset: 0x61110, size: 0x8, addend: 0x0, symName: __ZNSt3__14pairIPPNS0_INS_12basic_stringIcNS_11char_traitsIcEENS_9allocatorIcEEEEiEES9_EC2B8ue170006IRS9_S9_LPv0EEEOT_OT0_, symObjAddr: 0x1B158, symBinAddr: 0x10001F8F8, symSize: 0x34 }
  - { offsetInCU: 0x49D1B, offset: 0x6116F, size: 0x8, addend: 0x0, symName: __ZNSt3__118__unwrap_iter_implIPPNS_4pairINS_12basic_stringIcNS_11char_traitsIcEENS_9allocatorIcEEEEiEELb1EE8__unwrapB8ue170006ESA_, symObjAddr: 0x1B18C, symBinAddr: 0x10001F92C, symSize: 0x24 }
  - { offsetInCU: 0x49D3E, offset: 0x61192, size: 0x8, addend: 0x0, symName: __ZNSt3__119__unwrap_range_implIPPNS_4pairINS_12basic_stringIcNS_11char_traitsIcEENS_9allocatorIcEEEEiEESA_E8__rewrapB8ue170006ESA_SA_, symObjAddr: 0x1B1B0, symBinAddr: 0x10001F950, symSize: 0x2C }
  - { offsetInCU: 0x49D6F, offset: 0x611C3, size: 0x8, addend: 0x0, symName: __ZNSt3__118__unwrap_iter_implIPPNS_4pairINS_12basic_stringIcNS_11char_traitsIcEENS_9allocatorIcEEEEiEELb1EE8__rewrapB8ue170006ESA_SA_, symObjAddr: 0x1B1DC, symBinAddr: 0x10001F97C, symSize: 0x50 }
  - { offsetInCU: 0x49DA0, offset: 0x611F4, size: 0x8, addend: 0x0, symName: __ZNSt3__114__split_bufferIPNS_4pairINS_12basic_stringIcNS_11char_traitsIcEENS_9allocatorIcEEEEiEERNS5_IS9_EEE28__construct_at_end_with_sizeINS_13move_iteratorIPS9_EEEEvT_m, symObjAddr: 0x1B22C, symBinAddr: 0x10001F9CC, symSize: 0xDC }
  - { offsetInCU: 0x49E06, offset: 0x6125A, size: 0x8, addend: 0x0, symName: __ZNSt3__114__split_bufferIPNS_4pairINS_12basic_stringIcNS_11char_traitsIcEENS_9allocatorIcEEEEiEERNS5_IS9_EEE21_ConstructTransactionC1B8ue170006EPPS9_m, symObjAddr: 0x1B344, symBinAddr: 0x10001FAE4, symSize: 0x3C }
  - { offsetInCU: 0x49E51, offset: 0x612A5, size: 0x8, addend: 0x0, symName: __ZNSt3__116allocator_traitsINS_9allocatorIPNS_4pairINS_12basic_stringIcNS_11char_traitsIcEENS1_IcEEEEiEEEEE9constructB8ue170006IS9_JS9_EvvEEvRSA_PT_DpOT0_, symObjAddr: 0x1B380, symBinAddr: 0x10001FB20, symSize: 0x30 }
  - { offsetInCU: 0x49EA6, offset: 0x612FA, size: 0x8, addend: 0x0, symName: __ZNSt3__114__split_bufferIPNS_4pairINS_12basic_stringIcNS_11char_traitsIcEENS_9allocatorIcEEEEiEERNS5_IS9_EEE7__allocB8ue170006Ev, symObjAddr: 0x1B3B0, symBinAddr: 0x10001FB50, symSize: 0x28 }
  - { offsetInCU: 0x49ECC, offset: 0x61320, size: 0x8, addend: 0x0, symName: __ZNKSt3__113move_iteratorIPPNS_4pairINS_12basic_stringIcNS_11char_traitsIcEENS_9allocatorIcEEEEiEEEdeB8ue170006Ev, symObjAddr: 0x1B3D8, symBinAddr: 0x10001FB78, symSize: 0x2C }
  - { offsetInCU: 0x49EF2, offset: 0x61346, size: 0x8, addend: 0x0, symName: __ZNSt3__113move_iteratorIPPNS_4pairINS_12basic_stringIcNS_11char_traitsIcEENS_9allocatorIcEEEEiEEEppB8ue170006Ev, symObjAddr: 0x1B404, symBinAddr: 0x10001FBA4, symSize: 0x20 }
  - { offsetInCU: 0x49F18, offset: 0x6136C, size: 0x8, addend: 0x0, symName: __ZNSt3__114__split_bufferIPNS_4pairINS_12basic_stringIcNS_11char_traitsIcEENS_9allocatorIcEEEEiEERNS5_IS9_EEE21_ConstructTransactionD1B8ue170006Ev, symObjAddr: 0x1B424, symBinAddr: 0x10001FBC4, symSize: 0x2C }
  - { offsetInCU: 0x49F42, offset: 0x61396, size: 0x8, addend: 0x0, symName: __ZNSt3__114__split_bufferIPNS_4pairINS_12basic_stringIcNS_11char_traitsIcEENS_9allocatorIcEEEEiEERNS5_IS9_EEE21_ConstructTransactionC2B8ue170006EPPS9_m, symObjAddr: 0x1B450, symBinAddr: 0x10001FBF0, symSize: 0x44 }
  - { offsetInCU: 0x49F88, offset: 0x613DC, size: 0x8, addend: 0x0, symName: __ZNSt3__117__compressed_pairIPPNS_4pairINS_12basic_stringIcNS_11char_traitsIcEENS_9allocatorIcEEEEiEERNS5_IS9_EEE6secondB8ue170006Ev, symObjAddr: 0x1B4C0, symBinAddr: 0x10001FC60, symSize: 0x28 }
  - { offsetInCU: 0x49FAE, offset: 0x61402, size: 0x8, addend: 0x0, symName: __ZNSt3__122__compressed_pair_elemIRNS_9allocatorIPNS_4pairINS_12basic_stringIcNS_11char_traitsIcEENS1_IcEEEEiEEEELi1ELb0EE5__getB8ue170006Ev, symObjAddr: 0x1B4E8, symBinAddr: 0x10001FC88, symSize: 0x18 }
  - { offsetInCU: 0x49FD4, offset: 0x61428, size: 0x8, addend: 0x0, symName: __ZNKSt3__16ranges11__iter_move4__fnclB8ue170006IRKPPNS_4pairINS_12basic_stringIcNS_11char_traitsIcEENS_9allocatorIcEEEEiEEEEDTclsr3stdE4movedeclsr3stdE7forwardIT_Efp_EEEOSG_, symObjAddr: 0x1B500, symBinAddr: 0x10001FCA0, symSize: 0x1C }
  - { offsetInCU: 0x4A011, offset: 0x61465, size: 0x8, addend: 0x0, symName: __ZNSt3__114__split_bufferIPNS_4pairINS_12basic_stringIcNS_11char_traitsIcEENS_9allocatorIcEEEEiEERNS5_IS9_EEE21_ConstructTransactionD2B8ue170006Ev, symObjAddr: 0x1B51C, symBinAddr: 0x10001FCBC, symSize: 0x20 }
  - { offsetInCU: 0x4A03B, offset: 0x6148F, size: 0x8, addend: 0x0, symName: __ZNKRSt3__113move_iteratorIPPNS_4pairINS_12basic_stringIcNS_11char_traitsIcEENS_9allocatorIcEEEEiEEE4baseB8ue170006Ev, symObjAddr: 0x1B5B8, symBinAddr: 0x10001FD58, symSize: 0x14 }
  - { offsetInCU: 0x4A061, offset: 0x614B5, size: 0x8, addend: 0x0, symName: __ZNSt3__113move_iteratorIPPNS_4pairINS_12basic_stringIcNS_11char_traitsIcEENS_9allocatorIcEEEEiEEEC2B8ue170006ESA_, symObjAddr: 0x1B5CC, symBinAddr: 0x10001FD6C, symSize: 0x20 }
  - { offsetInCU: 0x4A099, offset: 0x614ED, size: 0x8, addend: 0x0, symName: __ZNSt3__19allocatorINS_4pairINS_12basic_stringIcNS_11char_traitsIcEENS0_IcEEEEiEEE8allocateB8ue170006Em, symObjAddr: 0x1B618, symBinAddr: 0x10001FDB8, symSize: 0x58 }
  - { offsetInCU: 0x4A0D7, offset: 0x6152B, size: 0x8, addend: 0x0, symName: __ZNSt3__116allocator_traitsINS_9allocatorINS_4pairINS_12basic_stringIcNS_11char_traitsIcEENS1_IcEEEEiEEEEE8max_sizeB8ue170006IS9_vvEEmRKS9_, symObjAddr: 0x1B670, symBinAddr: 0x10001FE10, symSize: 0x28 }
  - { offsetInCU: 0x4A103, offset: 0x61557, size: 0x8, addend: 0x0, symName: __ZNKSt3__123__move_backward_trivialclB8ue170006IPNS_4pairINS_12basic_stringIcNS_11char_traitsIcEENS_9allocatorIcEEEEiEESA_Li0EEENS2_IPT_PT0_EESC_SC_SE_, symObjAddr: 0x1B814, symBinAddr: 0x10001FFB4, symSize: 0x48 }
  - { offsetInCU: 0x4A16B, offset: 0x615BF, size: 0x8, addend: 0x0, symName: __ZNSt3__14pairIPPNS0_INS_12basic_stringIcNS_11char_traitsIcEENS_9allocatorIcEEEEiEES9_EC1B8ue170006IRS9_SC_LPv0EEEOT_OT0_, symObjAddr: 0x1B924, symBinAddr: 0x1000200C4, symSize: 0x3C }
  - { offsetInCU: 0x4A1CA, offset: 0x6161E, size: 0x8, addend: 0x0, symName: __ZNSt3__14pairIPPNS0_INS_12basic_stringIcNS_11char_traitsIcEENS_9allocatorIcEEEEiEES9_EC2B8ue170006IRS9_SC_LPv0EEEOT_OT0_, symObjAddr: 0x1B960, symBinAddr: 0x100020100, symSize: 0x34 }
  - { offsetInCU: 0x4A229, offset: 0x6167D, size: 0x8, addend: 0x0, symName: __ZNSt3__114__split_bufferIPNS_4pairINS_12basic_stringIcNS_11char_traitsIcEENS_9allocatorIcEEEEiEERNS5_IS9_EEEC2EmmSB_, symObjAddr: 0x1B994, symBinAddr: 0x100020134, symSize: 0xD4 }
  - { offsetInCU: 0x4A29C, offset: 0x616F0, size: 0x8, addend: 0x0, symName: __ZNSt3__117__compressed_pairIPPNS_4pairINS_12basic_stringIcNS_11char_traitsIcEENS_9allocatorIcEEEEiEERNS5_IS9_EEEC1B8ue170006IDnSC_EEOT_OT0_, symObjAddr: 0x1BA68, symBinAddr: 0x100020208, symSize: 0x3C }
  - { offsetInCU: 0x4A2F4, offset: 0x61748, size: 0x8, addend: 0x0, symName: __ZNSt3__117__compressed_pairIPPNS_4pairINS_12basic_stringIcNS_11char_traitsIcEENS_9allocatorIcEEEEiEERNS5_IS9_EEEC2B8ue170006IDnSC_EEOT_OT0_, symObjAddr: 0x1BAE4, symBinAddr: 0x100020284, symSize: 0x48 }
  - { offsetInCU: 0x4A34C, offset: 0x617A0, size: 0x8, addend: 0x0, symName: __ZNSt3__122__compressed_pair_elemIRNS_9allocatorIPNS_4pairINS_12basic_stringIcNS_11char_traitsIcEENS1_IcEEEEiEEEELi1ELb0EEC2B8ue170006ISB_vEEOT_, symObjAddr: 0x1BB2C, symBinAddr: 0x1000202CC, symSize: 0x20 }
  - { offsetInCU: 0x4A38E, offset: 0x617E2, size: 0x8, addend: 0x0, symName: __ZNSt3__19allocatorIPNS_4pairINS_12basic_stringIcNS_11char_traitsIcEENS0_IcEEEEiEEE8allocateB8ue170006Em, symObjAddr: 0x1BB4C, symBinAddr: 0x1000202EC, symSize: 0x58 }
  - { offsetInCU: 0x4A3CC, offset: 0x61820, size: 0x8, addend: 0x0, symName: __ZNSt3__116allocator_traitsINS_9allocatorIPNS_4pairINS_12basic_stringIcNS_11char_traitsIcEENS1_IcEEEEiEEEEE8max_sizeB8ue170006ISA_vvEEmRKSA_, symObjAddr: 0x1BBA4, symBinAddr: 0x100020344, symSize: 0x28 }
  - { offsetInCU: 0x4A3F8, offset: 0x6184C, size: 0x8, addend: 0x0, symName: __ZNSt3__122__allocator_destructorINS_9allocatorINS_4pairINS_12basic_stringIcNS_11char_traitsIcEENS1_IcEEEEiEEEEEC2B8ue170006ERS9_m, symObjAddr: 0x1BBCC, symBinAddr: 0x10002036C, symSize: 0x2C }
  - { offsetInCU: 0x4A43E, offset: 0x61892, size: 0x8, addend: 0x0, symName: __ZNSt3__110unique_ptrIPNS_4pairINS_12basic_stringIcNS_11char_traitsIcEENS_9allocatorIcEEEEiEENS_22__allocator_destructorINS5_IS8_EEEEEC2B8ue170006ILb1EvEES9_NS_16__dependent_typeINS_27__unique_ptr_deleter_sfinaeISC_EEXT_EE20__good_rval_ref_typeE, symObjAddr: 0x1BBF8, symBinAddr: 0x100020398, symSize: 0x48 }
  - { offsetInCU: 0x4A48F, offset: 0x618E3, size: 0x8, addend: 0x0, symName: __ZNSt3__117__compressed_pairIPNS_4pairINS_12basic_stringIcNS_11char_traitsIcEENS_9allocatorIcEEEEiEENS_22__allocator_destructorINS5_IS8_EEEEEC1B8ue170006IRS9_SC_EEOT_OT0_, symObjAddr: 0x1BC40, symBinAddr: 0x1000203E0, symSize: 0x3C }
  - { offsetInCU: 0x4A4E7, offset: 0x6193B, size: 0x8, addend: 0x0, symName: __ZNSt3__117__compressed_pairIPNS_4pairINS_12basic_stringIcNS_11char_traitsIcEENS_9allocatorIcEEEEiEENS_22__allocator_destructorINS5_IS8_EEEEEC2B8ue170006IRS9_SC_EEOT_OT0_, symObjAddr: 0x1BC7C, symBinAddr: 0x10002041C, symSize: 0x48 }
  - { offsetInCU: 0x4A53F, offset: 0x61993, size: 0x8, addend: 0x0, symName: __ZNSt3__122__compressed_pair_elemIPNS_4pairINS_12basic_stringIcNS_11char_traitsIcEENS_9allocatorIcEEEEiEELi0ELb0EEC2B8ue170006IRS9_vEEOT_, symObjAddr: 0x1BCC4, symBinAddr: 0x100020464, symSize: 0x24 }
  - { offsetInCU: 0x4A581, offset: 0x619D5, size: 0x8, addend: 0x0, symName: __ZNSt3__122__compressed_pair_elemINS_22__allocator_destructorINS_9allocatorINS_4pairINS_12basic_stringIcNS_11char_traitsIcEENS2_IcEEEEiEEEEEELi1ELb0EEC2B8ue170006ISB_vEEOT_, symObjAddr: 0x1BCE8, symBinAddr: 0x100020488, symSize: 0x24 }
  - { offsetInCU: 0x4A5C3, offset: 0x61A17, size: 0x8, addend: 0x0, symName: __ZNKSt3__117__compressed_pairIPNS_4pairINS_12basic_stringIcNS_11char_traitsIcEENS_9allocatorIcEEEEiEENS_22__allocator_destructorINS5_IS8_EEEEE5firstB8ue170006Ev, symObjAddr: 0x1BD0C, symBinAddr: 0x1000204AC, symSize: 0x24 }
  - { offsetInCU: 0x4A5E9, offset: 0x61A3D, size: 0x8, addend: 0x0, symName: __ZNKSt3__122__compressed_pair_elemIPNS_4pairINS_12basic_stringIcNS_11char_traitsIcEENS_9allocatorIcEEEEiEELi0ELb0EE5__getB8ue170006Ev, symObjAddr: 0x1BD30, symBinAddr: 0x1000204D0, symSize: 0x14 }
  - { offsetInCU: 0x4A60F, offset: 0x61A63, size: 0x8, addend: 0x0, symName: __ZNSt3__117__compressed_pairIPNS_4pairINS_12basic_stringIcNS_11char_traitsIcEENS_9allocatorIcEEEEiEENS_22__allocator_destructorINS5_IS8_EEEEE5firstB8ue170006Ev, symObjAddr: 0x1BD44, symBinAddr: 0x1000204E4, symSize: 0x24 }
  - { offsetInCU: 0x4A635, offset: 0x61A89, size: 0x8, addend: 0x0, symName: __ZNSt3__122__compressed_pair_elemIPNS_4pairINS_12basic_stringIcNS_11char_traitsIcEENS_9allocatorIcEEEEiEELi0ELb0EE5__getB8ue170006Ev, symObjAddr: 0x1BD68, symBinAddr: 0x100020508, symSize: 0x14 }
  - { offsetInCU: 0x4A65B, offset: 0x61AAF, size: 0x8, addend: 0x0, symName: __ZNSt3__117__compressed_pairIPPNS_4pairINS_12basic_stringIcNS_11char_traitsIcEENS_9allocatorIcEEEEiEENS5_IS9_EEE5firstB8ue170006Ev, symObjAddr: 0x1BD7C, symBinAddr: 0x10002051C, symSize: 0x24 }
  - { offsetInCU: 0x4A681, offset: 0x61AD5, size: 0x8, addend: 0x0, symName: __ZNSt3__122__compressed_pair_elemIPPNS_4pairINS_12basic_stringIcNS_11char_traitsIcEENS_9allocatorIcEEEEiEELi0ELb0EE5__getB8ue170006Ev, symObjAddr: 0x1BDA0, symBinAddr: 0x100020540, symSize: 0x14 }
  - { offsetInCU: 0x4A6A7, offset: 0x61AFB, size: 0x8, addend: 0x0, symName: __ZNSt3__117__compressed_pairIPPNS_4pairINS_12basic_stringIcNS_11char_traitsIcEENS_9allocatorIcEEEEiEERNS5_IS9_EEE5firstB8ue170006Ev, symObjAddr: 0x1BDB4, symBinAddr: 0x100020554, symSize: 0x24 }
  - { offsetInCU: 0x4A6CD, offset: 0x61B21, size: 0x8, addend: 0x0, symName: __ZNSt3__110unique_ptrIPNS_4pairINS_12basic_stringIcNS_11char_traitsIcEENS_9allocatorIcEEEEiEENS_22__allocator_destructorINS5_IS8_EEEEED2B8ue170006Ev, symObjAddr: 0x1BDD8, symBinAddr: 0x100020578, symSize: 0x30 }
  - { offsetInCU: 0x4A6F7, offset: 0x61B4B, size: 0x8, addend: 0x0, symName: __ZNSt3__110unique_ptrIPNS_4pairINS_12basic_stringIcNS_11char_traitsIcEENS_9allocatorIcEEEEiEENS_22__allocator_destructorINS5_IS8_EEEEE5resetB8ue170006ES9_, symObjAddr: 0x1BE08, symBinAddr: 0x1000205A8, symSize: 0x78 }
  - { offsetInCU: 0x4A73B, offset: 0x61B8F, size: 0x8, addend: 0x0, symName: __ZNSt3__117__compressed_pairIPNS_4pairINS_12basic_stringIcNS_11char_traitsIcEENS_9allocatorIcEEEEiEENS_22__allocator_destructorINS5_IS8_EEEEE6secondB8ue170006Ev, symObjAddr: 0x1BE80, symBinAddr: 0x100020620, symSize: 0x28 }
  - { offsetInCU: 0x4A761, offset: 0x61BB5, size: 0x8, addend: 0x0, symName: __ZNSt3__122__allocator_destructorINS_9allocatorINS_4pairINS_12basic_stringIcNS_11char_traitsIcEENS1_IcEEEEiEEEEEclB8ue170006EPS8_, symObjAddr: 0x1BEA8, symBinAddr: 0x100020648, symSize: 0x34 }
  - { offsetInCU: 0x4A795, offset: 0x61BE9, size: 0x8, addend: 0x0, symName: __ZNSt3__122__compressed_pair_elemINS_22__allocator_destructorINS_9allocatorINS_4pairINS_12basic_stringIcNS_11char_traitsIcEENS2_IcEEEEiEEEEEELi1ELb0EE5__getB8ue170006Ev, symObjAddr: 0x1BEDC, symBinAddr: 0x10002067C, symSize: 0x14 }
  - { offsetInCU: 0x4A7BB, offset: 0x61C0F, size: 0x8, addend: 0x0, symName: __ZNSt3__114__split_bufferIPNS_4pairINS_12basic_stringIcNS_11char_traitsIcEENS_9allocatorIcEEEEiEERNS5_IS9_EEED2Ev, symObjAddr: 0x1BEF0, symBinAddr: 0x100020690, symSize: 0x8C }
  - { offsetInCU: 0x4A7E7, offset: 0x61C3B, size: 0x8, addend: 0x0, symName: __ZNSt3__114__split_bufferIPNS_4pairINS_12basic_stringIcNS_11char_traitsIcEENS_9allocatorIcEEEEiEERNS5_IS9_EEE5clearB8ue170006Ev, symObjAddr: 0x1BF7C, symBinAddr: 0x10002071C, symSize: 0x28 }
  - { offsetInCU: 0x4A80D, offset: 0x61C61, size: 0x8, addend: 0x0, symName: __ZNKSt3__114__split_bufferIPNS_4pairINS_12basic_stringIcNS_11char_traitsIcEENS_9allocatorIcEEEEiEERNS5_IS9_EEE8capacityB8ue170006Ev, symObjAddr: 0x1BFA4, symBinAddr: 0x100020744, symSize: 0x40 }
  - { offsetInCU: 0x4A833, offset: 0x61C87, size: 0x8, addend: 0x0, symName: __ZNSt3__114__split_bufferIPNS_4pairINS_12basic_stringIcNS_11char_traitsIcEENS_9allocatorIcEEEEiEERNS5_IS9_EEE17__destruct_at_endB8ue170006EPS9_, symObjAddr: 0x1BFE4, symBinAddr: 0x100020784, symSize: 0x2C }
  - { offsetInCU: 0x4A867, offset: 0x61CBB, size: 0x8, addend: 0x0, symName: __ZNSt3__114__split_bufferIPNS_4pairINS_12basic_stringIcNS_11char_traitsIcEENS_9allocatorIcEEEEiEERNS5_IS9_EEE17__destruct_at_endB8ue170006EPS9_NS_17integral_constantIbLb0EEE, symObjAddr: 0x1C010, symBinAddr: 0x1000207B0, symSize: 0x80 }
  - { offsetInCU: 0x4A8A8, offset: 0x61CFC, size: 0x8, addend: 0x0, symName: __ZNKSt3__114__split_bufferIPNS_4pairINS_12basic_stringIcNS_11char_traitsIcEENS_9allocatorIcEEEEiEERNS5_IS9_EEE9__end_capB8ue170006Ev, symObjAddr: 0x1C090, symBinAddr: 0x100020830, symSize: 0x28 }
  - { offsetInCU: 0x4A8CE, offset: 0x61D22, size: 0x8, addend: 0x0, symName: __ZNKSt3__117__compressed_pairIPPNS_4pairINS_12basic_stringIcNS_11char_traitsIcEENS_9allocatorIcEEEEiEERNS5_IS9_EEE5firstB8ue170006Ev, symObjAddr: 0x1C0B8, symBinAddr: 0x100020858, symSize: 0x24 }
  - { offsetInCU: 0x4A8F4, offset: 0x61D48, size: 0x8, addend: 0x0, symName: __ZNSt3__14pairINS_12basic_stringIcNS_11char_traitsIcEENS_9allocatorIcEEEEiEC1B8ue170006EOS7_, symObjAddr: 0x1C118, symBinAddr: 0x1000208B8, symSize: 0x34 }
  - { offsetInCU: 0x4A929, offset: 0x61D7D, size: 0x8, addend: 0x0, symName: __ZNSt3__14pairINS_12basic_stringIcNS_11char_traitsIcEENS_9allocatorIcEEEEiEC2B8ue170006EOS7_, symObjAddr: 0x1C14C, symBinAddr: 0x1000208EC, symSize: 0x40 }
  - { offsetInCU: 0x4A95E, offset: 0x61DB2, size: 0x8, addend: 0x0, symName: __ZNSt3__112__hash_tableINS_17__hash_value_typeINS_12basic_stringIcNS_11char_traitsIcEENS_9allocatorIcEEEES7_EENS_22__unordered_map_hasherIS7_S8_NS_4hashIS7_EENS_8equal_toIS7_EELb1EEENS_21__unordered_map_equalIS7_S8_SD_SB_Lb1EEENS5_IS8_EEE15__insert_uniqueB8ue170006EONS_4pairIKS7_S7_EE, symObjAddr: 0x1C18C, symBinAddr: 0x10002092C, symSize: 0x50 }
  - { offsetInCU: 0x4A993, offset: 0x61DE7, size: 0x8, addend: 0x0, symName: __ZNSt3__14pairINS_19__hash_map_iteratorINS_15__hash_iteratorIPNS_11__hash_nodeINS_17__hash_value_typeINS_12basic_stringIcNS_11char_traitsIcEENS_9allocatorIcEEEESA_EEPvEEEEEEbEC1B8ue170006ISF_bLSC_0EEEONS0_IT_T0_EE, symObjAddr: 0x1C1DC, symBinAddr: 0x10002097C, symSize: 0x34 }
  - { offsetInCU: 0x4A9E5, offset: 0x61E39, size: 0x8, addend: 0x0, symName: __ZNSt3__112__hash_tableINS_17__hash_value_typeINS_12basic_stringIcNS_11char_traitsIcEENS_9allocatorIcEEEES7_EENS_22__unordered_map_hasherIS7_S8_NS_4hashIS7_EENS_8equal_toIS7_EELb1EEENS_21__unordered_map_equalIS7_S8_SD_SB_Lb1EEENS5_IS8_EEE25__emplace_unique_key_argsIS7_JNS_4pairIKS7_S7_EEEEENSK_INS_15__hash_iteratorIPNS_11__hash_nodeIS8_PvEEEEbEERKT_DpOT0_, symObjAddr: 0x1C210, symBinAddr: 0x1000209B0, symSize: 0x4D8 }
  - { offsetInCU: 0x4AAC5, offset: 0x61F19, size: 0x8, addend: 0x0, symName: __ZNSt3__122__hash_key_value_typesINS_17__hash_value_typeINS_12basic_stringIcNS_11char_traitsIcEENS_9allocatorIcEEEES7_EEE9__get_keyB8ue170006ERKNS_4pairIKS7_S7_EE, symObjAddr: 0x1C6E8, symBinAddr: 0x100020E88, symSize: 0x14 }
  - { offsetInCU: 0x4AAE8, offset: 0x61F3C, size: 0x8, addend: 0x0, symName: __ZNSt3__112__hash_tableINS_17__hash_value_typeINS_12basic_stringIcNS_11char_traitsIcEENS_9allocatorIcEEEES7_EENS_22__unordered_map_hasherIS7_S8_NS_4hashIS7_EENS_8equal_toIS7_EELb1EEENS_21__unordered_map_equalIS7_S8_SD_SB_Lb1EEENS5_IS8_EEE13hash_functionB8ue170006Ev, symObjAddr: 0x1C6FC, symBinAddr: 0x100020E9C, symSize: 0x28 }
  - { offsetInCU: 0x4AB0E, offset: 0x61F62, size: 0x8, addend: 0x0, symName: __ZNKSt3__122__unordered_map_hasherINS_12basic_stringIcNS_11char_traitsIcEENS_9allocatorIcEEEENS_17__hash_value_typeIS6_S6_EENS_4hashIS6_EENS_8equal_toIS6_EELb1EEclB8ue170006ERKS6_, symObjAddr: 0x1C724, symBinAddr: 0x100020EC4, symSize: 0x2C }
  - { offsetInCU: 0x4AB43, offset: 0x61F97, size: 0x8, addend: 0x0, symName: __ZNKSt3__112__hash_tableINS_17__hash_value_typeINS_12basic_stringIcNS_11char_traitsIcEENS_9allocatorIcEEEES7_EENS_22__unordered_map_hasherIS7_S8_NS_4hashIS7_EENS_8equal_toIS7_EELb1EEENS_21__unordered_map_equalIS7_S8_SD_SB_Lb1EEENS5_IS8_EEE12bucket_countB8ue170006Ev, symObjAddr: 0x1C750, symBinAddr: 0x100020EF0, symSize: 0x28 }
  - { offsetInCU: 0x4AB69, offset: 0x61FBD, size: 0x8, addend: 0x0, symName: __ZNKSt3__110unique_ptrIA_PNS_16__hash_node_baseIPNS_11__hash_nodeINS_17__hash_value_typeINS_12basic_stringIcNS_11char_traitsIcEENS_9allocatorIcEEEES9_EEPvEEEENS_25__bucket_list_deallocatorINS7_ISF_EEEEEixB8ue170006Em, symObjAddr: 0x1C810, symBinAddr: 0x100020FB0, symSize: 0x34 }
  - { offsetInCU: 0x4AB9E, offset: 0x61FF2, size: 0x8, addend: 0x0, symName: __ZNKSt3__116__hash_node_baseIPNS_11__hash_nodeINS_17__hash_value_typeINS_12basic_stringIcNS_11char_traitsIcEENS_9allocatorIcEEEES8_EEPvEEE6__hashB8ue170006Ev, symObjAddr: 0x1C844, symBinAddr: 0x100020FE4, symSize: 0x18 }
  - { offsetInCU: 0x4ABC4, offset: 0x62018, size: 0x8, addend: 0x0, symName: __ZNSt3__112__hash_tableINS_17__hash_value_typeINS_12basic_stringIcNS_11char_traitsIcEENS_9allocatorIcEEEES7_EENS_22__unordered_map_hasherIS7_S8_NS_4hashIS7_EENS_8equal_toIS7_EELb1EEENS_21__unordered_map_equalIS7_S8_SD_SB_Lb1EEENS5_IS8_EEE6key_eqB8ue170006Ev, symObjAddr: 0x1C85C, symBinAddr: 0x100020FFC, symSize: 0x28 }
  - { offsetInCU: 0x4ABEA, offset: 0x6203E, size: 0x8, addend: 0x0, symName: __ZNKSt3__121__unordered_map_equalINS_12basic_stringIcNS_11char_traitsIcEENS_9allocatorIcEEEENS_17__hash_value_typeIS6_S6_EENS_8equal_toIS6_EENS_4hashIS6_EELb1EEclB8ue170006ERKS8_RKS6_, symObjAddr: 0x1C884, symBinAddr: 0x100021024, symSize: 0x48 }
  - { offsetInCU: 0x4AC2E, offset: 0x62082, size: 0x8, addend: 0x0, symName: __ZNSt3__112__hash_tableINS_17__hash_value_typeINS_12basic_stringIcNS_11char_traitsIcEENS_9allocatorIcEEEES7_EENS_22__unordered_map_hasherIS7_S8_NS_4hashIS7_EENS_8equal_toIS7_EELb1EEENS_21__unordered_map_equalIS7_S8_SD_SB_Lb1EEENS5_IS8_EEE21__construct_node_hashINS_4pairIKS7_S7_EEJEEENS_10unique_ptrINS_11__hash_nodeIS8_PvEENS_22__hash_node_destructorINS5_ISQ_EEEEEEmOT_DpOT0_, symObjAddr: 0x1C8CC, symBinAddr: 0x10002106C, symSize: 0x140 }
  - { offsetInCU: 0x4ACA1, offset: 0x620F5, size: 0x8, addend: 0x0, symName: __ZNSt3__112__hash_tableINS_17__hash_value_typeINS_12basic_stringIcNS_11char_traitsIcEENS_9allocatorIcEEEES7_EENS_22__unordered_map_hasherIS7_S8_NS_4hashIS7_EENS_8equal_toIS7_EELb1EEENS_21__unordered_map_equalIS7_S8_SD_SB_Lb1EEENS5_IS8_EEE4sizeB8ue170006Ev, symObjAddr: 0x1CA0C, symBinAddr: 0x1000211AC, symSize: 0x28 }
  - { offsetInCU: 0x4ACC7, offset: 0x6211B, size: 0x8, addend: 0x0, symName: __ZNSt3__112__hash_tableINS_17__hash_value_typeINS_12basic_stringIcNS_11char_traitsIcEENS_9allocatorIcEEEES7_EENS_22__unordered_map_hasherIS7_S8_NS_4hashIS7_EENS_8equal_toIS7_EELb1EEENS_21__unordered_map_equalIS7_S8_SD_SB_Lb1EEENS5_IS8_EEE15max_load_factorB8ue170006Ev, symObjAddr: 0x1CA34, symBinAddr: 0x1000211D4, symSize: 0x28 }
  - { offsetInCU: 0x4ACED, offset: 0x62141, size: 0x8, addend: 0x0, symName: __ZNSt3__112__hash_tableINS_17__hash_value_typeINS_12basic_stringIcNS_11char_traitsIcEENS_9allocatorIcEEEES7_EENS_22__unordered_map_hasherIS7_S8_NS_4hashIS7_EENS_8equal_toIS7_EELb1EEENS_21__unordered_map_equalIS7_S8_SD_SB_Lb1EEENS5_IS8_EEE15__rehash_uniqueB8ue170006Em, symObjAddr: 0x1CA5C, symBinAddr: 0x1000211FC, symSize: 0x2C }
  - { offsetInCU: 0x4AD22, offset: 0x62176, size: 0x8, addend: 0x0, symName: __Z4ceilB8ue170006f, symObjAddr: 0x1CAD8, symBinAddr: 0x100021278, symSize: 0x18 }
  - { offsetInCU: 0x4AD50, offset: 0x621A4, size: 0x8, addend: 0x0, symName: __ZNSt3__116__hash_node_baseIPNS_11__hash_nodeINS_17__hash_value_typeINS_12basic_stringIcNS_11char_traitsIcEENS_9allocatorIcEEEES8_EEPvEEE5__ptrB8ue170006Ev, symObjAddr: 0x1CAF0, symBinAddr: 0x100021290, symSize: 0x24 }
  - { offsetInCU: 0x4AD76, offset: 0x621CA, size: 0x8, addend: 0x0, symName: __ZNKSt3__110unique_ptrINS_11__hash_nodeINS_17__hash_value_typeINS_12basic_stringIcNS_11char_traitsIcEENS_9allocatorIcEEEES8_EEPvEENS_22__hash_node_destructorINS6_ISB_EEEEEptB8ue170006Ev, symObjAddr: 0x1CB14, symBinAddr: 0x1000212B4, symSize: 0x28 }
  - { offsetInCU: 0x4AD9C, offset: 0x621F0, size: 0x8, addend: 0x0, symName: __ZNKSt3__110unique_ptrINS_11__hash_nodeINS_17__hash_value_typeINS_12basic_stringIcNS_11char_traitsIcEENS_9allocatorIcEEEES8_EEPvEENS_22__hash_node_destructorINS6_ISB_EEEEE3getB8ue170006Ev, symObjAddr: 0x1CB3C, symBinAddr: 0x1000212DC, symSize: 0x28 }
  - { offsetInCU: 0x4ADC2, offset: 0x62216, size: 0x8, addend: 0x0, symName: __ZNSt3__110unique_ptrINS_11__hash_nodeINS_17__hash_value_typeINS_12basic_stringIcNS_11char_traitsIcEENS_9allocatorIcEEEES8_EEPvEENS_22__hash_node_destructorINS6_ISB_EEEEE7releaseB8ue170006Ev, symObjAddr: 0x1CB64, symBinAddr: 0x100021304, symSize: 0x44 }
  - { offsetInCU: 0x4ADF7, offset: 0x6224B, size: 0x8, addend: 0x0, symName: __ZNSt3__110unique_ptrINS_11__hash_nodeINS_17__hash_value_typeINS_12basic_stringIcNS_11char_traitsIcEENS_9allocatorIcEEEES8_EEPvEENS_22__hash_node_destructorINS6_ISB_EEEEED1B8ue170006Ev, symObjAddr: 0x1CBA8, symBinAddr: 0x100021348, symSize: 0x2C }
  - { offsetInCU: 0x4AE21, offset: 0x62275, size: 0x8, addend: 0x0, symName: __ZNSt3__115__hash_iteratorIPNS_11__hash_nodeINS_17__hash_value_typeINS_12basic_stringIcNS_11char_traitsIcEENS_9allocatorIcEEEES8_EEPvEEEC1B8ue170006EPNS_16__hash_node_baseISC_EE, symObjAddr: 0x1CBD4, symBinAddr: 0x100021374, symSize: 0x34 }
  - { offsetInCU: 0x4AE5F, offset: 0x622B3, size: 0x8, addend: 0x0, symName: __ZNSt3__14pairINS_15__hash_iteratorIPNS_11__hash_nodeINS_17__hash_value_typeINS_12basic_stringIcNS_11char_traitsIcEENS_9allocatorIcEEEES9_EEPvEEEEbEC1B8ue170006ISE_RbLSB_0EEEOT_OT0_, symObjAddr: 0x1CC08, symBinAddr: 0x1000213A8, symSize: 0x3C }
  - { offsetInCU: 0x4AEBE, offset: 0x62312, size: 0x8, addend: 0x0, symName: __ZNSt3__117__compressed_pairImNS_22__unordered_map_hasherINS_12basic_stringIcNS_11char_traitsIcEENS_9allocatorIcEEEENS_17__hash_value_typeIS7_S7_EENS_4hashIS7_EENS_8equal_toIS7_EELb1EEEE6secondB8ue170006Ev, symObjAddr: 0x1CC44, symBinAddr: 0x1000213E4, symSize: 0x24 }
  - { offsetInCU: 0x4AEE4, offset: 0x62338, size: 0x8, addend: 0x0, symName: __ZNSt3__122__compressed_pair_elemINS_22__unordered_map_hasherINS_12basic_stringIcNS_11char_traitsIcEENS_9allocatorIcEEEENS_17__hash_value_typeIS7_S7_EENS_4hashIS7_EENS_8equal_toIS7_EELb1EEELi1ELb1EE5__getB8ue170006Ev, symObjAddr: 0x1CC68, symBinAddr: 0x100021408, symSize: 0x14 }
  - { offsetInCU: 0x4AF0A, offset: 0x6235E, size: 0x8, addend: 0x0, symName: __ZNKSt3__113__string_hashIcNS_9allocatorIcEEEclB8ue170006ERKNS_12basic_stringIcNS_11char_traitsIcEES2_EE, symObjAddr: 0x1CC7C, symBinAddr: 0x10002141C, symSize: 0x64 }
  - { offsetInCU: 0x4AF3F, offset: 0x62393, size: 0x8, addend: 0x0, symName: __ZNKSt3__121__murmur2_or_cityhashImLm64EEclB8ue170006EPKvm, symObjAddr: 0x1CD1C, symBinAddr: 0x1000214BC, symSize: 0x410 }
  - { offsetInCU: 0x4AFD9, offset: 0x6242D, size: 0x8, addend: 0x0, symName: __ZNSt3__121__murmur2_or_cityhashImLm64EE18__hash_len_0_to_16B8ue170006EPKcm, symObjAddr: 0x1D12C, symBinAddr: 0x1000218CC, symSize: 0x1C0 }
  - { offsetInCU: 0x4B0B2, offset: 0x62506, size: 0x8, addend: 0x0, symName: __ZNSt3__121__murmur2_or_cityhashImLm64EE19__hash_len_17_to_32B8ue170006EPKcm, symObjAddr: 0x1D2EC, symBinAddr: 0x100021A8C, symSize: 0x130 }
  - { offsetInCU: 0x4B11B, offset: 0x6256F, size: 0x8, addend: 0x0, symName: __ZNSt3__121__murmur2_or_cityhashImLm64EE19__hash_len_33_to_64B8ue170006EPKcm, symObjAddr: 0x1D41C, symBinAddr: 0x100021BBC, symSize: 0x2B8 }
  - { offsetInCU: 0x4B1D0, offset: 0x62624, size: 0x8, addend: 0x0, symName: __ZNSt3__121__murmur2_or_cityhashImLm64EE13__hash_len_16B8ue170006Emm, symObjAddr: 0x1D6F4, symBinAddr: 0x100021E94, symSize: 0x80 }
  - { offsetInCU: 0x4B22B, offset: 0x6267F, size: 0x8, addend: 0x0, symName: __ZNSt3__121__murmur2_or_cityhashImLm64EE29__weak_hash_len_32_with_seedsB8ue170006EPKcmm, symObjAddr: 0x1D774, symBinAddr: 0x100021F14, symSize: 0x88 }
  - { offsetInCU: 0x4B26A, offset: 0x626BE, size: 0x8, addend: 0x0, symName: __ZNSt3__121__murmur2_or_cityhashImLm64EE8__rotateB8ue170006Emi, symObjAddr: 0x1D7FC, symBinAddr: 0x100021F9C, symSize: 0x64 }
  - { offsetInCU: 0x4B29B, offset: 0x626EF, size: 0x8, addend: 0x0, symName: __ZNSt3__14pairImmEaSB8ue170006EOS1_, symObjAddr: 0x1D860, symBinAddr: 0x100022000, symSize: 0x30 }
  - { offsetInCU: 0x4B2D0, offset: 0x62724, size: 0x8, addend: 0x0, symName: __ZNSt3__121__murmur2_or_cityhashImLm64EE11__shift_mixB8ue170006Em, symObjAddr: 0x1D8CC, symBinAddr: 0x10002206C, symSize: 0x1C }
  - { offsetInCU: 0x4B2F3, offset: 0x62747, size: 0x8, addend: 0x0, symName: __ZNSt3__121__murmur2_or_cityhashImLm64EE22__rotate_by_at_least_1B8ue170006Emi, symObjAddr: 0x1D8E8, symBinAddr: 0x100022088, symSize: 0x38 }
  - { offsetInCU: 0x4B324, offset: 0x62778, size: 0x8, addend: 0x0, symName: __ZNSt3__121__murmur2_or_cityhashImLm64EE29__weak_hash_len_32_with_seedsB8ue170006Emmmmmm, symObjAddr: 0x1D940, symBinAddr: 0x1000220E0, symSize: 0xD8 }
  - { offsetInCU: 0x4B3A0, offset: 0x627F4, size: 0x8, addend: 0x0, symName: __ZNSt3__14pairImmEC1B8ue170006ImmLPv0EEEOT_OT0_, symObjAddr: 0x1DA18, symBinAddr: 0x1000221B8, symSize: 0x3C }
  - { offsetInCU: 0x4B3FF, offset: 0x62853, size: 0x8, addend: 0x0, symName: __ZNSt3__14pairImmEC2B8ue170006ImmLPv0EEEOT_OT0_, symObjAddr: 0x1DA54, symBinAddr: 0x1000221F4, symSize: 0x34 }
  - { offsetInCU: 0x4B45E, offset: 0x628B2, size: 0x8, addend: 0x0, symName: __ZNKSt3__110unique_ptrIA_PNS_16__hash_node_baseIPNS_11__hash_nodeINS_17__hash_value_typeINS_12basic_stringIcNS_11char_traitsIcEENS_9allocatorIcEEEES9_EEPvEEEENS_25__bucket_list_deallocatorINS7_ISF_EEEEE11get_deleterB8ue170006Ev, symObjAddr: 0x1DA88, symBinAddr: 0x100022228, symSize: 0x24 }
  - { offsetInCU: 0x4B484, offset: 0x628D8, size: 0x8, addend: 0x0, symName: __ZNKSt3__125__bucket_list_deallocatorINS_9allocatorIPNS_16__hash_node_baseIPNS_11__hash_nodeINS_17__hash_value_typeINS_12basic_stringIcNS_11char_traitsIcEENS1_IcEEEES9_EEPvEEEEEEE4sizeB8ue170006Ev, symObjAddr: 0x1DAAC, symBinAddr: 0x10002224C, symSize: 0x28 }
  - { offsetInCU: 0x4B4AA, offset: 0x628FE, size: 0x8, addend: 0x0, symName: __ZNKSt3__117__compressed_pairIPPNS_16__hash_node_baseIPNS_11__hash_nodeINS_17__hash_value_typeINS_12basic_stringIcNS_11char_traitsIcEENS_9allocatorIcEEEES9_EEPvEEEENS_25__bucket_list_deallocatorINS7_ISF_EEEEE6secondB8ue170006Ev, symObjAddr: 0x1DAD4, symBinAddr: 0x100022274, symSize: 0x28 }
  - { offsetInCU: 0x4B4D0, offset: 0x62924, size: 0x8, addend: 0x0, symName: __ZNKSt3__122__compressed_pair_elemINS_25__bucket_list_deallocatorINS_9allocatorIPNS_16__hash_node_baseIPNS_11__hash_nodeINS_17__hash_value_typeINS_12basic_stringIcNS_11char_traitsIcEENS2_IcEEEESA_EEPvEEEEEEEELi1ELb0EE5__getB8ue170006Ev, symObjAddr: 0x1DAFC, symBinAddr: 0x10002229C, symSize: 0x14 }
  - { offsetInCU: 0x4B4F6, offset: 0x6294A, size: 0x8, addend: 0x0, symName: __ZNKSt3__117__compressed_pairImNS_9allocatorIPNS_16__hash_node_baseIPNS_11__hash_nodeINS_17__hash_value_typeINS_12basic_stringIcNS_11char_traitsIcEENS1_IcEEEES9_EEPvEEEEEEE5firstB8ue170006Ev, symObjAddr: 0x1DB10, symBinAddr: 0x1000222B0, symSize: 0x24 }
  - { offsetInCU: 0x4B51C, offset: 0x62970, size: 0x8, addend: 0x0, symName: __ZNKSt3__117__compressed_pairIPPNS_16__hash_node_baseIPNS_11__hash_nodeINS_17__hash_value_typeINS_12basic_stringIcNS_11char_traitsIcEENS_9allocatorIcEEEES9_EEPvEEEENS_25__bucket_list_deallocatorINS7_ISF_EEEEE5firstB8ue170006Ev, symObjAddr: 0x1DB34, symBinAddr: 0x1000222D4, symSize: 0x24 }
  - { offsetInCU: 0x4B542, offset: 0x62996, size: 0x8, addend: 0x0, symName: __ZNKSt3__122__compressed_pair_elemIPPNS_16__hash_node_baseIPNS_11__hash_nodeINS_17__hash_value_typeINS_12basic_stringIcNS_11char_traitsIcEENS_9allocatorIcEEEES9_EEPvEEEELi0ELb0EE5__getB8ue170006Ev, symObjAddr: 0x1DB58, symBinAddr: 0x1000222F8, symSize: 0x14 }
  - { offsetInCU: 0x4B568, offset: 0x629BC, size: 0x8, addend: 0x0, symName: __ZNSt3__117__compressed_pairIfNS_21__unordered_map_equalINS_12basic_stringIcNS_11char_traitsIcEENS_9allocatorIcEEEENS_17__hash_value_typeIS7_S7_EENS_8equal_toIS7_EENS_4hashIS7_EELb1EEEE6secondB8ue170006Ev, symObjAddr: 0x1DB6C, symBinAddr: 0x10002230C, symSize: 0x24 }
  - { offsetInCU: 0x4B58E, offset: 0x629E2, size: 0x8, addend: 0x0, symName: __ZNSt3__122__compressed_pair_elemINS_21__unordered_map_equalINS_12basic_stringIcNS_11char_traitsIcEENS_9allocatorIcEEEENS_17__hash_value_typeIS7_S7_EENS_8equal_toIS7_EENS_4hashIS7_EELb1EEELi1ELb1EE5__getB8ue170006Ev, symObjAddr: 0x1DB90, symBinAddr: 0x100022330, symSize: 0x14 }
  - { offsetInCU: 0x4B5B4, offset: 0x62A08, size: 0x8, addend: 0x0, symName: __ZNKSt3__18equal_toINS_12basic_stringIcNS_11char_traitsIcEENS_9allocatorIcEEEEEclB8ue170006ERKS6_S9_, symObjAddr: 0x1DBA4, symBinAddr: 0x100022344, symSize: 0x34 }
  - { offsetInCU: 0x4B5F8, offset: 0x62A4C, size: 0x8, addend: 0x0, symName: __ZNKSt3__117__hash_value_typeINS_12basic_stringIcNS_11char_traitsIcEENS_9allocatorIcEEEES6_E11__get_valueB8ue170006Ev, symObjAddr: 0x1DBD8, symBinAddr: 0x100022378, symSize: 0x24 }
  - { offsetInCU: 0x4B61E, offset: 0x62A72, size: 0x8, addend: 0x0, symName: __ZNSt3__116allocator_traitsINS_9allocatorINS_11__hash_nodeINS_17__hash_value_typeINS_12basic_stringIcNS_11char_traitsIcEENS1_IcEEEES8_EEPvEEEEE8allocateB8ue170006ERSC_m, symObjAddr: 0x1DBFC, symBinAddr: 0x10002239C, symSize: 0x2C }
  - { offsetInCU: 0x4B651, offset: 0x62AA5, size: 0x8, addend: 0x0, symName: __ZNSt3__122__hash_node_destructorINS_9allocatorINS_11__hash_nodeINS_17__hash_value_typeINS_12basic_stringIcNS_11char_traitsIcEENS1_IcEEEES8_EEPvEEEEEC1B8ue170006ERSC_b, symObjAddr: 0x1DC28, symBinAddr: 0x1000223C8, symSize: 0x48 }
  - { offsetInCU: 0x4B69E, offset: 0x62AF2, size: 0x8, addend: 0x0, symName: __ZNSt3__110unique_ptrINS_11__hash_nodeINS_17__hash_value_typeINS_12basic_stringIcNS_11char_traitsIcEENS_9allocatorIcEEEES8_EEPvEENS_22__hash_node_destructorINS6_ISB_EEEEEC1B8ue170006ILb1EvEEPSB_NS_16__dependent_typeINS_27__unique_ptr_deleter_sfinaeISE_EEXT_EE20__good_rval_ref_typeE, symObjAddr: 0x1DC70, symBinAddr: 0x100022410, symSize: 0x3C }
  - { offsetInCU: 0x4B6EF, offset: 0x62B43, size: 0x8, addend: 0x0, symName: __ZNSt3__116allocator_traitsINS_9allocatorINS_11__hash_nodeINS_17__hash_value_typeINS_12basic_stringIcNS_11char_traitsIcEENS1_IcEEEES8_EEPvEEEEE9constructB8ue170006INS_4pairIKS8_S8_EEJSH_EvvEEvRSC_PT_DpOT0_, symObjAddr: 0x1DCAC, symBinAddr: 0x10002244C, symSize: 0x30 }
  - { offsetInCU: 0x4B744, offset: 0x62B98, size: 0x8, addend: 0x0, symName: __ZNSt3__110unique_ptrINS_11__hash_nodeINS_17__hash_value_typeINS_12basic_stringIcNS_11char_traitsIcEENS_9allocatorIcEEEES8_EEPvEENS_22__hash_node_destructorINS6_ISB_EEEEE11get_deleterB8ue170006Ev, symObjAddr: 0x1DCDC, symBinAddr: 0x10002247C, symSize: 0x24 }
  - { offsetInCU: 0x4B76A, offset: 0x62BBE, size: 0x8, addend: 0x0, symName: __ZNSt3__19allocatorINS_11__hash_nodeINS_17__hash_value_typeINS_12basic_stringIcNS_11char_traitsIcEENS0_IcEEEES7_EEPvEEE8allocateB8ue170006Em, symObjAddr: 0x1DD00, symBinAddr: 0x1000224A0, symSize: 0x58 }
  - { offsetInCU: 0x4B7A8, offset: 0x62BFC, size: 0x8, addend: 0x0, symName: __ZNSt3__116allocator_traitsINS_9allocatorINS_11__hash_nodeINS_17__hash_value_typeINS_12basic_stringIcNS_11char_traitsIcEENS1_IcEEEES8_EEPvEEEEE8max_sizeB8ue170006ISC_vvEEmRKSC_, symObjAddr: 0x1DD58, symBinAddr: 0x1000224F8, symSize: 0x28 }
  - { offsetInCU: 0x4B7D4, offset: 0x62C28, size: 0x8, addend: 0x0, symName: __ZNSt3__122__hash_node_destructorINS_9allocatorINS_11__hash_nodeINS_17__hash_value_typeINS_12basic_stringIcNS_11char_traitsIcEENS1_IcEEEES8_EEPvEEEEEC2B8ue170006ERSC_b, symObjAddr: 0x1DD80, symBinAddr: 0x100022520, symSize: 0x38 }
  - { offsetInCU: 0x4B81C, offset: 0x62C70, size: 0x8, addend: 0x0, symName: __ZNSt3__110unique_ptrINS_11__hash_nodeINS_17__hash_value_typeINS_12basic_stringIcNS_11char_traitsIcEENS_9allocatorIcEEEES8_EEPvEENS_22__hash_node_destructorINS6_ISB_EEEEEC2B8ue170006ILb1EvEEPSB_NS_16__dependent_typeINS_27__unique_ptr_deleter_sfinaeISE_EEXT_EE20__good_rval_ref_typeE, symObjAddr: 0x1DDB8, symBinAddr: 0x100022558, symSize: 0x48 }
  - { offsetInCU: 0x4B86D, offset: 0x62CC1, size: 0x8, addend: 0x0, symName: __ZNSt3__117__compressed_pairIPNS_11__hash_nodeINS_17__hash_value_typeINS_12basic_stringIcNS_11char_traitsIcEENS_9allocatorIcEEEES8_EEPvEENS_22__hash_node_destructorINS6_ISB_EEEEEC1B8ue170006IRSC_SF_EEOT_OT0_, symObjAddr: 0x1DE00, symBinAddr: 0x1000225A0, symSize: 0x3C }
  - { offsetInCU: 0x4B8C5, offset: 0x62D19, size: 0x8, addend: 0x0, symName: __ZNSt3__117__compressed_pairIPNS_11__hash_nodeINS_17__hash_value_typeINS_12basic_stringIcNS_11char_traitsIcEENS_9allocatorIcEEEES8_EEPvEENS_22__hash_node_destructorINS6_ISB_EEEEEC2B8ue170006IRSC_SF_EEOT_OT0_, symObjAddr: 0x1DE3C, symBinAddr: 0x1000225DC, symSize: 0x48 }
  - { offsetInCU: 0x4B91D, offset: 0x62D71, size: 0x8, addend: 0x0, symName: __ZNSt3__122__compressed_pair_elemIPNS_11__hash_nodeINS_17__hash_value_typeINS_12basic_stringIcNS_11char_traitsIcEENS_9allocatorIcEEEES8_EEPvEELi0ELb0EEC2B8ue170006IRSC_vEEOT_, symObjAddr: 0x1DE84, symBinAddr: 0x100022624, symSize: 0x24 }
  - { offsetInCU: 0x4B95F, offset: 0x62DB3, size: 0x8, addend: 0x0, symName: __ZNSt3__122__compressed_pair_elemINS_22__hash_node_destructorINS_9allocatorINS_11__hash_nodeINS_17__hash_value_typeINS_12basic_stringIcNS_11char_traitsIcEENS2_IcEEEES9_EEPvEEEEEELi1ELb0EEC2B8ue170006ISE_vEEOT_, symObjAddr: 0x1DEA8, symBinAddr: 0x100022648, symSize: 0x24 }
  - { offsetInCU: 0x4B9A1, offset: 0x62DF5, size: 0x8, addend: 0x0, symName: __ZNSt3__117__compressed_pairIPNS_11__hash_nodeINS_17__hash_value_typeINS_12basic_stringIcNS_11char_traitsIcEENS_9allocatorIcEEEES8_EEPvEENS_22__hash_node_destructorINS6_ISB_EEEEE6secondB8ue170006Ev, symObjAddr: 0x1DECC, symBinAddr: 0x10002266C, symSize: 0x28 }
  - { offsetInCU: 0x4B9C7, offset: 0x62E1B, size: 0x8, addend: 0x0, symName: __ZNSt3__122__compressed_pair_elemINS_22__hash_node_destructorINS_9allocatorINS_11__hash_nodeINS_17__hash_value_typeINS_12basic_stringIcNS_11char_traitsIcEENS2_IcEEEES9_EEPvEEEEEELi1ELb0EE5__getB8ue170006Ev, symObjAddr: 0x1DEF4, symBinAddr: 0x100022694, symSize: 0x14 }
  - { offsetInCU: 0x4B9ED, offset: 0x62E41, size: 0x8, addend: 0x0, symName: __ZNSt3__117__compressed_pairImNS_22__unordered_map_hasherINS_12basic_stringIcNS_11char_traitsIcEENS_9allocatorIcEEEENS_17__hash_value_typeIS7_S7_EENS_4hashIS7_EENS_8equal_toIS7_EELb1EEEE5firstB8ue170006Ev, symObjAddr: 0x1DF08, symBinAddr: 0x1000226A8, symSize: 0x24 }
  - { offsetInCU: 0x4BA13, offset: 0x62E67, size: 0x8, addend: 0x0, symName: __ZNSt3__117__compressed_pairIfNS_21__unordered_map_equalINS_12basic_stringIcNS_11char_traitsIcEENS_9allocatorIcEEEENS_17__hash_value_typeIS7_S7_EENS_8equal_toIS7_EENS_4hashIS7_EELb1EEEE5firstB8ue170006Ev, symObjAddr: 0x1DF2C, symBinAddr: 0x1000226CC, symSize: 0x24 }
  - { offsetInCU: 0x4BA39, offset: 0x62E8D, size: 0x8, addend: 0x0, symName: __ZNSt3__122__compressed_pair_elemIfLi0ELb0EE5__getB8ue170006Ev, symObjAddr: 0x1DF50, symBinAddr: 0x1000226F0, symSize: 0x14 }
  - { offsetInCU: 0x4BA5F, offset: 0x62EB3, size: 0x8, addend: 0x0, symName: __ZNSt3__112__hash_tableINS_17__hash_value_typeINS_12basic_stringIcNS_11char_traitsIcEENS_9allocatorIcEEEES7_EENS_22__unordered_map_hasherIS7_S8_NS_4hashIS7_EENS_8equal_toIS7_EELb1EEENS_21__unordered_map_equalIS7_S8_SD_SB_Lb1EEENS5_IS8_EEE8__rehashILb1EEEvm, symObjAddr: 0x1DF64, symBinAddr: 0x100022704, symSize: 0x1A8 }
  - { offsetInCU: 0x4BAAF, offset: 0x62F03, size: 0x8, addend: 0x0, symName: __ZNSt3__112__hash_tableINS_17__hash_value_typeINS_12basic_stringIcNS_11char_traitsIcEENS_9allocatorIcEEEES7_EENS_22__unordered_map_hasherIS7_S8_NS_4hashIS7_EENS_8equal_toIS7_EELb1EEENS_21__unordered_map_equalIS7_S8_SD_SB_Lb1EEENS5_IS8_EEE11__do_rehashILb1EEEvm, symObjAddr: 0x1E10C, symBinAddr: 0x1000228AC, symSize: 0x288 }
  - { offsetInCU: 0x4BB92, offset: 0x62FE6, size: 0x8, addend: 0x0, symName: __ZNSt3__110unique_ptrIA_PNS_16__hash_node_baseIPNS_11__hash_nodeINS_17__hash_value_typeINS_12basic_stringIcNS_11char_traitsIcEENS_9allocatorIcEEEES9_EEPvEEEENS_25__bucket_list_deallocatorINS7_ISF_EEEEE11get_deleterB8ue170006Ev, symObjAddr: 0x1E400, symBinAddr: 0x100022BA0, symSize: 0x24 }
  - { offsetInCU: 0x4BBB8, offset: 0x6300C, size: 0x8, addend: 0x0, symName: __ZNSt3__110unique_ptrIA_PNS_16__hash_node_baseIPNS_11__hash_nodeINS_17__hash_value_typeINS_12basic_stringIcNS_11char_traitsIcEENS_9allocatorIcEEEES9_EEPvEEEENS_25__bucket_list_deallocatorINS7_ISF_EEEEE5resetB8ue170006IPSF_EENS_9enable_ifIXsr28_CheckArrayPointerConversionIT_EE5valueEvE4typeESO_, symObjAddr: 0x1E424, symBinAddr: 0x100022BC4, symSize: 0x78 }
  - { offsetInCU: 0x4BC05, offset: 0x63059, size: 0x8, addend: 0x0, symName: __ZNSt3__116allocator_traitsINS_9allocatorIPNS_16__hash_node_baseIPNS_11__hash_nodeINS_17__hash_value_typeINS_12basic_stringIcNS_11char_traitsIcEENS1_IcEEEES9_EEPvEEEEEEE8allocateB8ue170006ERSG_m, symObjAddr: 0x1E49C, symBinAddr: 0x100022C3C, symSize: 0x2C }
  - { offsetInCU: 0x4BC38, offset: 0x6308C, size: 0x8, addend: 0x0, symName: __ZNSt3__19allocatorIPNS_16__hash_node_baseIPNS_11__hash_nodeINS_17__hash_value_typeINS_12basic_stringIcNS_11char_traitsIcEENS0_IcEEEES8_EEPvEEEEE8allocateB8ue170006Em, symObjAddr: 0x1E4C8, symBinAddr: 0x100022C68, symSize: 0x58 }
  - { offsetInCU: 0x4BC76, offset: 0x630CA, size: 0x8, addend: 0x0, symName: __ZNSt3__116allocator_traitsINS_9allocatorIPNS_16__hash_node_baseIPNS_11__hash_nodeINS_17__hash_value_typeINS_12basic_stringIcNS_11char_traitsIcEENS1_IcEEEES9_EEPvEEEEEEE8max_sizeB8ue170006ISG_vvEEmRKSG_, symObjAddr: 0x1E520, symBinAddr: 0x100022CC0, symSize: 0x28 }
  - { offsetInCU: 0x4BCA2, offset: 0x630F6, size: 0x8, addend: 0x0, symName: __ZNKSt3__117__compressed_pairIPNS_11__hash_nodeINS_17__hash_value_typeINS_12basic_stringIcNS_11char_traitsIcEENS_9allocatorIcEEEES8_EEPvEENS_22__hash_node_destructorINS6_ISB_EEEEE5firstB8ue170006Ev, symObjAddr: 0x1E564, symBinAddr: 0x100022D04, symSize: 0x24 }
  - { offsetInCU: 0x4BCC8, offset: 0x6311C, size: 0x8, addend: 0x0, symName: __ZNKSt3__122__compressed_pair_elemIPNS_11__hash_nodeINS_17__hash_value_typeINS_12basic_stringIcNS_11char_traitsIcEENS_9allocatorIcEEEES8_EEPvEELi0ELb0EE5__getB8ue170006Ev, symObjAddr: 0x1E588, symBinAddr: 0x100022D28, symSize: 0x14 }
  - { offsetInCU: 0x4BCEE, offset: 0x63142, size: 0x8, addend: 0x0, symName: __ZNSt3__117__compressed_pairIPNS_11__hash_nodeINS_17__hash_value_typeINS_12basic_stringIcNS_11char_traitsIcEENS_9allocatorIcEEEES8_EEPvEENS_22__hash_node_destructorINS6_ISB_EEEEE5firstB8ue170006Ev, symObjAddr: 0x1E59C, symBinAddr: 0x100022D3C, symSize: 0x24 }
  - { offsetInCU: 0x4BD14, offset: 0x63168, size: 0x8, addend: 0x0, symName: __ZNSt3__122__compressed_pair_elemIPNS_11__hash_nodeINS_17__hash_value_typeINS_12basic_stringIcNS_11char_traitsIcEENS_9allocatorIcEEEES8_EEPvEELi0ELb0EE5__getB8ue170006Ev, symObjAddr: 0x1E5C0, symBinAddr: 0x100022D60, symSize: 0x14 }
  - { offsetInCU: 0x4BD3A, offset: 0x6318E, size: 0x8, addend: 0x0, symName: __ZNSt3__110unique_ptrINS_11__hash_nodeINS_17__hash_value_typeINS_12basic_stringIcNS_11char_traitsIcEENS_9allocatorIcEEEES8_EEPvEENS_22__hash_node_destructorINS6_ISB_EEEEED2B8ue170006Ev, symObjAddr: 0x1E5D4, symBinAddr: 0x100022D74, symSize: 0x30 }
  - { offsetInCU: 0x4BD64, offset: 0x631B8, size: 0x8, addend: 0x0, symName: __ZNSt3__110unique_ptrINS_11__hash_nodeINS_17__hash_value_typeINS_12basic_stringIcNS_11char_traitsIcEENS_9allocatorIcEEEES8_EEPvEENS_22__hash_node_destructorINS6_ISB_EEEEE5resetB8ue170006EPSB_, symObjAddr: 0x1E604, symBinAddr: 0x100022DA4, symSize: 0x78 }
  - { offsetInCU: 0x4BDA8, offset: 0x631FC, size: 0x8, addend: 0x0, symName: __ZNSt3__122__hash_node_destructorINS_9allocatorINS_11__hash_nodeINS_17__hash_value_typeINS_12basic_stringIcNS_11char_traitsIcEENS1_IcEEEES8_EEPvEEEEEclB8ue170006EPSB_, symObjAddr: 0x1E67C, symBinAddr: 0x100022E1C, symSize: 0x98 }
  - { offsetInCU: 0x4BDDD, offset: 0x63231, size: 0x8, addend: 0x0, symName: __ZNSt3__115__hash_iteratorIPNS_11__hash_nodeINS_17__hash_value_typeINS_12basic_stringIcNS_11char_traitsIcEENS_9allocatorIcEEEES8_EEPvEEEC2B8ue170006EPNS_16__hash_node_baseISC_EE, symObjAddr: 0x1E714, symBinAddr: 0x100022EB4, symSize: 0x20 }
  - { offsetInCU: 0x4BE16, offset: 0x6326A, size: 0x8, addend: 0x0, symName: __ZNSt3__14pairINS_15__hash_iteratorIPNS_11__hash_nodeINS_17__hash_value_typeINS_12basic_stringIcNS_11char_traitsIcEENS_9allocatorIcEEEES9_EEPvEEEEbEC2B8ue170006ISE_RbLSB_0EEEOT_OT0_, symObjAddr: 0x1E734, symBinAddr: 0x100022ED4, symSize: 0x38 }
  - { offsetInCU: 0x4BE75, offset: 0x632C9, size: 0x8, addend: 0x0, symName: __ZNSt3__14pairINS_19__hash_map_iteratorINS_15__hash_iteratorIPNS_11__hash_nodeINS_17__hash_value_typeINS_12basic_stringIcNS_11char_traitsIcEENS_9allocatorIcEEEESA_EEPvEEEEEEbEC2B8ue170006ISF_bLSC_0EEEONS0_IT_T0_EE, symObjAddr: 0x1E76C, symBinAddr: 0x100022F0C, symSize: 0x50 }
  - { offsetInCU: 0x4BEC7, offset: 0x6331B, size: 0x8, addend: 0x0, symName: __ZNSt3__119__hash_map_iteratorINS_15__hash_iteratorIPNS_11__hash_nodeINS_17__hash_value_typeINS_12basic_stringIcNS_11char_traitsIcEENS_9allocatorIcEEEES9_EEPvEEEEEC1B8ue170006ESE_, symObjAddr: 0x1E7BC, symBinAddr: 0x100022F5C, symSize: 0x34 }
  - { offsetInCU: 0x4BF00, offset: 0x63354, size: 0x8, addend: 0x0, symName: __ZNSt3__119__hash_map_iteratorINS_15__hash_iteratorIPNS_11__hash_nodeINS_17__hash_value_typeINS_12basic_stringIcNS_11char_traitsIcEENS_9allocatorIcEEEES9_EEPvEEEEEC2B8ue170006ESE_, symObjAddr: 0x1E7F0, symBinAddr: 0x100022F90, symSize: 0x20 }
  - { offsetInCU: 0x4BF39, offset: 0x6338D, size: 0x8, addend: 0x0, symName: __ZNSt3__15dequeINS_4pairINS_12basic_stringIcNS_11char_traitsIcEENS_9allocatorIcEEEEiEENS5_IS8_EEE5frontEv, symObjAddr: 0x1E810, symBinAddr: 0x100022FB0, symSize: 0x50 }
  - { offsetInCU: 0x4BF61, offset: 0x633B5, size: 0x8, addend: 0x0, symName: __ZNKSt3__112__hash_tableINS_17__hash_value_typeINS_12basic_stringIcNS_11char_traitsIcEENS_9allocatorIcEEEES7_EENS_22__unordered_map_hasherIS7_S8_NS_4hashIS7_EENS_8equal_toIS7_EELb1EEENS_21__unordered_map_equalIS7_S8_SD_SB_Lb1EEENS5_IS8_EEE14__count_uniqueIS7_EEmRKT_, symObjAddr: 0x1E860, symBinAddr: 0x100023000, symSize: 0x64 }
  - { offsetInCU: 0x4BFA1, offset: 0x633F5, size: 0x8, addend: 0x0, symName: __ZNKSt3__112__hash_tableINS_17__hash_value_typeINS_12basic_stringIcNS_11char_traitsIcEENS_9allocatorIcEEEES7_EENS_22__unordered_map_hasherIS7_S8_NS_4hashIS7_EENS_8equal_toIS7_EELb1EEENS_21__unordered_map_equalIS7_S8_SD_SB_Lb1EEENS5_IS8_EEE4findIS7_EENS_21__hash_const_iteratorIPNS_11__hash_nodeIS8_PvEEEERKT_, symObjAddr: 0x1E8F8, symBinAddr: 0x100023098, symSize: 0x1B8 }
  - { offsetInCU: 0x4C02B, offset: 0x6347F, size: 0x8, addend: 0x0, symName: __ZNKSt3__112__hash_tableINS_17__hash_value_typeINS_12basic_stringIcNS_11char_traitsIcEENS_9allocatorIcEEEES7_EENS_22__unordered_map_hasherIS7_S8_NS_4hashIS7_EENS_8equal_toIS7_EELb1EEENS_21__unordered_map_equalIS7_S8_SD_SB_Lb1EEENS5_IS8_EEE3endEv, symObjAddr: 0x1EAB0, symBinAddr: 0x100023250, symSize: 0x2C }
  - { offsetInCU: 0x4C053, offset: 0x634A7, size: 0x8, addend: 0x0, symName: __ZNKSt3__112__hash_tableINS_17__hash_value_typeINS_12basic_stringIcNS_11char_traitsIcEENS_9allocatorIcEEEES7_EENS_22__unordered_map_hasherIS7_S8_NS_4hashIS7_EENS_8equal_toIS7_EELb1EEENS_21__unordered_map_equalIS7_S8_SD_SB_Lb1EEENS5_IS8_EEE13hash_functionB8ue170006Ev, symObjAddr: 0x1EB0C, symBinAddr: 0x1000232AC, symSize: 0x28 }
  - { offsetInCU: 0x4C079, offset: 0x634CD, size: 0x8, addend: 0x0, symName: __ZNKSt3__112__hash_tableINS_17__hash_value_typeINS_12basic_stringIcNS_11char_traitsIcEENS_9allocatorIcEEEES7_EENS_22__unordered_map_hasherIS7_S8_NS_4hashIS7_EENS_8equal_toIS7_EELb1EEENS_21__unordered_map_equalIS7_S8_SD_SB_Lb1EEENS5_IS8_EEE6key_eqB8ue170006Ev, symObjAddr: 0x1EB34, symBinAddr: 0x1000232D4, symSize: 0x28 }
  - { offsetInCU: 0x4C09F, offset: 0x634F3, size: 0x8, addend: 0x0, symName: __ZNSt3__121__hash_const_iteratorIPNS_11__hash_nodeINS_17__hash_value_typeINS_12basic_stringIcNS_11char_traitsIcEENS_9allocatorIcEEEES8_EEPvEEEC1B8ue170006EPNS_16__hash_node_baseISC_EE, symObjAddr: 0x1EB5C, symBinAddr: 0x1000232FC, symSize: 0x34 }
  - { offsetInCU: 0x4C0D8, offset: 0x6352C, size: 0x8, addend: 0x0, symName: __ZNKSt3__117__compressed_pairImNS_22__unordered_map_hasherINS_12basic_stringIcNS_11char_traitsIcEENS_9allocatorIcEEEENS_17__hash_value_typeIS7_S7_EENS_4hashIS7_EENS_8equal_toIS7_EELb1EEEE6secondB8ue170006Ev, symObjAddr: 0x1EB90, symBinAddr: 0x100023330, symSize: 0x24 }
  - { offsetInCU: 0x4C0FE, offset: 0x63552, size: 0x8, addend: 0x0, symName: __ZNKSt3__122__compressed_pair_elemINS_22__unordered_map_hasherINS_12basic_stringIcNS_11char_traitsIcEENS_9allocatorIcEEEENS_17__hash_value_typeIS7_S7_EENS_4hashIS7_EENS_8equal_toIS7_EELb1EEELi1ELb1EE5__getB8ue170006Ev, symObjAddr: 0x1EBB4, symBinAddr: 0x100023354, symSize: 0x14 }
  - { offsetInCU: 0x4C124, offset: 0x63578, size: 0x8, addend: 0x0, symName: __ZNKSt3__117__compressed_pairIfNS_21__unordered_map_equalINS_12basic_stringIcNS_11char_traitsIcEENS_9allocatorIcEEEENS_17__hash_value_typeIS7_S7_EENS_8equal_toIS7_EENS_4hashIS7_EELb1EEEE6secondB8ue170006Ev, symObjAddr: 0x1EBC8, symBinAddr: 0x100023368, symSize: 0x24 }
  - { offsetInCU: 0x4C14A, offset: 0x6359E, size: 0x8, addend: 0x0, symName: __ZNKSt3__122__compressed_pair_elemINS_21__unordered_map_equalINS_12basic_stringIcNS_11char_traitsIcEENS_9allocatorIcEEEENS_17__hash_value_typeIS7_S7_EENS_8equal_toIS7_EENS_4hashIS7_EELb1EEELi1ELb1EE5__getB8ue170006Ev, symObjAddr: 0x1EBEC, symBinAddr: 0x10002338C, symSize: 0x14 }
  - { offsetInCU: 0x4C170, offset: 0x635C4, size: 0x8, addend: 0x0, symName: __ZNSt3__121__hash_const_iteratorIPNS_11__hash_nodeINS_17__hash_value_typeINS_12basic_stringIcNS_11char_traitsIcEENS_9allocatorIcEEEES8_EEPvEEEC2B8ue170006EPNS_16__hash_node_baseISC_EE, symObjAddr: 0x1EC00, symBinAddr: 0x1000233A0, symSize: 0x20 }
  - { offsetInCU: 0x4C1A9, offset: 0x635FD, size: 0x8, addend: 0x0, symName: __ZNSt3__15dequeINS_4pairINS_12basic_stringIcNS_11char_traitsIcEENS_9allocatorIcEEEEiEENS5_IS8_EEE9pop_frontEv, symObjAddr: 0x1EC20, symBinAddr: 0x1000233C0, symSize: 0xD4 }
  - { offsetInCU: 0x4C1FE, offset: 0x63652, size: 0x8, addend: 0x0, symName: __ZNKSt3__15dequeINS_4pairINS_12basic_stringIcNS_11char_traitsIcEENS_9allocatorIcEEEEiEENS5_IS8_EEE23__annotate_shrink_frontB8ue170006Emm, symObjAddr: 0x1ECF4, symBinAddr: 0x100023494, symSize: 0x70 }
  - { offsetInCU: 0x4C242, offset: 0x63696, size: 0x8, addend: 0x0, symName: __ZNSt3__15dequeINS_4pairINS_12basic_stringIcNS_11char_traitsIcEENS_9allocatorIcEEEEiEENS5_IS8_EEE26__maybe_remove_front_spareB8ue170006Eb, symObjAddr: 0x1ED64, symBinAddr: 0x100023504, symSize: 0xEC }
  - { offsetInCU: 0x4C277, offset: 0x636CB, size: 0x8, addend: 0x0, symName: __ZNKSt3__15dequeINS_4pairINS_12basic_stringIcNS_11char_traitsIcEENS_9allocatorIcEEEEiEENS5_IS8_EEE20__front_spare_blocksB8ue170006Ev, symObjAddr: 0x1EE50, symBinAddr: 0x1000235F0, symSize: 0x2C }
  - { offsetInCU: 0x4C29D, offset: 0x636F1, size: 0x8, addend: 0x0, symName: __ZNSt3__14listINS_4pairINS_12basic_stringIcNS_11char_traitsIcEENS_9allocatorIcEEEEiEENS5_IS8_EEEC2B8ue170006Ev, symObjAddr: 0x1EE7C, symBinAddr: 0x10002361C, symSize: 0x2C }
  - { offsetInCU: 0x4C2C7, offset: 0x6371B, size: 0x8, addend: 0x0, symName: __ZNSt3__110__list_impINS_4pairINS_12basic_stringIcNS_11char_traitsIcEENS_9allocatorIcEEEEiEENS5_IS8_EEEC2Ev, symObjAddr: 0x1EEA8, symBinAddr: 0x100023648, symSize: 0x50 }
  - { offsetInCU: 0x4C2F3, offset: 0x63747, size: 0x8, addend: 0x0, symName: __ZNSt3__116__list_node_baseINS_4pairINS_12basic_stringIcNS_11char_traitsIcEENS_9allocatorIcEEEEiEEPvEC1B8ue170006Ev, symObjAddr: 0x1EEF8, symBinAddr: 0x100023698, symSize: 0x2C }
  - { offsetInCU: 0x4C31D, offset: 0x63771, size: 0x8, addend: 0x0, symName: __ZNSt3__117__compressed_pairImNS_9allocatorINS_11__list_nodeINS_4pairINS_12basic_stringIcNS_11char_traitsIcEENS1_IcEEEEiEEPvEEEEEC1B8ue170006IiNS_18__default_init_tagEEEOT_OT0_, symObjAddr: 0x1EF24, symBinAddr: 0x1000236C4, symSize: 0x3C }
  - { offsetInCU: 0x4C375, offset: 0x637C9, size: 0x8, addend: 0x0, symName: __ZNSt3__116__list_node_baseINS_4pairINS_12basic_stringIcNS_11char_traitsIcEENS_9allocatorIcEEEEiEEPvEC2B8ue170006Ev, symObjAddr: 0x1EF60, symBinAddr: 0x100023700, symSize: 0x4C }
  - { offsetInCU: 0x4C39F, offset: 0x637F3, size: 0x8, addend: 0x0, symName: __ZNSt3__117__compressed_pairImNS_9allocatorINS_11__list_nodeINS_4pairINS_12basic_stringIcNS_11char_traitsIcEENS1_IcEEEEiEEPvEEEEEC2B8ue170006IiNS_18__default_init_tagEEEOT_OT0_, symObjAddr: 0x1EFAC, symBinAddr: 0x10002374C, symSize: 0x40 }
  - { offsetInCU: 0x4C3F7, offset: 0x6384B, size: 0x8, addend: 0x0, symName: __ZNSt3__122__compressed_pair_elemINS_9allocatorINS_11__list_nodeINS_4pairINS_12basic_stringIcNS_11char_traitsIcEENS1_IcEEEEiEEPvEEEELi1ELb1EEC2B8ue170006ENS_18__default_init_tagE, symObjAddr: 0x1EFEC, symBinAddr: 0x10002378C, symSize: 0x2C }
  - { offsetInCU: 0x4C42C, offset: 0x63880, size: 0x8, addend: 0x0, symName: __ZNSt3__19allocatorINS_11__list_nodeINS_4pairINS_12basic_stringIcNS_11char_traitsIcEENS0_IcEEEEiEEPvEEEC2B8ue170006Ev, symObjAddr: 0x1F018, symBinAddr: 0x1000237B8, symSize: 0x2C }
  - { offsetInCU: 0x4C456, offset: 0x638AA, size: 0x8, addend: 0x0, symName: __ZNSt3__116__non_trivial_ifILb1ENS_9allocatorINS_11__list_nodeINS_4pairINS_12basic_stringIcNS_11char_traitsIcEENS1_IcEEEEiEEPvEEEEEC2B8ue170006Ev, symObjAddr: 0x1F044, symBinAddr: 0x1000237E4, symSize: 0x14 }
  - { offsetInCU: 0x4C480, offset: 0x638D4, size: 0x8, addend: 0x0, symName: __ZNSt3__14listINS_4pairINS_12basic_stringIcNS_11char_traitsIcEENS_9allocatorIcEEEEiEENS5_IS8_EEE15__allocate_nodeB8ue170006ERNS5_INS_11__list_nodeIS8_PvEEEE, symObjAddr: 0x1F058, symBinAddr: 0x1000237F8, symSize: 0x70 }
  - { offsetInCU: 0x4C4C4, offset: 0x63918, size: 0x8, addend: 0x0, symName: __ZNSt3__116allocator_traitsINS_9allocatorINS_11__list_nodeINS_4pairINS_12basic_stringIcNS_11char_traitsIcEENS1_IcEEEEiEEPvEEEEE9constructB8ue170006IS9_JRKS9_EvvEEvRSC_PT_DpOT0_, symObjAddr: 0x1F0C8, symBinAddr: 0x100023868, symSize: 0x30 }
  - { offsetInCU: 0x4C519, offset: 0x6396D, size: 0x8, addend: 0x0, symName: __ZNKSt3__110unique_ptrINS_11__list_nodeINS_4pairINS_12basic_stringIcNS_11char_traitsIcEENS_9allocatorIcEEEEiEEPvEENS_22__allocator_destructorINS6_ISB_EEEEEptB8ue170006Ev, symObjAddr: 0x1F0F8, symBinAddr: 0x100023898, symSize: 0x28 }
  - { offsetInCU: 0x4C53F, offset: 0x63993, size: 0x8, addend: 0x0, symName: __ZNSt3__14listINS_4pairINS_12basic_stringIcNS_11char_traitsIcEENS_9allocatorIcEEEEiEENS5_IS8_EEE20__link_nodes_at_backEPNS_16__list_node_baseIS8_PvEESE_, symObjAddr: 0x1F120, symBinAddr: 0x1000238C0, symSize: 0x60 }
  - { offsetInCU: 0x4C585, offset: 0x639D9, size: 0x8, addend: 0x0, symName: __ZNKSt3__110unique_ptrINS_11__list_nodeINS_4pairINS_12basic_stringIcNS_11char_traitsIcEENS_9allocatorIcEEEEiEEPvEENS_22__allocator_destructorINS6_ISB_EEEEE3getB8ue170006Ev, symObjAddr: 0x1F180, symBinAddr: 0x100023920, symSize: 0x28 }
  - { offsetInCU: 0x4C5AB, offset: 0x639FF, size: 0x8, addend: 0x0, symName: __ZNSt3__111__list_nodeINS_4pairINS_12basic_stringIcNS_11char_traitsIcEENS_9allocatorIcEEEEiEEPvE9__as_linkB8ue170006Ev, symObjAddr: 0x1F1A8, symBinAddr: 0x100023948, symSize: 0x24 }
  - { offsetInCU: 0x4C5D1, offset: 0x63A25, size: 0x8, addend: 0x0, symName: __ZNSt3__110unique_ptrINS_11__list_nodeINS_4pairINS_12basic_stringIcNS_11char_traitsIcEENS_9allocatorIcEEEEiEEPvEENS_22__allocator_destructorINS6_ISB_EEEEE7releaseB8ue170006Ev, symObjAddr: 0x1F1CC, symBinAddr: 0x10002396C, symSize: 0x44 }
  - { offsetInCU: 0x4C606, offset: 0x63A5A, size: 0x8, addend: 0x0, symName: __ZNSt3__110unique_ptrINS_11__list_nodeINS_4pairINS_12basic_stringIcNS_11char_traitsIcEENS_9allocatorIcEEEEiEEPvEENS_22__allocator_destructorINS6_ISB_EEEEED1B8ue170006Ev, symObjAddr: 0x1F210, symBinAddr: 0x1000239B0, symSize: 0x2C }
  - { offsetInCU: 0x4C630, offset: 0x63A84, size: 0x8, addend: 0x0, symName: __ZNSt3__116allocator_traitsINS_9allocatorINS_11__list_nodeINS_4pairINS_12basic_stringIcNS_11char_traitsIcEENS1_IcEEEEiEEPvEEEEE8allocateB8ue170006ERSC_m, symObjAddr: 0x1F23C, symBinAddr: 0x1000239DC, symSize: 0x2C }
  - { offsetInCU: 0x4C663, offset: 0x63AB7, size: 0x8, addend: 0x0, symName: __ZNSt3__122__allocator_destructorINS_9allocatorINS_11__list_nodeINS_4pairINS_12basic_stringIcNS_11char_traitsIcEENS1_IcEEEEiEEPvEEEEEC1B8ue170006ERSC_m, symObjAddr: 0x1F268, symBinAddr: 0x100023A08, symSize: 0x3C }
  - { offsetInCU: 0x4C6AE, offset: 0x63B02, size: 0x8, addend: 0x0, symName: __ZNSt3__110unique_ptrINS_11__list_nodeINS_4pairINS_12basic_stringIcNS_11char_traitsIcEENS_9allocatorIcEEEEiEEPvEENS_22__allocator_destructorINS6_ISB_EEEEEC1B8ue170006ILb1EvEEPSB_NS_16__dependent_typeINS_27__unique_ptr_deleter_sfinaeISE_EEXT_EE20__good_rval_ref_typeE, symObjAddr: 0x1F2A4, symBinAddr: 0x100023A44, symSize: 0x3C }
  - { offsetInCU: 0x4C6FF, offset: 0x63B53, size: 0x8, addend: 0x0, symName: __ZNSt3__19allocatorINS_11__list_nodeINS_4pairINS_12basic_stringIcNS_11char_traitsIcEENS0_IcEEEEiEEPvEEE8allocateB8ue170006Em, symObjAddr: 0x1F2E0, symBinAddr: 0x100023A80, symSize: 0x5C }
  - { offsetInCU: 0x4C73D, offset: 0x63B91, size: 0x8, addend: 0x0, symName: __ZNSt3__116allocator_traitsINS_9allocatorINS_11__list_nodeINS_4pairINS_12basic_stringIcNS_11char_traitsIcEENS1_IcEEEEiEEPvEEEEE8max_sizeB8ue170006ISC_vvEEmRKSC_, symObjAddr: 0x1F33C, symBinAddr: 0x100023ADC, symSize: 0x28 }
  - { offsetInCU: 0x4C769, offset: 0x63BBD, size: 0x8, addend: 0x0, symName: __ZNSt3__122__allocator_destructorINS_9allocatorINS_11__list_nodeINS_4pairINS_12basic_stringIcNS_11char_traitsIcEENS1_IcEEEEiEEPvEEEEEC2B8ue170006ERSC_m, symObjAddr: 0x1F364, symBinAddr: 0x100023B04, symSize: 0x2C }
  - { offsetInCU: 0x4C7AF, offset: 0x63C03, size: 0x8, addend: 0x0, symName: __ZNSt3__110unique_ptrINS_11__list_nodeINS_4pairINS_12basic_stringIcNS_11char_traitsIcEENS_9allocatorIcEEEEiEEPvEENS_22__allocator_destructorINS6_ISB_EEEEEC2B8ue170006ILb1EvEEPSB_NS_16__dependent_typeINS_27__unique_ptr_deleter_sfinaeISE_EEXT_EE20__good_rval_ref_typeE, symObjAddr: 0x1F390, symBinAddr: 0x100023B30, symSize: 0x48 }
  - { offsetInCU: 0x4C800, offset: 0x63C54, size: 0x8, addend: 0x0, symName: __ZNSt3__117__compressed_pairIPNS_11__list_nodeINS_4pairINS_12basic_stringIcNS_11char_traitsIcEENS_9allocatorIcEEEEiEEPvEENS_22__allocator_destructorINS6_ISB_EEEEEC1B8ue170006IRSC_SF_EEOT_OT0_, symObjAddr: 0x1F3D8, symBinAddr: 0x100023B78, symSize: 0x3C }
  - { offsetInCU: 0x4C858, offset: 0x63CAC, size: 0x8, addend: 0x0, symName: __ZNSt3__117__compressed_pairIPNS_11__list_nodeINS_4pairINS_12basic_stringIcNS_11char_traitsIcEENS_9allocatorIcEEEEiEEPvEENS_22__allocator_destructorINS6_ISB_EEEEEC2B8ue170006IRSC_SF_EEOT_OT0_, symObjAddr: 0x1F414, symBinAddr: 0x100023BB4, symSize: 0x48 }
  - { offsetInCU: 0x4C8B0, offset: 0x63D04, size: 0x8, addend: 0x0, symName: __ZNSt3__122__compressed_pair_elemIPNS_11__list_nodeINS_4pairINS_12basic_stringIcNS_11char_traitsIcEENS_9allocatorIcEEEEiEEPvEELi0ELb0EEC2B8ue170006IRSC_vEEOT_, symObjAddr: 0x1F45C, symBinAddr: 0x100023BFC, symSize: 0x24 }
  - { offsetInCU: 0x4C8F2, offset: 0x63D46, size: 0x8, addend: 0x0, symName: __ZNSt3__122__compressed_pair_elemINS_22__allocator_destructorINS_9allocatorINS_11__list_nodeINS_4pairINS_12basic_stringIcNS_11char_traitsIcEENS2_IcEEEEiEEPvEEEEEELi1ELb0EEC2B8ue170006ISE_vEEOT_, symObjAddr: 0x1F480, symBinAddr: 0x100023C20, symSize: 0x24 }
  - { offsetInCU: 0x4C934, offset: 0x63D88, size: 0x8, addend: 0x0, symName: __ZNKSt3__117__compressed_pairIPNS_11__list_nodeINS_4pairINS_12basic_stringIcNS_11char_traitsIcEENS_9allocatorIcEEEEiEEPvEENS_22__allocator_destructorINS6_ISB_EEEEE5firstB8ue170006Ev, symObjAddr: 0x1F4E0, symBinAddr: 0x100023C80, symSize: 0x24 }
  - { offsetInCU: 0x4C95A, offset: 0x63DAE, size: 0x8, addend: 0x0, symName: __ZNKSt3__122__compressed_pair_elemIPNS_11__list_nodeINS_4pairINS_12basic_stringIcNS_11char_traitsIcEENS_9allocatorIcEEEEiEEPvEELi0ELb0EE5__getB8ue170006Ev, symObjAddr: 0x1F504, symBinAddr: 0x100023CA4, symSize: 0x14 }
  - { offsetInCU: 0x4C980, offset: 0x63DD4, size: 0x8, addend: 0x0, symName: __ZNSt3__117__compressed_pairIPNS_11__list_nodeINS_4pairINS_12basic_stringIcNS_11char_traitsIcEENS_9allocatorIcEEEEiEEPvEENS_22__allocator_destructorINS6_ISB_EEEEE5firstB8ue170006Ev, symObjAddr: 0x1F518, symBinAddr: 0x100023CB8, symSize: 0x24 }
  - { offsetInCU: 0x4C9A6, offset: 0x63DFA, size: 0x8, addend: 0x0, symName: __ZNSt3__122__compressed_pair_elemIPNS_11__list_nodeINS_4pairINS_12basic_stringIcNS_11char_traitsIcEENS_9allocatorIcEEEEiEEPvEELi0ELb0EE5__getB8ue170006Ev, symObjAddr: 0x1F53C, symBinAddr: 0x100023CDC, symSize: 0x14 }
  - { offsetInCU: 0x4C9CC, offset: 0x63E20, size: 0x8, addend: 0x0, symName: __ZNSt3__110unique_ptrINS_11__list_nodeINS_4pairINS_12basic_stringIcNS_11char_traitsIcEENS_9allocatorIcEEEEiEEPvEENS_22__allocator_destructorINS6_ISB_EEEEED2B8ue170006Ev, symObjAddr: 0x1F550, symBinAddr: 0x100023CF0, symSize: 0x30 }
  - { offsetInCU: 0x4C9F6, offset: 0x63E4A, size: 0x8, addend: 0x0, symName: __ZNSt3__110unique_ptrINS_11__list_nodeINS_4pairINS_12basic_stringIcNS_11char_traitsIcEENS_9allocatorIcEEEEiEEPvEENS_22__allocator_destructorINS6_ISB_EEEEE5resetB8ue170006EPSB_, symObjAddr: 0x1F580, symBinAddr: 0x100023D20, symSize: 0x78 }
  - { offsetInCU: 0x4CA3A, offset: 0x63E8E, size: 0x8, addend: 0x0, symName: __ZNSt3__117__compressed_pairIPNS_11__list_nodeINS_4pairINS_12basic_stringIcNS_11char_traitsIcEENS_9allocatorIcEEEEiEEPvEENS_22__allocator_destructorINS6_ISB_EEEEE6secondB8ue170006Ev, symObjAddr: 0x1F5F8, symBinAddr: 0x100023D98, symSize: 0x28 }
  - { offsetInCU: 0x4CA60, offset: 0x63EB4, size: 0x8, addend: 0x0, symName: __ZNSt3__122__allocator_destructorINS_9allocatorINS_11__list_nodeINS_4pairINS_12basic_stringIcNS_11char_traitsIcEENS1_IcEEEEiEEPvEEEEEclB8ue170006EPSB_, symObjAddr: 0x1F620, symBinAddr: 0x100023DC0, symSize: 0x34 }
  - { offsetInCU: 0x4CA94, offset: 0x63EE8, size: 0x8, addend: 0x0, symName: __ZNSt3__122__compressed_pair_elemINS_22__allocator_destructorINS_9allocatorINS_11__list_nodeINS_4pairINS_12basic_stringIcNS_11char_traitsIcEENS2_IcEEEEiEEPvEEEEEELi1ELb0EE5__getB8ue170006Ev, symObjAddr: 0x1F654, symBinAddr: 0x100023DF4, symSize: 0x14 }
  - { offsetInCU: 0x4CABA, offset: 0x63F0E, size: 0x8, addend: 0x0, symName: __ZNSt3__110__list_impINS_4pairINS_12basic_stringIcNS_11char_traitsIcEENS_9allocatorIcEEEEiEENS5_IS8_EEE5beginB8ue170006Ev, symObjAddr: 0x1F668, symBinAddr: 0x100023E08, symSize: 0x30 }
  - { offsetInCU: 0x4CAE0, offset: 0x63F34, size: 0x8, addend: 0x0, symName: __ZNSt3__115__list_iteratorINS_4pairINS_12basic_stringIcNS_11char_traitsIcEENS_9allocatorIcEEEEiEEPvEC1B8ue170006EPNS_16__list_node_baseIS8_S9_EE, symObjAddr: 0x1F698, symBinAddr: 0x100023E38, symSize: 0x34 }
  - { offsetInCU: 0x4CB19, offset: 0x63F6D, size: 0x8, addend: 0x0, symName: __ZNSt3__115__list_iteratorINS_4pairINS_12basic_stringIcNS_11char_traitsIcEENS_9allocatorIcEEEEiEEPvEC2B8ue170006EPNS_16__list_node_baseIS8_S9_EE, symObjAddr: 0x1F6CC, symBinAddr: 0x100023E6C, symSize: 0x20 }
  - { offsetInCU: 0x4CB52, offset: 0x63FA6, size: 0x8, addend: 0x0, symName: __ZNSt3__110__list_impINS_4pairINS_12basic_stringIcNS_11char_traitsIcEENS_9allocatorIcEEEEiEENS5_IS8_EEE3endB8ue170006Ev, symObjAddr: 0x1F6EC, symBinAddr: 0x100023E8C, symSize: 0x34 }
  - { offsetInCU: 0x4CB78, offset: 0x63FCC, size: 0x8, addend: 0x0, symName: __ZNSt3__16__treeINS_12__value_typeINS_12basic_stringIcNS_11char_traitsIcEENS_9allocatorIcEEEES7_EENS_19__map_value_compareIS7_S8_NS_4lessIS7_EELb1EEENS5_IS8_EEE25__emplace_unique_key_argsIS7_JRKNS_21piecewise_construct_tENS_5tupleIJRKS7_EEENSJ_IJEEEEEENS_4pairINS_15__tree_iteratorIS8_PNS_11__tree_nodeIS8_PvEElEEbEERKT_DpOT0_, symObjAddr: 0x1F750, symBinAddr: 0x100023EF0, symSize: 0x100 }
  - { offsetInCU: 0x4CC4E, offset: 0x640A2, size: 0x8, addend: 0x0, symName: __ZNKSt3__115__tree_iteratorINS_12__value_typeINS_12basic_stringIcNS_11char_traitsIcEENS_9allocatorIcEEEES7_EEPNS_11__tree_nodeIS8_PvEElEptB8ue170006Ev, symObjAddr: 0x1F850, symBinAddr: 0x100023FF0, symSize: 0x2C }
  - { offsetInCU: 0x4CC74, offset: 0x640C8, size: 0x8, addend: 0x0, symName: __ZNSt3__16__treeINS_12__value_typeINS_12basic_stringIcNS_11char_traitsIcEENS_9allocatorIcEEEES7_EENS_19__map_value_compareIS7_S8_NS_4lessIS7_EELb1EEENS5_IS8_EEE16__construct_nodeIJRKNS_21piecewise_construct_tENS_5tupleIJRKS7_EEENSJ_IJEEEEEENS_10unique_ptrINS_11__tree_nodeIS8_PvEENS_22__tree_node_destructorINS5_ISR_EEEEEEDpOT_, symObjAddr: 0x1F87C, symBinAddr: 0x10002401C, symSize: 0x120 }
  - { offsetInCU: 0x4CCFD, offset: 0x64151, size: 0x8, addend: 0x0, symName: __ZNSt3__116allocator_traitsINS_9allocatorINS_11__tree_nodeINS_12__value_typeINS_12basic_stringIcNS_11char_traitsIcEENS1_IcEEEES8_EEPvEEEEE9constructB8ue170006INS_4pairIKS8_S8_EEJRKNS_21piecewise_construct_tENS_5tupleIJRSG_EEENSL_IJEEEEvvEEvRSC_PT_DpOT0_, symObjAddr: 0x1F99C, symBinAddr: 0x10002413C, symSize: 0x40 }
  - { offsetInCU: 0x4CD7A, offset: 0x641CE, size: 0x8, addend: 0x0, symName: __ZNSt3__14pairIKNS_12basic_stringIcNS_11char_traitsIcEENS_9allocatorIcEEEES6_EC1B8ue170006IJRS7_EJEEENS_21piecewise_construct_tENS_5tupleIJDpT_EEENSC_IJDpT0_EEE, symObjAddr: 0x1FA2C, symBinAddr: 0x1000241CC, symSize: 0x3C }
  - { offsetInCU: 0x4CDE1, offset: 0x64235, size: 0x8, addend: 0x0, symName: __ZNSt3__14pairIKNS_12basic_stringIcNS_11char_traitsIcEENS_9allocatorIcEEEES6_EC1B8ue170006IJRS7_EJEJLm0EEJEEENS_21piecewise_construct_tERNS_5tupleIJDpT_EEERNSC_IJDpT0_EEENS_15__tuple_indicesIJXspT1_EEEENSL_IJXspT2_EEEE, symObjAddr: 0x1FA68, symBinAddr: 0x100024208, symSize: 0x3C }
  - { offsetInCU: 0x4CE72, offset: 0x642C6, size: 0x8, addend: 0x0, symName: __ZNSt3__14pairIKNS_12basic_stringIcNS_11char_traitsIcEENS_9allocatorIcEEEES6_EC2B8ue170006IJRS7_EJEJLm0EEJEEENS_21piecewise_construct_tERNS_5tupleIJDpT_EEERNSC_IJDpT0_EEENS_15__tuple_indicesIJXspT1_EEEENSL_IJXspT2_EEEE, symObjAddr: 0x1FAA4, symBinAddr: 0x100024244, symSize: 0x50 }
